
ECU_Transmit_Test.elf:     file format elf32-littlearm

Sections:
Idx Name          Size      VMA       LMA       File off  Algn
  0 .isr_vector   000001d8  08000000  08000000  00001000  2**0
                  CONTENTS, ALLOC, LOAD, READONLY, DATA
  1 .text         000056f4  080001d8  080001d8  000011d8  2**2
                  CONTENTS, ALLOC, LOAD, READONLY, CODE
  2 .rodata       00000040  080058cc  080058cc  000068cc  2**2
                  CONTENTS, ALLOC, LOAD, READONLY, DATA
  3 .ARM.extab    00000000  0800590c  0800590c  00007014  2**0
                  CONTENTS, READONLY
  4 .ARM          00000008  0800590c  0800590c  0000690c  2**2
                  CONTENTS, ALLOC, LOAD, READONLY, DATA
  5 .preinit_array 00000000  08005914  08005914  00007014  2**0
                  CONTENTS, ALLOC, LOAD, DATA
  6 .init_array   00000004  08005914  08005914  00006914  2**2
                  CONTENTS, ALLOC, LOAD, READONLY, DATA
  7 .fini_array   00000004  08005918  08005918  00006918  2**2
                  CONTENTS, ALLOC, LOAD, READONLY, DATA
  8 .data         00000014  20000000  0800591c  00007000  2**2
                  CONTENTS, ALLOC, LOAD, DATA
  9 .bss          00000378  20000014  08005930  00007014  2**2
                  ALLOC
 10 ._user_heap_stack 00000604  2000038c  08005930  0000738c  2**0
                  ALLOC
 11 .ARM.attributes 00000030  00000000  00000000  00007014  2**0
                  CONTENTS, READONLY
 12 .debug_info   000149ad  00000000  00000000  00007044  2**0
                  CONTENTS, READONLY, DEBUGGING, OCTETS
 13 .debug_abbrev 00002689  00000000  00000000  0001b9f1  2**0
                  CONTENTS, READONLY, DEBUGGING, OCTETS
 14 .debug_aranges 00001100  00000000  00000000  0001e080  2**3
                  CONTENTS, READONLY, DEBUGGING, OCTETS
 15 .debug_rnglists 00000d10  00000000  00000000  0001f180  2**0
                  CONTENTS, READONLY, DEBUGGING, OCTETS
 16 .debug_macro  0001fca8  00000000  00000000  0001fe90  2**0
                  CONTENTS, READONLY, DEBUGGING, OCTETS
 17 .debug_line   00011c3a  00000000  00000000  0003fb38  2**0
                  CONTENTS, READONLY, DEBUGGING, OCTETS
 18 .debug_str    000d1fed  00000000  00000000  00051772  2**0
                  CONTENTS, READONLY, DEBUGGING, OCTETS
 19 .comment      00000043  00000000  00000000  0012375f  2**0
                  CONTENTS, READONLY
 20 .debug_frame  000048bc  00000000  00000000  001237a4  2**2
                  CONTENTS, READONLY, DEBUGGING, OCTETS
 21 .debug_line_str 00000062  00000000  00000000  00128060  2**0
                  CONTENTS, READONLY, DEBUGGING, OCTETS

Disassembly of section .text:

080001d8 <__do_global_dtors_aux>:
 80001d8:	b510      	push	{r4, lr}
 80001da:	4c05      	ldr	r4, [pc, #20]	@ (80001f0 <__do_global_dtors_aux+0x18>)
 80001dc:	7823      	ldrb	r3, [r4, #0]
 80001de:	b933      	cbnz	r3, 80001ee <__do_global_dtors_aux+0x16>
 80001e0:	4b04      	ldr	r3, [pc, #16]	@ (80001f4 <__do_global_dtors_aux+0x1c>)
 80001e2:	b113      	cbz	r3, 80001ea <__do_global_dtors_aux+0x12>
 80001e4:	4804      	ldr	r0, [pc, #16]	@ (80001f8 <__do_global_dtors_aux+0x20>)
 80001e6:	f3af 8000 	nop.w
 80001ea:	2301      	movs	r3, #1
 80001ec:	7023      	strb	r3, [r4, #0]
 80001ee:	bd10      	pop	{r4, pc}
 80001f0:	20000014 	.word	0x20000014
 80001f4:	00000000 	.word	0x00000000
 80001f8:	080058b4 	.word	0x080058b4

080001fc <frame_dummy>:
 80001fc:	b508      	push	{r3, lr}
 80001fe:	4b03      	ldr	r3, [pc, #12]	@ (800020c <frame_dummy+0x10>)
 8000200:	b11b      	cbz	r3, 800020a <frame_dummy+0xe>
 8000202:	4903      	ldr	r1, [pc, #12]	@ (8000210 <frame_dummy+0x14>)
 8000204:	4803      	ldr	r0, [pc, #12]	@ (8000214 <frame_dummy+0x18>)
 8000206:	f3af 8000 	nop.w
 800020a:	bd08      	pop	{r3, pc}
 800020c:	00000000 	.word	0x00000000
 8000210:	20000018 	.word	0x20000018
 8000214:	080058b4 	.word	0x080058b4

08000218 <__aeabi_uldivmod>:
 8000218:	b953      	cbnz	r3, 8000230 <__aeabi_uldivmod+0x18>
 800021a:	b94a      	cbnz	r2, 8000230 <__aeabi_uldivmod+0x18>
 800021c:	2900      	cmp	r1, #0
 800021e:	bf08      	it	eq
 8000220:	2800      	cmpeq	r0, #0
 8000222:	bf1c      	itt	ne
 8000224:	f04f 31ff 	movne.w	r1, #4294967295	@ 0xffffffff
 8000228:	f04f 30ff 	movne.w	r0, #4294967295	@ 0xffffffff
 800022c:	f000 b988 	b.w	8000540 <__aeabi_idiv0>
 8000230:	f1ad 0c08 	sub.w	ip, sp, #8
 8000234:	e96d ce04 	strd	ip, lr, [sp, #-16]!
 8000238:	f000 f806 	bl	8000248 <__udivmoddi4>
 800023c:	f8dd e004 	ldr.w	lr, [sp, #4]
 8000240:	e9dd 2302 	ldrd	r2, r3, [sp, #8]
 8000244:	b004      	add	sp, #16
 8000246:	4770      	bx	lr

08000248 <__udivmoddi4>:
 8000248:	e92d 47f0 	stmdb	sp!, {r4, r5, r6, r7, r8, r9, sl, lr}
 800024c:	9d08      	ldr	r5, [sp, #32]
 800024e:	468e      	mov	lr, r1
 8000250:	4604      	mov	r4, r0
 8000252:	4688      	mov	r8, r1
 8000254:	2b00      	cmp	r3, #0
 8000256:	d14a      	bne.n	80002ee <__udivmoddi4+0xa6>
 8000258:	428a      	cmp	r2, r1
 800025a:	4617      	mov	r7, r2
 800025c:	d962      	bls.n	8000324 <__udivmoddi4+0xdc>
 800025e:	fab2 f682 	clz	r6, r2
 8000262:	b14e      	cbz	r6, 8000278 <__udivmoddi4+0x30>
 8000264:	f1c6 0320 	rsb	r3, r6, #32
 8000268:	fa01 f806 	lsl.w	r8, r1, r6
 800026c:	fa20 f303 	lsr.w	r3, r0, r3
 8000270:	40b7      	lsls	r7, r6
 8000272:	ea43 0808 	orr.w	r8, r3, r8
 8000276:	40b4      	lsls	r4, r6
 8000278:	ea4f 4e17 	mov.w	lr, r7, lsr #16
 800027c:	fa1f fc87 	uxth.w	ip, r7
 8000280:	fbb8 f1fe 	udiv	r1, r8, lr
 8000284:	0c23      	lsrs	r3, r4, #16
 8000286:	fb0e 8811 	mls	r8, lr, r1, r8
 800028a:	ea43 4308 	orr.w	r3, r3, r8, lsl #16
 800028e:	fb01 f20c 	mul.w	r2, r1, ip
 8000292:	429a      	cmp	r2, r3
 8000294:	d909      	bls.n	80002aa <__udivmoddi4+0x62>
 8000296:	18fb      	adds	r3, r7, r3
 8000298:	f101 30ff 	add.w	r0, r1, #4294967295	@ 0xffffffff
 800029c:	f080 80ea 	bcs.w	8000474 <__udivmoddi4+0x22c>
 80002a0:	429a      	cmp	r2, r3
 80002a2:	f240 80e7 	bls.w	8000474 <__udivmoddi4+0x22c>
 80002a6:	3902      	subs	r1, #2
 80002a8:	443b      	add	r3, r7
 80002aa:	1a9a      	subs	r2, r3, r2
 80002ac:	b2a3      	uxth	r3, r4
 80002ae:	fbb2 f0fe 	udiv	r0, r2, lr
 80002b2:	fb0e 2210 	mls	r2, lr, r0, r2
 80002b6:	ea43 4302 	orr.w	r3, r3, r2, lsl #16
 80002ba:	fb00 fc0c 	mul.w	ip, r0, ip
 80002be:	459c      	cmp	ip, r3
 80002c0:	d909      	bls.n	80002d6 <__udivmoddi4+0x8e>
 80002c2:	18fb      	adds	r3, r7, r3
 80002c4:	f100 32ff 	add.w	r2, r0, #4294967295	@ 0xffffffff
 80002c8:	f080 80d6 	bcs.w	8000478 <__udivmoddi4+0x230>
 80002cc:	459c      	cmp	ip, r3
 80002ce:	f240 80d3 	bls.w	8000478 <__udivmoddi4+0x230>
 80002d2:	443b      	add	r3, r7
 80002d4:	3802      	subs	r0, #2
 80002d6:	ea40 4001 	orr.w	r0, r0, r1, lsl #16
 80002da:	eba3 030c 	sub.w	r3, r3, ip
 80002de:	2100      	movs	r1, #0
 80002e0:	b11d      	cbz	r5, 80002ea <__udivmoddi4+0xa2>
 80002e2:	40f3      	lsrs	r3, r6
 80002e4:	2200      	movs	r2, #0
 80002e6:	e9c5 3200 	strd	r3, r2, [r5]
 80002ea:	e8bd 87f0 	ldmia.w	sp!, {r4, r5, r6, r7, r8, r9, sl, pc}
 80002ee:	428b      	cmp	r3, r1
 80002f0:	d905      	bls.n	80002fe <__udivmoddi4+0xb6>
 80002f2:	b10d      	cbz	r5, 80002f8 <__udivmoddi4+0xb0>
 80002f4:	e9c5 0100 	strd	r0, r1, [r5]
 80002f8:	2100      	movs	r1, #0
 80002fa:	4608      	mov	r0, r1
 80002fc:	e7f5      	b.n	80002ea <__udivmoddi4+0xa2>
 80002fe:	fab3 f183 	clz	r1, r3
 8000302:	2900      	cmp	r1, #0
 8000304:	d146      	bne.n	8000394 <__udivmoddi4+0x14c>
 8000306:	4573      	cmp	r3, lr
 8000308:	d302      	bcc.n	8000310 <__udivmoddi4+0xc8>
 800030a:	4282      	cmp	r2, r0
 800030c:	f200 8105 	bhi.w	800051a <__udivmoddi4+0x2d2>
 8000310:	1a84      	subs	r4, r0, r2
 8000312:	eb6e 0203 	sbc.w	r2, lr, r3
 8000316:	2001      	movs	r0, #1
 8000318:	4690      	mov	r8, r2
 800031a:	2d00      	cmp	r5, #0
 800031c:	d0e5      	beq.n	80002ea <__udivmoddi4+0xa2>
 800031e:	e9c5 4800 	strd	r4, r8, [r5]
 8000322:	e7e2      	b.n	80002ea <__udivmoddi4+0xa2>
 8000324:	2a00      	cmp	r2, #0
 8000326:	f000 8090 	beq.w	800044a <__udivmoddi4+0x202>
 800032a:	fab2 f682 	clz	r6, r2
 800032e:	2e00      	cmp	r6, #0
 8000330:	f040 80a4 	bne.w	800047c <__udivmoddi4+0x234>
 8000334:	1a8a      	subs	r2, r1, r2
 8000336:	0c03      	lsrs	r3, r0, #16
 8000338:	ea4f 4e17 	mov.w	lr, r7, lsr #16
 800033c:	b280      	uxth	r0, r0
 800033e:	b2bc      	uxth	r4, r7
 8000340:	2101      	movs	r1, #1
 8000342:	fbb2 fcfe 	udiv	ip, r2, lr
 8000346:	fb0e 221c 	mls	r2, lr, ip, r2
 800034a:	ea43 4302 	orr.w	r3, r3, r2, lsl #16
 800034e:	fb04 f20c 	mul.w	r2, r4, ip
 8000352:	429a      	cmp	r2, r3
 8000354:	d907      	bls.n	8000366 <__udivmoddi4+0x11e>
 8000356:	18fb      	adds	r3, r7, r3
 8000358:	f10c 38ff 	add.w	r8, ip, #4294967295	@ 0xffffffff
 800035c:	d202      	bcs.n	8000364 <__udivmoddi4+0x11c>
 800035e:	429a      	cmp	r2, r3
 8000360:	f200 80e0 	bhi.w	8000524 <__udivmoddi4+0x2dc>
 8000364:	46c4      	mov	ip, r8
 8000366:	1a9b      	subs	r3, r3, r2
 8000368:	fbb3 f2fe 	udiv	r2, r3, lr
 800036c:	fb0e 3312 	mls	r3, lr, r2, r3
 8000370:	ea40 4303 	orr.w	r3, r0, r3, lsl #16
 8000374:	fb02 f404 	mul.w	r4, r2, r4
 8000378:	429c      	cmp	r4, r3
 800037a:	d907      	bls.n	800038c <__udivmoddi4+0x144>
 800037c:	18fb      	adds	r3, r7, r3
 800037e:	f102 30ff 	add.w	r0, r2, #4294967295	@ 0xffffffff
 8000382:	d202      	bcs.n	800038a <__udivmoddi4+0x142>
 8000384:	429c      	cmp	r4, r3
 8000386:	f200 80ca 	bhi.w	800051e <__udivmoddi4+0x2d6>
 800038a:	4602      	mov	r2, r0
 800038c:	1b1b      	subs	r3, r3, r4
 800038e:	ea42 400c 	orr.w	r0, r2, ip, lsl #16
 8000392:	e7a5      	b.n	80002e0 <__udivmoddi4+0x98>
 8000394:	f1c1 0620 	rsb	r6, r1, #32
 8000398:	408b      	lsls	r3, r1
 800039a:	fa22 f706 	lsr.w	r7, r2, r6
 800039e:	431f      	orrs	r7, r3
 80003a0:	fa0e f401 	lsl.w	r4, lr, r1
 80003a4:	fa20 f306 	lsr.w	r3, r0, r6
 80003a8:	fa2e fe06 	lsr.w	lr, lr, r6
 80003ac:	ea4f 4917 	mov.w	r9, r7, lsr #16
 80003b0:	4323      	orrs	r3, r4
 80003b2:	fa00 f801 	lsl.w	r8, r0, r1
 80003b6:	fa1f fc87 	uxth.w	ip, r7
 80003ba:	fbbe f0f9 	udiv	r0, lr, r9
 80003be:	0c1c      	lsrs	r4, r3, #16
 80003c0:	fb09 ee10 	mls	lr, r9, r0, lr
 80003c4:	ea44 440e 	orr.w	r4, r4, lr, lsl #16
 80003c8:	fb00 fe0c 	mul.w	lr, r0, ip
 80003cc:	45a6      	cmp	lr, r4
 80003ce:	fa02 f201 	lsl.w	r2, r2, r1
 80003d2:	d909      	bls.n	80003e8 <__udivmoddi4+0x1a0>
 80003d4:	193c      	adds	r4, r7, r4
 80003d6:	f100 3aff 	add.w	sl, r0, #4294967295	@ 0xffffffff
 80003da:	f080 809c 	bcs.w	8000516 <__udivmoddi4+0x2ce>
 80003de:	45a6      	cmp	lr, r4
 80003e0:	f240 8099 	bls.w	8000516 <__udivmoddi4+0x2ce>
 80003e4:	3802      	subs	r0, #2
 80003e6:	443c      	add	r4, r7
 80003e8:	eba4 040e 	sub.w	r4, r4, lr
 80003ec:	fa1f fe83 	uxth.w	lr, r3
 80003f0:	fbb4 f3f9 	udiv	r3, r4, r9
 80003f4:	fb09 4413 	mls	r4, r9, r3, r4
 80003f8:	ea4e 4404 	orr.w	r4, lr, r4, lsl #16
 80003fc:	fb03 fc0c 	mul.w	ip, r3, ip
 8000400:	45a4      	cmp	ip, r4
 8000402:	d908      	bls.n	8000416 <__udivmoddi4+0x1ce>
 8000404:	193c      	adds	r4, r7, r4
 8000406:	f103 3eff 	add.w	lr, r3, #4294967295	@ 0xffffffff
 800040a:	f080 8082 	bcs.w	8000512 <__udivmoddi4+0x2ca>
 800040e:	45a4      	cmp	ip, r4
 8000410:	d97f      	bls.n	8000512 <__udivmoddi4+0x2ca>
 8000412:	3b02      	subs	r3, #2
 8000414:	443c      	add	r4, r7
 8000416:	ea43 4000 	orr.w	r0, r3, r0, lsl #16
 800041a:	eba4 040c 	sub.w	r4, r4, ip
 800041e:	fba0 ec02 	umull	lr, ip, r0, r2
 8000422:	4564      	cmp	r4, ip
 8000424:	4673      	mov	r3, lr
 8000426:	46e1      	mov	r9, ip
 8000428:	d362      	bcc.n	80004f0 <__udivmoddi4+0x2a8>
 800042a:	d05f      	beq.n	80004ec <__udivmoddi4+0x2a4>
 800042c:	b15d      	cbz	r5, 8000446 <__udivmoddi4+0x1fe>
 800042e:	ebb8 0203 	subs.w	r2, r8, r3
 8000432:	eb64 0409 	sbc.w	r4, r4, r9
 8000436:	fa04 f606 	lsl.w	r6, r4, r6
 800043a:	fa22 f301 	lsr.w	r3, r2, r1
 800043e:	431e      	orrs	r6, r3
 8000440:	40cc      	lsrs	r4, r1
 8000442:	e9c5 6400 	strd	r6, r4, [r5]
 8000446:	2100      	movs	r1, #0
 8000448:	e74f      	b.n	80002ea <__udivmoddi4+0xa2>
 800044a:	fbb1 fcf2 	udiv	ip, r1, r2
 800044e:	0c01      	lsrs	r1, r0, #16
 8000450:	ea41 410e 	orr.w	r1, r1, lr, lsl #16
 8000454:	b280      	uxth	r0, r0
 8000456:	ea40 4201 	orr.w	r2, r0, r1, lsl #16
 800045a:	463b      	mov	r3, r7
 800045c:	4638      	mov	r0, r7
 800045e:	463c      	mov	r4, r7
 8000460:	46b8      	mov	r8, r7
 8000462:	46be      	mov	lr, r7
 8000464:	2620      	movs	r6, #32
 8000466:	fbb1 f1f7 	udiv	r1, r1, r7
 800046a:	eba2 0208 	sub.w	r2, r2, r8
 800046e:	ea41 410c 	orr.w	r1, r1, ip, lsl #16
 8000472:	e766      	b.n	8000342 <__udivmoddi4+0xfa>
 8000474:	4601      	mov	r1, r0
 8000476:	e718      	b.n	80002aa <__udivmoddi4+0x62>
 8000478:	4610      	mov	r0, r2
 800047a:	e72c      	b.n	80002d6 <__udivmoddi4+0x8e>
 800047c:	f1c6 0220 	rsb	r2, r6, #32
 8000480:	fa2e f302 	lsr.w	r3, lr, r2
 8000484:	40b7      	lsls	r7, r6
 8000486:	40b1      	lsls	r1, r6
 8000488:	fa20 f202 	lsr.w	r2, r0, r2
 800048c:	ea4f 4e17 	mov.w	lr, r7, lsr #16
 8000490:	430a      	orrs	r2, r1
 8000492:	fbb3 f8fe 	udiv	r8, r3, lr
 8000496:	b2bc      	uxth	r4, r7
 8000498:	fb0e 3318 	mls	r3, lr, r8, r3
 800049c:	0c11      	lsrs	r1, r2, #16
 800049e:	ea41 4103 	orr.w	r1, r1, r3, lsl #16
 80004a2:	fb08 f904 	mul.w	r9, r8, r4
 80004a6:	40b0      	lsls	r0, r6
 80004a8:	4589      	cmp	r9, r1
 80004aa:	ea4f 4310 	mov.w	r3, r0, lsr #16
 80004ae:	b280      	uxth	r0, r0
 80004b0:	d93e      	bls.n	8000530 <__udivmoddi4+0x2e8>
 80004b2:	1879      	adds	r1, r7, r1
 80004b4:	f108 3cff 	add.w	ip, r8, #4294967295	@ 0xffffffff
 80004b8:	d201      	bcs.n	80004be <__udivmoddi4+0x276>
 80004ba:	4589      	cmp	r9, r1
 80004bc:	d81f      	bhi.n	80004fe <__udivmoddi4+0x2b6>
 80004be:	eba1 0109 	sub.w	r1, r1, r9
 80004c2:	fbb1 f9fe 	udiv	r9, r1, lr
 80004c6:	fb09 f804 	mul.w	r8, r9, r4
 80004ca:	fb0e 1119 	mls	r1, lr, r9, r1
 80004ce:	b292      	uxth	r2, r2
 80004d0:	ea42 4201 	orr.w	r2, r2, r1, lsl #16
 80004d4:	4542      	cmp	r2, r8
 80004d6:	d229      	bcs.n	800052c <__udivmoddi4+0x2e4>
 80004d8:	18ba      	adds	r2, r7, r2
 80004da:	f109 31ff 	add.w	r1, r9, #4294967295	@ 0xffffffff
 80004de:	d2c4      	bcs.n	800046a <__udivmoddi4+0x222>
 80004e0:	4542      	cmp	r2, r8
 80004e2:	d2c2      	bcs.n	800046a <__udivmoddi4+0x222>
 80004e4:	f1a9 0102 	sub.w	r1, r9, #2
 80004e8:	443a      	add	r2, r7
 80004ea:	e7be      	b.n	800046a <__udivmoddi4+0x222>
 80004ec:	45f0      	cmp	r8, lr
 80004ee:	d29d      	bcs.n	800042c <__udivmoddi4+0x1e4>
 80004f0:	ebbe 0302 	subs.w	r3, lr, r2
 80004f4:	eb6c 0c07 	sbc.w	ip, ip, r7
 80004f8:	3801      	subs	r0, #1
 80004fa:	46e1      	mov	r9, ip
 80004fc:	e796      	b.n	800042c <__udivmoddi4+0x1e4>
 80004fe:	eba7 0909 	sub.w	r9, r7, r9
 8000502:	4449      	add	r1, r9
 8000504:	f1a8 0c02 	sub.w	ip, r8, #2
 8000508:	fbb1 f9fe 	udiv	r9, r1, lr
 800050c:	fb09 f804 	mul.w	r8, r9, r4
 8000510:	e7db      	b.n	80004ca <__udivmoddi4+0x282>
 8000512:	4673      	mov	r3, lr
 8000514:	e77f      	b.n	8000416 <__udivmoddi4+0x1ce>
 8000516:	4650      	mov	r0, sl
 8000518:	e766      	b.n	80003e8 <__udivmoddi4+0x1a0>
 800051a:	4608      	mov	r0, r1
 800051c:	e6fd      	b.n	800031a <__udivmoddi4+0xd2>
 800051e:	443b      	add	r3, r7
 8000520:	3a02      	subs	r2, #2
 8000522:	e733      	b.n	800038c <__udivmoddi4+0x144>
 8000524:	f1ac 0c02 	sub.w	ip, ip, #2
 8000528:	443b      	add	r3, r7
 800052a:	e71c      	b.n	8000366 <__udivmoddi4+0x11e>
 800052c:	4649      	mov	r1, r9
 800052e:	e79c      	b.n	800046a <__udivmoddi4+0x222>
 8000530:	eba1 0109 	sub.w	r1, r1, r9
 8000534:	46c4      	mov	ip, r8
 8000536:	fbb1 f9fe 	udiv	r9, r1, lr
 800053a:	fb09 f804 	mul.w	r8, r9, r4
 800053e:	e7c4      	b.n	80004ca <__udivmoddi4+0x282>

08000540 <__aeabi_idiv0>:
 8000540:	4770      	bx	lr
 8000542:	bf00      	nop

08000544 <HAL_FDCAN_RxFifo0Callback>:

/* USER CODE END PFP */

/* Private user code ---------------------------------------------------------*/
/* USER CODE BEGIN 0 */
void HAL_FDCAN_RxFifo0Callback(FDCAN_HandleTypeDef *hfdcan, uint32_t RxFifo0ITs) {
 8000544:	b580      	push	{r7, lr}
 8000546:	b082      	sub	sp, #8
 8000548:	af00      	add	r7, sp, #0
 800054a:	6078      	str	r0, [r7, #4]
 800054c:	6039      	str	r1, [r7, #0]
	if ((RxFifo0ITs & FDCAN_IT_RX_FIFO0_NEW_MESSAGE) != RESET)
 800054e:	683b      	ldr	r3, [r7, #0]
 8000550:	f003 0301 	and.w	r3, r3, #1
 8000554:	2b00      	cmp	r3, #0
 8000556:	d048      	beq.n	80005ea <HAL_FDCAN_RxFifo0Callback+0xa6>
	{
		// Retrieve Rx messages from RX FIFO0
		if (HAL_FDCAN_GetRxMessage(hfdcan, FDCAN_RX_FIFO0, &rx_header, rx_data.bytes) != HAL_OK)
 8000558:	4b26      	ldr	r3, [pc, #152]	@ (80005f4 <HAL_FDCAN_RxFifo0Callback+0xb0>)
 800055a:	4a27      	ldr	r2, [pc, #156]	@ (80005f8 <HAL_FDCAN_RxFifo0Callback+0xb4>)
 800055c:	2140      	movs	r1, #64	@ 0x40
 800055e:	6878      	ldr	r0, [r7, #4]
 8000560:	f002 fed0 	bl	8003304 <HAL_FDCAN_GetRxMessage>
 8000564:	4603      	mov	r3, r0
 8000566:	2b00      	cmp	r3, #0
 8000568:	d002      	beq.n	8000570 <HAL_FDCAN_RxFifo0Callback+0x2c>
		{
			// Reception Error
			Error_Handler();
 800056a:	f000 fae3 	bl	8000b34 <Error_Handler>
 800056e:	e032      	b.n	80005d6 <HAL_FDCAN_RxFifo0Callback+0x92>
		} else {
			// No error, process received payload
			switch (rx_header.Identifier) {
 8000570:	4b21      	ldr	r3, [pc, #132]	@ (80005f8 <HAL_FDCAN_RxFifo0Callback+0xb4>)
 8000572:	681b      	ldr	r3, [r3, #0]
 8000574:	4a21      	ldr	r2, [pc, #132]	@ (80005fc <HAL_FDCAN_RxFifo0Callback+0xb8>)
 8000576:	4293      	cmp	r3, r2
 8000578:	d020      	beq.n	80005bc <HAL_FDCAN_RxFifo0Callback+0x78>
 800057a:	4a20      	ldr	r2, [pc, #128]	@ (80005fc <HAL_FDCAN_RxFifo0Callback+0xb8>)
 800057c:	4293      	cmp	r3, r2
 800057e:	d82a      	bhi.n	80005d6 <HAL_FDCAN_RxFifo0Callback+0x92>
 8000580:	f240 3281 	movw	r2, #897	@ 0x381
 8000584:	4293      	cmp	r3, r2
 8000586:	d01f      	beq.n	80005c8 <HAL_FDCAN_RxFifo0Callback+0x84>
 8000588:	f240 3281 	movw	r2, #897	@ 0x381
 800058c:	4293      	cmp	r3, r2
 800058e:	d822      	bhi.n	80005d6 <HAL_FDCAN_RxFifo0Callback+0x92>
 8000590:	f240 3201 	movw	r2, #769	@ 0x301
 8000594:	4293      	cmp	r3, r2
 8000596:	d019      	beq.n	80005cc <HAL_FDCAN_RxFifo0Callback+0x88>
 8000598:	f240 3201 	movw	r2, #769	@ 0x301
 800059c:	4293      	cmp	r3, r2
 800059e:	d81a      	bhi.n	80005d6 <HAL_FDCAN_RxFifo0Callback+0x92>
 80005a0:	f240 2281 	movw	r2, #641	@ 0x281
 80005a4:	4293      	cmp	r3, r2
 80005a6:	d013      	beq.n	80005d0 <HAL_FDCAN_RxFifo0Callback+0x8c>
 80005a8:	f240 2281 	movw	r2, #641	@ 0x281
 80005ac:	4293      	cmp	r3, r2
 80005ae:	d812      	bhi.n	80005d6 <HAL_FDCAN_RxFifo0Callback+0x92>
 80005b0:	2b10      	cmp	r3, #16
 80005b2:	d00f      	beq.n	80005d4 <HAL_FDCAN_RxFifo0Callback+0x90>
 80005b4:	f240 1281 	movw	r2, #385	@ 0x181
 80005b8:	4293      	cmp	r3, r2
 80005ba:	e00c      	b.n	80005d6 <HAL_FDCAN_RxFifo0Callback+0x92>
				case 0x281:
					break;
				case 0x381:
					break;
				case CHARGER_RXID:
					HAL_GPIO_TogglePin(GPIOB, GPIO_PIN_8);
 80005bc:	f44f 7180 	mov.w	r1, #256	@ 0x100
 80005c0:	480f      	ldr	r0, [pc, #60]	@ (8000600 <HAL_FDCAN_RxFifo0Callback+0xbc>)
 80005c2:	f003 fc19 	bl	8003df8 <HAL_GPIO_TogglePin>
					break;
 80005c6:	e006      	b.n	80005d6 <HAL_FDCAN_RxFifo0Callback+0x92>
					break;
 80005c8:	bf00      	nop
 80005ca:	e004      	b.n	80005d6 <HAL_FDCAN_RxFifo0Callback+0x92>
				// Display
				case 0x301:
					// Read which button was pressed
					//button_data_test.sensor_int = rx_data.sensor_int;
					//handle_button_press(&race_state, rx_data.bytes[0]); todo: remove the comments
					break;
 80005cc:	bf00      	nop
 80005ce:	e002      	b.n	80005d6 <HAL_FDCAN_RxFifo0Callback+0x92>
					break;
 80005d0:	bf00      	nop
 80005d2:	e000      	b.n	80005d6 <HAL_FDCAN_RxFifo0Callback+0x92>
					break;
 80005d4:	bf00      	nop
			}
		}

		// Reactive receive notifications
		if (HAL_FDCAN_ActivateNotification(hfdcan, FDCAN_IT_RX_FIFO0_NEW_MESSAGE, 0) != HAL_OK)
 80005d6:	2200      	movs	r2, #0
 80005d8:	2101      	movs	r1, #1
 80005da:	6878      	ldr	r0, [r7, #4]
 80005dc:	f002 ff9a 	bl	8003514 <HAL_FDCAN_ActivateNotification>
 80005e0:	4603      	mov	r3, r0
 80005e2:	2b00      	cmp	r3, #0
 80005e4:	d001      	beq.n	80005ea <HAL_FDCAN_RxFifo0Callback+0xa6>
		{
			Error_Handler();
 80005e6:	f000 faa5 	bl	8000b34 <Error_Handler>
		}
	}
}
 80005ea:	bf00      	nop
 80005ec:	3708      	adds	r7, #8
 80005ee:	46bd      	mov	sp, r7
 80005f0:	bd80      	pop	{r7, pc}
 80005f2:	bf00      	nop
 80005f4:	200002e8 	.word	0x200002e8
 80005f8:	200002c0 	.word	0x200002c0
 80005fc:	000c0100 	.word	0x000c0100
 8000600:	48000400 	.word	0x48000400

08000604 <race_state_init>:
    HAL_GPIO_WritePin(PORT_CHARGE, PIN_CHARGE, o3);
    HAL_GPIO_WritePin(PORT_ERROR, PIN_ERROR, o4);
}

// Race state
void race_state_init(struct RaceState* rs) {
 8000604:	b480      	push	{r7}
 8000606:	b083      	sub	sp, #12
 8000608:	af00      	add	r7, sp, #0
 800060a:	6078      	str	r0, [r7, #4]
	rs->rain_state = STATE_NO_RAIN;
 800060c:	687b      	ldr	r3, [r7, #4]
 800060e:	2200      	movs	r2, #0
 8000610:	701a      	strb	r2, [r3, #0]
	rs->race_mode = MODE_RACE;
 8000612:	687b      	ldr	r3, [r7, #4]
 8000614:	2202      	movs	r2, #2
 8000616:	705a      	strb	r2, [r3, #1]
}
 8000618:	bf00      	nop
 800061a:	370c      	adds	r7, #12
 800061c:	46bd      	mov	sp, r7
 800061e:	f85d 7b04 	ldr.w	r7, [sp], #4
 8000622:	4770      	bx	lr

08000624 <throttle_init>:
	tx_data.bytes[0] = rs->rain_state;
	send_CAN_message(0x302, &tx_data);
}

// Throttle functions
void throttle_init(struct Throttle* thr) {
 8000624:	b480      	push	{r7}
 8000626:	b085      	sub	sp, #20
 8000628:	af00      	add	r7, sp, #0
 800062a:	6078      	str	r0, [r7, #4]
	thr->adc_sum = 0;
 800062c:	687b      	ldr	r3, [r7, #4]
 800062e:	f04f 0200 	mov.w	r2, #0
 8000632:	601a      	str	r2, [r3, #0]
	thr->buffer_index = 0;
 8000634:	687b      	ldr	r3, [r7, #4]
 8000636:	2200      	movs	r2, #0
 8000638:	f883 2084 	strb.w	r2, [r3, #132]	@ 0x84
	thr->hysteresis = 2.0f;
 800063c:	687b      	ldr	r3, [r7, #4]
 800063e:	f04f 4280 	mov.w	r2, #1073741824	@ 0x40000000
 8000642:	f8c3 208c 	str.w	r2, [r3, #140]	@ 0x8c
	thr->hysteresis_min = 5.0f;
 8000646:	687b      	ldr	r3, [r7, #4]
 8000648:	4a11      	ldr	r2, [pc, #68]	@ (8000690 <throttle_init+0x6c>)
 800064a:	f8c3 2090 	str.w	r2, [r3, #144]	@ 0x90
	thr->throttle_activated = 0;
 800064e:	687b      	ldr	r3, [r7, #4]
 8000650:	2200      	movs	r2, #0
 8000652:	f883 2094 	strb.w	r2, [r3, #148]	@ 0x94
	// Init buffer with zeroes
	// maybe this can also be done at initialization
	for (int i = 0; i < THROTTLE_BUFFER_SIZE; i++) {
 8000656:	2300      	movs	r3, #0
 8000658:	60fb      	str	r3, [r7, #12]
 800065a:	e00a      	b.n	8000672 <throttle_init+0x4e>
		thr->buffer[i] = 0;
 800065c:	687a      	ldr	r2, [r7, #4]
 800065e:	68fb      	ldr	r3, [r7, #12]
 8000660:	009b      	lsls	r3, r3, #2
 8000662:	4413      	add	r3, r2
 8000664:	3304      	adds	r3, #4
 8000666:	f04f 0200 	mov.w	r2, #0
 800066a:	601a      	str	r2, [r3, #0]
	for (int i = 0; i < THROTTLE_BUFFER_SIZE; i++) {
 800066c:	68fb      	ldr	r3, [r7, #12]
 800066e:	3301      	adds	r3, #1
 8000670:	60fb      	str	r3, [r7, #12]
 8000672:	68fb      	ldr	r3, [r7, #12]
 8000674:	2b1f      	cmp	r3, #31
 8000676:	ddf1      	ble.n	800065c <throttle_init+0x38>
	}

	thr->throttle_value.sensor_float = 0.0f;  // init with 0 for safety
 8000678:	687b      	ldr	r3, [r7, #4]
 800067a:	f04f 0200 	mov.w	r2, #0
 800067e:	f8c3 2088 	str.w	r2, [r3, #136]	@ 0x88
}
 8000682:	bf00      	nop
 8000684:	3714      	adds	r7, #20
 8000686:	46bd      	mov	sp, r7
 8000688:	f85d 7b04 	ldr.w	r7, [sp], #4
 800068c:	4770      	bx	lr
 800068e:	bf00      	nop
 8000690:	40a00000 	.word	0x40a00000

08000694 <steering_angle_init>:
		 th->throttle_value.sensor_float = 0.0f;
	 }
}

// Steering angle functions
void steering_angle_init(struct SteeringAngle* sa) {
 8000694:	b480      	push	{r7}
 8000696:	b085      	sub	sp, #20
 8000698:	af00      	add	r7, sp, #0
 800069a:	6078      	str	r0, [r7, #4]
	sa->adc_sum = 0;
 800069c:	687b      	ldr	r3, [r7, #4]
 800069e:	f04f 0200 	mov.w	r2, #0
 80006a2:	609a      	str	r2, [r3, #8]
	sa->buffer_index = 0;
 80006a4:	687b      	ldr	r3, [r7, #4]
 80006a6:	2200      	movs	r2, #0
 80006a8:	f883 208c 	strb.w	r2, [r3, #140]	@ 0x8c

	// Init buffer with zeroes
	// maybe this can also be done at initialization
	for (int i = 0; i < THROTTLE_BUFFER_SIZE; i++) {
 80006ac:	2300      	movs	r3, #0
 80006ae:	60fb      	str	r3, [r7, #12]
 80006b0:	e00b      	b.n	80006ca <steering_angle_init+0x36>
		sa->buffer[i] = 0;
 80006b2:	687a      	ldr	r2, [r7, #4]
 80006b4:	68fb      	ldr	r3, [r7, #12]
 80006b6:	3302      	adds	r3, #2
 80006b8:	009b      	lsls	r3, r3, #2
 80006ba:	4413      	add	r3, r2
 80006bc:	3304      	adds	r3, #4
 80006be:	f04f 0200 	mov.w	r2, #0
 80006c2:	601a      	str	r2, [r3, #0]
	for (int i = 0; i < THROTTLE_BUFFER_SIZE; i++) {
 80006c4:	68fb      	ldr	r3, [r7, #12]
 80006c6:	3301      	adds	r3, #1
 80006c8:	60fb      	str	r3, [r7, #12]
 80006ca:	68fb      	ldr	r3, [r7, #12]
 80006cc:	2b1f      	cmp	r3, #31
 80006ce:	ddf0      	ble.n	80006b2 <steering_angle_init+0x1e>
	}

	sa->steering_value.sensor_float = 0.0f;  // init with 0 for safety
 80006d0:	687b      	ldr	r3, [r7, #4]
 80006d2:	f04f 0200 	mov.w	r2, #0
 80006d6:	601a      	str	r2, [r3, #0]
}
 80006d8:	bf00      	nop
 80006da:	3714      	adds	r7, #20
 80006dc:	46bd      	mov	sp, r7
 80006de:	f85d 7b04 	ldr.w	r7, [sp], #4
 80006e2:	4770      	bx	lr

080006e4 <HAL_ADC_ConvCpltCallback>:
	// Write average value
	sa->steering_value.sensor_float = sa->adc_sum / 32.0f;
}

// ADC functions
void HAL_ADC_ConvCpltCallback(ADC_HandleTypeDef *hadc){
 80006e4:	b480      	push	{r7}
 80006e6:	b083      	sub	sp, #12
 80006e8:	af00      	add	r7, sp, #0
 80006ea:	6078      	str	r0, [r7, #4]
	adc_complete_flag = 1;
 80006ec:	4b04      	ldr	r3, [pc, #16]	@ (8000700 <HAL_ADC_ConvCpltCallback+0x1c>)
 80006ee:	2201      	movs	r2, #1
 80006f0:	701a      	strb	r2, [r3, #0]
}
 80006f2:	bf00      	nop
 80006f4:	370c      	adds	r7, #12
 80006f6:	46bd      	mov	sp, r7
 80006f8:	f85d 7b04 	ldr.w	r7, [sp], #4
 80006fc:	4770      	bx	lr
 80006fe:	bf00      	nop
 8000700:	200002ec 	.word	0x200002ec

08000704 <main>:
  // Init race state
  race_state_init(&race_state);
  // Init sensor structs
  throttle_init(&throttle_sensor);
  steering_angle_init(&steering_sensor);

 8000704:	b580      	push	{r7, lr}
 8000706:	b082      	sub	sp, #8
 8000708:	af00      	add	r7, sp, #0
  BSP_LED_Init(LED_GREEN);

  /* Initialize COM1 port (115200, 8 bits (7-bit data + 1 stop bit), no parity */
  BspCOMInit.BaudRate   = 115200;
  BspCOMInit.WordLength = COM_WORDLENGTH_8B;
  BspCOMInit.StopBits   = COM_STOPBITS_1;
 800070a:	f000 fc9b 	bl	8001044 <HAL_Init>
  BspCOMInit.HwFlowCtl  = COM_HWCONTROL_NONE;
  if (BSP_COM_Init(COM1, &BspCOMInit) != BSP_ERROR_NONE)
  {
    Error_Handler();
  }

 800070e:	f000 f857 	bl	80007c0 <SystemClock_Config>
  /* USER CODE BEGIN WHILE */
 // uint32_t time_last_3000ms = HAL_GetTick();
  uint32_t time_last_200ms = HAL_GetTick();
  uint32_t time_now;
  while (1)
  {
 8000712:	f000 f9ab 	bl	8000a6c <MX_GPIO_Init>

 8000716:	f000 f97f 	bl	8000a18 <MX_DMA_Init>
	//	tx_data.first.sensor_int = 14;
 800071a:	f000 f89d 	bl	8000858 <MX_ADC2_Init>
	//	tx_data.second.sensor_float = 23;
 800071e:	f000 f911 	bl	8000944 <MX_FDCAN1_Init>
	 // send_CAN_message(0x301, &tx_data);

	//	 HAL_GPIO_TogglePin(GPIOB, GPIO_PIN_8);
 8000722:	2202      	movs	r2, #2
 8000724:	491f      	ldr	r1, [pc, #124]	@ (80007a4 <main+0xa0>)
 8000726:	4820      	ldr	r0, [pc, #128]	@ (80007a8 <main+0xa4>)
 8000728:	f001 f8c0 	bl	80018ac <HAL_ADC_Start_DMA>
// a remetre pr l envoyeur
		// time_now = HAL_GetTick();

 800072c:	481f      	ldr	r0, [pc, #124]	@ (80007ac <main+0xa8>)
 800072e:	f002 fdc1 	bl	80032b4 <HAL_FDCAN_Start>
 8000732:	4603      	mov	r3, r0
 8000734:	2b00      	cmp	r3, #0
 8000736:	d001      	beq.n	800073c <main+0x38>
		// State_Change(time_now,time_last_200ms,time_last_3000ms);
		// CAN_Charger();
 8000738:	f000 f9fc 	bl	8000b34 <Error_Handler>
	//	 HAL_Delay(200);
	//	HAL_GPIO_TogglePin(GPIOB, GPIO_PIN_8);
 800073c:	2200      	movs	r2, #0
 800073e:	2101      	movs	r1, #1
 8000740:	481a      	ldr	r0, [pc, #104]	@ (80007ac <main+0xa8>)
 8000742:	f002 fee7 	bl	8003514 <HAL_FDCAN_ActivateNotification>
 8000746:	4603      	mov	r3, r0
 8000748:	2b00      	cmp	r3, #0
 800074a:	d001      	beq.n	8000750 <main+0x4c>

 	 // Charger

 800074c:	f000 f9f2 	bl	8000b34 <Error_Handler>
 	 //

  }
  // Turn on the inverter
 8000750:	4817      	ldr	r0, [pc, #92]	@ (80007b0 <main+0xac>)
 8000752:	f7ff ff57 	bl	8000604 <race_state_init>


 8000756:	4817      	ldr	r0, [pc, #92]	@ (80007b4 <main+0xb0>)
 8000758:	f7ff ff64 	bl	8000624 <throttle_init>

 800075c:	4816      	ldr	r0, [pc, #88]	@ (80007b8 <main+0xb4>)
 800075e:	f7ff ff99 	bl	8000694 <steering_angle_init>
  int time_sum = 0;
  while (time_sum < 5000) {
	 send_turn_on_inverter();

	 // CAN messages at 50 ms interval
 8000762:	2000      	movs	r0, #0
 8000764:	f000 fb8a 	bl	8000e7c <BSP_LED_Init>
	 time_sum += 50;
	 HAL_Delay(50);
  }
 8000768:	4b14      	ldr	r3, [pc, #80]	@ (80007bc <main+0xb8>)
 800076a:	f44f 32e1 	mov.w	r2, #115200	@ 0x1c200
 800076e:	601a      	str	r2, [r3, #0]

 8000770:	4b12      	ldr	r3, [pc, #72]	@ (80007bc <main+0xb8>)
 8000772:	2200      	movs	r2, #0
 8000774:	605a      	str	r2, [r3, #4]
  // Send Race Mode and Rain State
 8000776:	4b11      	ldr	r3, [pc, #68]	@ (80007bc <main+0xb8>)
 8000778:	2200      	movs	r2, #0
 800077a:	811a      	strh	r2, [r3, #8]
  send_race_mode_display(&race_state);
 800077c:	4b0f      	ldr	r3, [pc, #60]	@ (80007bc <main+0xb8>)
 800077e:	2200      	movs	r2, #0
 8000780:	815a      	strh	r2, [r3, #10]
  send_rain_state_display(&race_state);
 8000782:	4b0e      	ldr	r3, [pc, #56]	@ (80007bc <main+0xb8>)
 8000784:	2200      	movs	r2, #0
 8000786:	819a      	strh	r2, [r3, #12]

 8000788:	490c      	ldr	r1, [pc, #48]	@ (80007bc <main+0xb8>)
 800078a:	2000      	movs	r0, #0
 800078c:	f000 fbac 	bl	8000ee8 <BSP_COM_Init>
 8000790:	4603      	mov	r3, r0
 8000792:	2b00      	cmp	r3, #0
 8000794:	d001      	beq.n	800079a <main+0x96>
  uint32_t time_last_5ms = HAL_GetTick();
  uint32_t time_last_50ms = HAL_GetTick();
 8000796:	f000 f9cd 	bl	8000b34 <Error_Handler>
 // uint32_t time_last_200ms = HAL_GetTick(); attention!

  //uint32_t time_now; ///// attention!
  while (1)
  {
	 time_now = HAL_GetTick();
 800079a:	f000 fcb7 	bl	800110c <HAL_GetTick>
 800079e:	6078      	str	r0, [r7, #4]

	 // Display
 80007a0:	bf00      	nop
 80007a2:	e7fd      	b.n	80007a0 <main+0x9c>
 80007a4:	200002f0 	.word	0x200002f0
 80007a8:	20000040 	.word	0x20000040
 80007ac:	2000010c 	.word	0x2000010c
 80007b0:	20000170 	.word	0x20000170
 80007b4:	20000174 	.word	0x20000174
 80007b8:	2000020c 	.word	0x2000020c
 80007bc:	20000030 	.word	0x20000030

080007c0 <SystemClock_Config>:
  * @brief ADC2 Initialization Function
  * @param None
  * @retval None
  */
static void MX_ADC2_Init(void)
{
 80007c0:	b580      	push	{r7, lr}
 80007c2:	b094      	sub	sp, #80	@ 0x50
 80007c4:	af00      	add	r7, sp, #0

 80007c6:	f107 0318 	add.w	r3, r7, #24
 80007ca:	2238      	movs	r2, #56	@ 0x38
 80007cc:	2100      	movs	r1, #0
 80007ce:	4618      	mov	r0, r3
 80007d0:	f005 f843 	bl	800585a <memset>
  /* USER CODE BEGIN ADC2_Init 0 */
 80007d4:	1d3b      	adds	r3, r7, #4
 80007d6:	2200      	movs	r2, #0
 80007d8:	601a      	str	r2, [r3, #0]
 80007da:	605a      	str	r2, [r3, #4]
 80007dc:	609a      	str	r2, [r3, #8]
 80007de:	60da      	str	r2, [r3, #12]
 80007e0:	611a      	str	r2, [r3, #16]

  /* USER CODE END ADC2_Init 0 */

  ADC_ChannelConfTypeDef sConfig = {0};
 80007e2:	f44f 7000 	mov.w	r0, #512	@ 0x200
 80007e6:	f003 fb21 	bl	8003e2c <HAL_PWREx_ControlVoltageScaling>

  /* USER CODE BEGIN ADC2_Init 1 */

  /* USER CODE END ADC2_Init 1 */

 80007ea:	2302      	movs	r3, #2
 80007ec:	61bb      	str	r3, [r7, #24]
  /** Common config
 80007ee:	f44f 7380 	mov.w	r3, #256	@ 0x100
 80007f2:	627b      	str	r3, [r7, #36]	@ 0x24
  */
 80007f4:	2340      	movs	r3, #64	@ 0x40
 80007f6:	62bb      	str	r3, [r7, #40]	@ 0x28
  hadc2.Instance = ADC2;
 80007f8:	2302      	movs	r3, #2
 80007fa:	637b      	str	r3, [r7, #52]	@ 0x34
  hadc2.Init.ClockPrescaler = ADC_CLOCK_ASYNC_DIV2;
 80007fc:	2302      	movs	r3, #2
 80007fe:	63bb      	str	r3, [r7, #56]	@ 0x38
  hadc2.Init.Resolution = ADC_RESOLUTION_12B;
 8000800:	2301      	movs	r3, #1
 8000802:	63fb      	str	r3, [r7, #60]	@ 0x3c
  hadc2.Init.DataAlign = ADC_DATAALIGN_RIGHT;
 8000804:	2308      	movs	r3, #8
 8000806:	643b      	str	r3, [r7, #64]	@ 0x40
  hadc2.Init.GainCompensation = 0;
 8000808:	2308      	movs	r3, #8
 800080a:	647b      	str	r3, [r7, #68]	@ 0x44
  hadc2.Init.ScanConvMode = ADC_SCAN_ENABLE;
 800080c:	2302      	movs	r3, #2
 800080e:	64bb      	str	r3, [r7, #72]	@ 0x48
  hadc2.Init.EOCSelection = ADC_EOC_SEQ_CONV;
 8000810:	2302      	movs	r3, #2
 8000812:	64fb      	str	r3, [r7, #76]	@ 0x4c
  hadc2.Init.LowPowerAutoWait = ENABLE;
 8000814:	f107 0318 	add.w	r3, r7, #24
 8000818:	4618      	mov	r0, r3
 800081a:	f003 fbbb 	bl	8003f94 <HAL_RCC_OscConfig>
 800081e:	4603      	mov	r3, r0
 8000820:	2b00      	cmp	r3, #0
 8000822:	d001      	beq.n	8000828 <SystemClock_Config+0x68>
  hadc2.Init.ContinuousConvMode = DISABLE;
  hadc2.Init.NbrOfConversion = 2;
 8000824:	f000 f986 	bl	8000b34 <Error_Handler>
  hadc2.Init.DiscontinuousConvMode = DISABLE;
  hadc2.Init.ExternalTrigConv = ADC_SOFTWARE_START;
  hadc2.Init.ExternalTrigConvEdge = ADC_EXTERNALTRIGCONVEDGE_NONE;
  hadc2.Init.DMAContinuousRequests = DISABLE;
  hadc2.Init.Overrun = ADC_OVR_DATA_PRESERVED;
 8000828:	230f      	movs	r3, #15
 800082a:	607b      	str	r3, [r7, #4]
  hadc2.Init.OversamplingMode = DISABLE;
  if (HAL_ADC_Init(&hadc2) != HAL_OK)
 800082c:	2303      	movs	r3, #3
 800082e:	60bb      	str	r3, [r7, #8]
  {
 8000830:	2300      	movs	r3, #0
 8000832:	60fb      	str	r3, [r7, #12]
    Error_Handler();
 8000834:	2300      	movs	r3, #0
 8000836:	613b      	str	r3, [r7, #16]
  }
 8000838:	2300      	movs	r3, #0
 800083a:	617b      	str	r3, [r7, #20]

  /** Configure Regular Channel
 800083c:	1d3b      	adds	r3, r7, #4
 800083e:	2102      	movs	r1, #2
 8000840:	4618      	mov	r0, r3
 8000842:	f003 feb9 	bl	80045b8 <HAL_RCC_ClockConfig>
 8000846:	4603      	mov	r3, r0
 8000848:	2b00      	cmp	r3, #0
 800084a:	d001      	beq.n	8000850 <SystemClock_Config+0x90>
  */
  sConfig.Channel = ADC_CHANNEL_4;
 800084c:	f000 f972 	bl	8000b34 <Error_Handler>
  sConfig.Rank = ADC_REGULAR_RANK_1;
  sConfig.SamplingTime = ADC_SAMPLETIME_2CYCLES_5;
 8000850:	bf00      	nop
 8000852:	3750      	adds	r7, #80	@ 0x50
 8000854:	46bd      	mov	sp, r7
 8000856:	bd80      	pop	{r7, pc}

08000858 <MX_ADC2_Init>:
  sConfig.Offset = 0;
  if (HAL_ADC_ConfigChannel(&hadc2, &sConfig) != HAL_OK)
  {
    Error_Handler();
  }

 8000858:	b580      	push	{r7, lr}
 800085a:	b088      	sub	sp, #32
 800085c:	af00      	add	r7, sp, #0
  /** Configure Regular Channel
  */
  sConfig.Channel = ADC_CHANNEL_1;
  sConfig.Rank = ADC_REGULAR_RANK_2;
  if (HAL_ADC_ConfigChannel(&hadc2, &sConfig) != HAL_OK)
  {
 800085e:	463b      	mov	r3, r7
 8000860:	2220      	movs	r2, #32
 8000862:	2100      	movs	r1, #0
 8000864:	4618      	mov	r0, r3
 8000866:	f004 fff8 	bl	800585a <memset>
  /* USER CODE BEGIN ADC2_Init 2 */

  /* USER CODE END ADC2_Init 2 */

}

 800086a:	4b32      	ldr	r3, [pc, #200]	@ (8000934 <MX_ADC2_Init+0xdc>)
 800086c:	4a32      	ldr	r2, [pc, #200]	@ (8000938 <MX_ADC2_Init+0xe0>)
 800086e:	601a      	str	r2, [r3, #0]
/**
 8000870:	4b30      	ldr	r3, [pc, #192]	@ (8000934 <MX_ADC2_Init+0xdc>)
 8000872:	f44f 2280 	mov.w	r2, #262144	@ 0x40000
 8000876:	605a      	str	r2, [r3, #4]
  * @brief FDCAN1 Initialization Function
 8000878:	4b2e      	ldr	r3, [pc, #184]	@ (8000934 <MX_ADC2_Init+0xdc>)
 800087a:	2200      	movs	r2, #0
 800087c:	609a      	str	r2, [r3, #8]
  * @param None
 800087e:	4b2d      	ldr	r3, [pc, #180]	@ (8000934 <MX_ADC2_Init+0xdc>)
 8000880:	2200      	movs	r2, #0
 8000882:	60da      	str	r2, [r3, #12]
  * @retval None
 8000884:	4b2b      	ldr	r3, [pc, #172]	@ (8000934 <MX_ADC2_Init+0xdc>)
 8000886:	2200      	movs	r2, #0
 8000888:	611a      	str	r2, [r3, #16]
  */
 800088a:	4b2a      	ldr	r3, [pc, #168]	@ (8000934 <MX_ADC2_Init+0xdc>)
 800088c:	2201      	movs	r2, #1
 800088e:	615a      	str	r2, [r3, #20]
static void MX_FDCAN1_Init(void)
 8000890:	4b28      	ldr	r3, [pc, #160]	@ (8000934 <MX_ADC2_Init+0xdc>)
 8000892:	2208      	movs	r2, #8
 8000894:	619a      	str	r2, [r3, #24]
{
 8000896:	4b27      	ldr	r3, [pc, #156]	@ (8000934 <MX_ADC2_Init+0xdc>)
 8000898:	2201      	movs	r2, #1
 800089a:	771a      	strb	r2, [r3, #28]

 800089c:	4b25      	ldr	r3, [pc, #148]	@ (8000934 <MX_ADC2_Init+0xdc>)
 800089e:	2200      	movs	r2, #0
 80008a0:	775a      	strb	r2, [r3, #29]
  /* USER CODE BEGIN FDCAN1_Init 0 */
 80008a2:	4b24      	ldr	r3, [pc, #144]	@ (8000934 <MX_ADC2_Init+0xdc>)
 80008a4:	2202      	movs	r2, #2
 80008a6:	621a      	str	r2, [r3, #32]

 80008a8:	4b22      	ldr	r3, [pc, #136]	@ (8000934 <MX_ADC2_Init+0xdc>)
 80008aa:	2200      	movs	r2, #0
 80008ac:	f883 2024 	strb.w	r2, [r3, #36]	@ 0x24
  /* USER CODE END FDCAN1_Init 0 */
 80008b0:	4b20      	ldr	r3, [pc, #128]	@ (8000934 <MX_ADC2_Init+0xdc>)
 80008b2:	2200      	movs	r2, #0
 80008b4:	62da      	str	r2, [r3, #44]	@ 0x2c

 80008b6:	4b1f      	ldr	r3, [pc, #124]	@ (8000934 <MX_ADC2_Init+0xdc>)
 80008b8:	2200      	movs	r2, #0
 80008ba:	631a      	str	r2, [r3, #48]	@ 0x30
  /* USER CODE BEGIN FDCAN1_Init 1 */
 80008bc:	4b1d      	ldr	r3, [pc, #116]	@ (8000934 <MX_ADC2_Init+0xdc>)
 80008be:	2200      	movs	r2, #0
 80008c0:	f883 2038 	strb.w	r2, [r3, #56]	@ 0x38

 80008c4:	4b1b      	ldr	r3, [pc, #108]	@ (8000934 <MX_ADC2_Init+0xdc>)
 80008c6:	2200      	movs	r2, #0
 80008c8:	63da      	str	r2, [r3, #60]	@ 0x3c
  /* USER CODE END FDCAN1_Init 1 */
 80008ca:	4b1a      	ldr	r3, [pc, #104]	@ (8000934 <MX_ADC2_Init+0xdc>)
 80008cc:	2200      	movs	r2, #0
 80008ce:	f883 2040 	strb.w	r2, [r3, #64]	@ 0x40
  hfdcan1.Instance = FDCAN1;
 80008d2:	4818      	ldr	r0, [pc, #96]	@ (8000934 <MX_ADC2_Init+0xdc>)
 80008d4:	f000 fe66 	bl	80015a4 <HAL_ADC_Init>
 80008d8:	4603      	mov	r3, r0
 80008da:	2b00      	cmp	r3, #0
 80008dc:	d001      	beq.n	80008e2 <MX_ADC2_Init+0x8a>
  hfdcan1.Init.ClockDivider = FDCAN_CLOCK_DIV1;
  hfdcan1.Init.FrameFormat = FDCAN_FRAME_CLASSIC;
 80008de:	f000 f929 	bl	8000b34 <Error_Handler>
  hfdcan1.Init.Mode = FDCAN_MODE_NORMAL;
  hfdcan1.Init.AutoRetransmission = DISABLE;
  hfdcan1.Init.TransmitPause = DISABLE;
  hfdcan1.Init.ProtocolException = DISABLE;
  hfdcan1.Init.NominalPrescaler = 16;
 80008e2:	4b16      	ldr	r3, [pc, #88]	@ (800093c <MX_ADC2_Init+0xe4>)
 80008e4:	603b      	str	r3, [r7, #0]
  hfdcan1.Init.NominalSyncJumpWidth = 1;
 80008e6:	2306      	movs	r3, #6
 80008e8:	607b      	str	r3, [r7, #4]
  hfdcan1.Init.NominalTimeSeg1 = 13;
 80008ea:	2300      	movs	r3, #0
 80008ec:	60bb      	str	r3, [r7, #8]
  hfdcan1.Init.NominalTimeSeg2 = 2;
 80008ee:	237f      	movs	r3, #127	@ 0x7f
 80008f0:	60fb      	str	r3, [r7, #12]
  hfdcan1.Init.DataPrescaler = 1;
 80008f2:	2304      	movs	r3, #4
 80008f4:	613b      	str	r3, [r7, #16]
  hfdcan1.Init.DataSyncJumpWidth = 1;
 80008f6:	2300      	movs	r3, #0
 80008f8:	617b      	str	r3, [r7, #20]
  hfdcan1.Init.DataTimeSeg1 = 1;
 80008fa:	463b      	mov	r3, r7
 80008fc:	4619      	mov	r1, r3
 80008fe:	480d      	ldr	r0, [pc, #52]	@ (8000934 <MX_ADC2_Init+0xdc>)
 8000900:	f001 fac0 	bl	8001e84 <HAL_ADC_ConfigChannel>
 8000904:	4603      	mov	r3, r0
 8000906:	2b00      	cmp	r3, #0
 8000908:	d001      	beq.n	800090e <MX_ADC2_Init+0xb6>
  hfdcan1.Init.DataTimeSeg2 = 1;
  hfdcan1.Init.StdFiltersNbr = 0;
 800090a:	f000 f913 	bl	8000b34 <Error_Handler>
  hfdcan1.Init.ExtFiltersNbr = 0;
  hfdcan1.Init.TxFifoQueueMode = FDCAN_TX_FIFO_OPERATION;
  if (HAL_FDCAN_Init(&hfdcan1) != HAL_OK)
  {
    Error_Handler();
 800090e:	4b0c      	ldr	r3, [pc, #48]	@ (8000940 <MX_ADC2_Init+0xe8>)
 8000910:	603b      	str	r3, [r7, #0]
  }
 8000912:	230c      	movs	r3, #12
 8000914:	607b      	str	r3, [r7, #4]
  /* USER CODE BEGIN FDCAN1_Init 2 */
 8000916:	463b      	mov	r3, r7
 8000918:	4619      	mov	r1, r3
 800091a:	4806      	ldr	r0, [pc, #24]	@ (8000934 <MX_ADC2_Init+0xdc>)
 800091c:	f001 fab2 	bl	8001e84 <HAL_ADC_ConfigChannel>
 8000920:	4603      	mov	r3, r0
 8000922:	2b00      	cmp	r3, #0
 8000924:	d001      	beq.n	800092a <MX_ADC2_Init+0xd2>
  tx_header.Identifier = 0x301;  // no need to init address yet
    tx_header.IdType = FDCAN_STANDARD_ID;
 8000926:	f000 f905 	bl	8000b34 <Error_Handler>
    tx_header.TxFrameType = FDCAN_DATA_FRAME;
    tx_header.DataLength = FDCAN_DLC_BYTES_8;
    tx_header.ErrorStateIndicator = FDCAN_ESI_ACTIVE;
    tx_header.BitRateSwitch = FDCAN_BRS_OFF;
    tx_header.FDFormat = FDCAN_CLASSIC_CAN;
    tx_header.TxEventFifoControl = FDCAN_NO_TX_EVENTS;
 800092a:	bf00      	nop
 800092c:	3720      	adds	r7, #32
 800092e:	46bd      	mov	sp, r7
 8000930:	bd80      	pop	{r7, pc}
 8000932:	bf00      	nop
 8000934:	20000040 	.word	0x20000040
 8000938:	50000100 	.word	0x50000100
 800093c:	10c00010 	.word	0x10c00010
 8000940:	04300002 	.word	0x04300002

08000944 <MX_FDCAN1_Init>:
    rx_header.IdType= FDCAN_EXTENDED_ID;
  /* USER CODE END FDCAN1_Init 2 */

}

/**
 8000944:	b580      	push	{r7, lr}
 8000946:	af00      	add	r7, sp, #0
{

  /* DMA controller clock enable */
  __HAL_RCC_DMAMUX1_CLK_ENABLE();
  __HAL_RCC_DMA1_CLK_ENABLE();

 8000948:	4b2f      	ldr	r3, [pc, #188]	@ (8000a08 <MX_FDCAN1_Init+0xc4>)
 800094a:	4a30      	ldr	r2, [pc, #192]	@ (8000a0c <MX_FDCAN1_Init+0xc8>)
 800094c:	601a      	str	r2, [r3, #0]
  /* DMA interrupt init */
 800094e:	4b2e      	ldr	r3, [pc, #184]	@ (8000a08 <MX_FDCAN1_Init+0xc4>)
 8000950:	2200      	movs	r2, #0
 8000952:	605a      	str	r2, [r3, #4]
  /* DMA1_Channel1_IRQn interrupt configuration */
 8000954:	4b2c      	ldr	r3, [pc, #176]	@ (8000a08 <MX_FDCAN1_Init+0xc4>)
 8000956:	2200      	movs	r2, #0
 8000958:	609a      	str	r2, [r3, #8]
  HAL_NVIC_SetPriority(DMA1_Channel1_IRQn, 0, 0);
 800095a:	4b2b      	ldr	r3, [pc, #172]	@ (8000a08 <MX_FDCAN1_Init+0xc4>)
 800095c:	2200      	movs	r2, #0
 800095e:	60da      	str	r2, [r3, #12]
  HAL_NVIC_EnableIRQ(DMA1_Channel1_IRQn);
 8000960:	4b29      	ldr	r3, [pc, #164]	@ (8000a08 <MX_FDCAN1_Init+0xc4>)
 8000962:	2200      	movs	r2, #0
 8000964:	741a      	strb	r2, [r3, #16]

 8000966:	4b28      	ldr	r3, [pc, #160]	@ (8000a08 <MX_FDCAN1_Init+0xc4>)
 8000968:	2200      	movs	r2, #0
 800096a:	745a      	strb	r2, [r3, #17]
}
 800096c:	4b26      	ldr	r3, [pc, #152]	@ (8000a08 <MX_FDCAN1_Init+0xc4>)
 800096e:	2200      	movs	r2, #0
 8000970:	749a      	strb	r2, [r3, #18]

 8000972:	4b25      	ldr	r3, [pc, #148]	@ (8000a08 <MX_FDCAN1_Init+0xc4>)
 8000974:	2208      	movs	r2, #8
 8000976:	615a      	str	r2, [r3, #20]
/**
 8000978:	4b23      	ldr	r3, [pc, #140]	@ (8000a08 <MX_FDCAN1_Init+0xc4>)
 800097a:	2201      	movs	r2, #1
 800097c:	619a      	str	r2, [r3, #24]
  * @brief GPIO Initialization Function
 800097e:	4b22      	ldr	r3, [pc, #136]	@ (8000a08 <MX_FDCAN1_Init+0xc4>)
 8000980:	220d      	movs	r2, #13
 8000982:	61da      	str	r2, [r3, #28]
  * @param None
 8000984:	4b20      	ldr	r3, [pc, #128]	@ (8000a08 <MX_FDCAN1_Init+0xc4>)
 8000986:	2202      	movs	r2, #2
 8000988:	621a      	str	r2, [r3, #32]
  * @retval None
 800098a:	4b1f      	ldr	r3, [pc, #124]	@ (8000a08 <MX_FDCAN1_Init+0xc4>)
 800098c:	2201      	movs	r2, #1
 800098e:	625a      	str	r2, [r3, #36]	@ 0x24
  */
 8000990:	4b1d      	ldr	r3, [pc, #116]	@ (8000a08 <MX_FDCAN1_Init+0xc4>)
 8000992:	2201      	movs	r2, #1
 8000994:	629a      	str	r2, [r3, #40]	@ 0x28
static void MX_GPIO_Init(void)
 8000996:	4b1c      	ldr	r3, [pc, #112]	@ (8000a08 <MX_FDCAN1_Init+0xc4>)
 8000998:	2201      	movs	r2, #1
 800099a:	62da      	str	r2, [r3, #44]	@ 0x2c
{
 800099c:	4b1a      	ldr	r3, [pc, #104]	@ (8000a08 <MX_FDCAN1_Init+0xc4>)
 800099e:	2201      	movs	r2, #1
 80009a0:	631a      	str	r2, [r3, #48]	@ 0x30
  GPIO_InitTypeDef GPIO_InitStruct = {0};
 80009a2:	4b19      	ldr	r3, [pc, #100]	@ (8000a08 <MX_FDCAN1_Init+0xc4>)
 80009a4:	2200      	movs	r2, #0
 80009a6:	635a      	str	r2, [r3, #52]	@ 0x34
  /* USER CODE BEGIN MX_GPIO_Init_1 */
 80009a8:	4b17      	ldr	r3, [pc, #92]	@ (8000a08 <MX_FDCAN1_Init+0xc4>)
 80009aa:	2200      	movs	r2, #0
 80009ac:	639a      	str	r2, [r3, #56]	@ 0x38

 80009ae:	4b16      	ldr	r3, [pc, #88]	@ (8000a08 <MX_FDCAN1_Init+0xc4>)
 80009b0:	2200      	movs	r2, #0
 80009b2:	63da      	str	r2, [r3, #60]	@ 0x3c
  /* USER CODE END MX_GPIO_Init_1 */
 80009b4:	4814      	ldr	r0, [pc, #80]	@ (8000a08 <MX_FDCAN1_Init+0xc4>)
 80009b6:	f002 fb23 	bl	8003000 <HAL_FDCAN_Init>
 80009ba:	4603      	mov	r3, r0
 80009bc:	2b00      	cmp	r3, #0
 80009be:	d001      	beq.n	80009c4 <MX_FDCAN1_Init+0x80>

  /* GPIO Ports Clock Enable */
 80009c0:	f000 f8b8 	bl	8000b34 <Error_Handler>
  __HAL_RCC_GPIOA_CLK_ENABLE();
  __HAL_RCC_GPIOB_CLK_ENABLE();

 80009c4:	4b12      	ldr	r3, [pc, #72]	@ (8000a10 <MX_FDCAN1_Init+0xcc>)
 80009c6:	f240 3201 	movw	r2, #769	@ 0x301
 80009ca:	601a      	str	r2, [r3, #0]
  /*Configure GPIO pin Output Level */
 80009cc:	4b10      	ldr	r3, [pc, #64]	@ (8000a10 <MX_FDCAN1_Init+0xcc>)
 80009ce:	2200      	movs	r2, #0
 80009d0:	605a      	str	r2, [r3, #4]
  HAL_GPIO_WritePin(GPIOA, GPIO_PIN_4|GPIO_PIN_5|GPIO_PIN_6, GPIO_PIN_RESET);
 80009d2:	4b0f      	ldr	r3, [pc, #60]	@ (8000a10 <MX_FDCAN1_Init+0xcc>)
 80009d4:	2200      	movs	r2, #0
 80009d6:	609a      	str	r2, [r3, #8]

 80009d8:	4b0d      	ldr	r3, [pc, #52]	@ (8000a10 <MX_FDCAN1_Init+0xcc>)
 80009da:	2208      	movs	r2, #8
 80009dc:	60da      	str	r2, [r3, #12]
  /*Configure GPIO pin Output Level */
 80009de:	4b0c      	ldr	r3, [pc, #48]	@ (8000a10 <MX_FDCAN1_Init+0xcc>)
 80009e0:	2200      	movs	r2, #0
 80009e2:	611a      	str	r2, [r3, #16]
  HAL_GPIO_WritePin(GPIOB, GPIO_PIN_0|GPIO_PIN_3, GPIO_PIN_RESET);
 80009e4:	4b0a      	ldr	r3, [pc, #40]	@ (8000a10 <MX_FDCAN1_Init+0xcc>)
 80009e6:	2200      	movs	r2, #0
 80009e8:	615a      	str	r2, [r3, #20]

 80009ea:	4b09      	ldr	r3, [pc, #36]	@ (8000a10 <MX_FDCAN1_Init+0xcc>)
 80009ec:	2200      	movs	r2, #0
 80009ee:	619a      	str	r2, [r3, #24]
  /*Configure GPIO pins : PA4 PA5 PA6 */
 80009f0:	4b07      	ldr	r3, [pc, #28]	@ (8000a10 <MX_FDCAN1_Init+0xcc>)
 80009f2:	2200      	movs	r2, #0
 80009f4:	61da      	str	r2, [r3, #28]
  GPIO_InitStruct.Pin = GPIO_PIN_4|GPIO_PIN_5|GPIO_PIN_6;
 80009f6:	4b06      	ldr	r3, [pc, #24]	@ (8000a10 <MX_FDCAN1_Init+0xcc>)
 80009f8:	2200      	movs	r2, #0
 80009fa:	621a      	str	r2, [r3, #32]
  GPIO_InitStruct.Mode = GPIO_MODE_OUTPUT_PP;
  GPIO_InitStruct.Pull = GPIO_NOPULL;
 80009fc:	4b05      	ldr	r3, [pc, #20]	@ (8000a14 <MX_FDCAN1_Init+0xd0>)
 80009fe:	f04f 4280 	mov.w	r2, #1073741824	@ 0x40000000
 8000a02:	605a      	str	r2, [r3, #4]
  GPIO_InitStruct.Speed = GPIO_SPEED_FREQ_LOW;
  HAL_GPIO_Init(GPIOA, &GPIO_InitStruct);

 8000a04:	bf00      	nop
 8000a06:	bd80      	pop	{r7, pc}
 8000a08:	2000010c 	.word	0x2000010c
 8000a0c:	40006400 	.word	0x40006400
 8000a10:	2000029c 	.word	0x2000029c
 8000a14:	200002c0 	.word	0x200002c0

08000a18 <MX_DMA_Init>:
  /*Configure GPIO pins : PB0 PB3 */
  GPIO_InitStruct.Pin = GPIO_PIN_0|GPIO_PIN_3;
  GPIO_InitStruct.Mode = GPIO_MODE_OUTPUT_PP;
  GPIO_InitStruct.Pull = GPIO_NOPULL;
  GPIO_InitStruct.Speed = GPIO_SPEED_FREQ_LOW;
  HAL_GPIO_Init(GPIOB, &GPIO_InitStruct);
 8000a18:	b580      	push	{r7, lr}
 8000a1a:	b082      	sub	sp, #8
 8000a1c:	af00      	add	r7, sp, #0

  /*Configure GPIO pin : PA8 */
  GPIO_InitStruct.Pin = GPIO_PIN_8;
 8000a1e:	4b12      	ldr	r3, [pc, #72]	@ (8000a68 <MX_DMA_Init+0x50>)
 8000a20:	6c9b      	ldr	r3, [r3, #72]	@ 0x48
 8000a22:	4a11      	ldr	r2, [pc, #68]	@ (8000a68 <MX_DMA_Init+0x50>)
 8000a24:	f043 0304 	orr.w	r3, r3, #4
 8000a28:	6493      	str	r3, [r2, #72]	@ 0x48
 8000a2a:	4b0f      	ldr	r3, [pc, #60]	@ (8000a68 <MX_DMA_Init+0x50>)
 8000a2c:	6c9b      	ldr	r3, [r3, #72]	@ 0x48
 8000a2e:	f003 0304 	and.w	r3, r3, #4
 8000a32:	607b      	str	r3, [r7, #4]
 8000a34:	687b      	ldr	r3, [r7, #4]
  GPIO_InitStruct.Mode = GPIO_MODE_INPUT;
 8000a36:	4b0c      	ldr	r3, [pc, #48]	@ (8000a68 <MX_DMA_Init+0x50>)
 8000a38:	6c9b      	ldr	r3, [r3, #72]	@ 0x48
 8000a3a:	4a0b      	ldr	r2, [pc, #44]	@ (8000a68 <MX_DMA_Init+0x50>)
 8000a3c:	f043 0301 	orr.w	r3, r3, #1
 8000a40:	6493      	str	r3, [r2, #72]	@ 0x48
 8000a42:	4b09      	ldr	r3, [pc, #36]	@ (8000a68 <MX_DMA_Init+0x50>)
 8000a44:	6c9b      	ldr	r3, [r3, #72]	@ 0x48
 8000a46:	f003 0301 	and.w	r3, r3, #1
 8000a4a:	603b      	str	r3, [r7, #0]
 8000a4c:	683b      	ldr	r3, [r7, #0]
  GPIO_InitStruct.Pull = GPIO_PULLDOWN;
  HAL_GPIO_Init(GPIOA, &GPIO_InitStruct);

  /* USER CODE BEGIN MX_GPIO_Init_2 */
 8000a4e:	2200      	movs	r2, #0
 8000a50:	2100      	movs	r1, #0
 8000a52:	200b      	movs	r0, #11
 8000a54:	f002 f82d 	bl	8002ab2 <HAL_NVIC_SetPriority>

 8000a58:	200b      	movs	r0, #11
 8000a5a:	f002 f844 	bl	8002ae6 <HAL_NVIC_EnableIRQ>
  /* USER CODE END MX_GPIO_Init_2 */
}
 8000a5e:	bf00      	nop
 8000a60:	3708      	adds	r7, #8
 8000a62:	46bd      	mov	sp, r7
 8000a64:	bd80      	pop	{r7, pc}
 8000a66:	bf00      	nop
 8000a68:	40021000 	.word	0x40021000

08000a6c <MX_GPIO_Init>:

/* USER CODE END 4 */

/* USER CODE BEGIN Header */
/**
  ******************************************************************************
 8000a6c:	b580      	push	{r7, lr}
 8000a6e:	b088      	sub	sp, #32
 8000a70:	af00      	add	r7, sp, #0
  * @file           : main.c
 8000a72:	f107 030c 	add.w	r3, r7, #12
 8000a76:	2200      	movs	r2, #0
 8000a78:	601a      	str	r2, [r3, #0]
 8000a7a:	605a      	str	r2, [r3, #4]
 8000a7c:	609a      	str	r2, [r3, #8]
 8000a7e:	60da      	str	r2, [r3, #12]
 8000a80:	611a      	str	r2, [r3, #16]
  * @brief          : Main program body
  ******************************************************************************
  * @attention
  *
  * Copyright (c) 2025 STMicroelectronics.
  * All rights reserved.
 8000a82:	4b2a      	ldr	r3, [pc, #168]	@ (8000b2c <MX_GPIO_Init+0xc0>)
 8000a84:	6cdb      	ldr	r3, [r3, #76]	@ 0x4c
 8000a86:	4a29      	ldr	r2, [pc, #164]	@ (8000b2c <MX_GPIO_Init+0xc0>)
 8000a88:	f043 0301 	orr.w	r3, r3, #1
 8000a8c:	64d3      	str	r3, [r2, #76]	@ 0x4c
 8000a8e:	4b27      	ldr	r3, [pc, #156]	@ (8000b2c <MX_GPIO_Init+0xc0>)
 8000a90:	6cdb      	ldr	r3, [r3, #76]	@ 0x4c
 8000a92:	f003 0301 	and.w	r3, r3, #1
 8000a96:	60bb      	str	r3, [r7, #8]
 8000a98:	68bb      	ldr	r3, [r7, #8]
  *
 8000a9a:	4b24      	ldr	r3, [pc, #144]	@ (8000b2c <MX_GPIO_Init+0xc0>)
 8000a9c:	6cdb      	ldr	r3, [r3, #76]	@ 0x4c
 8000a9e:	4a23      	ldr	r2, [pc, #140]	@ (8000b2c <MX_GPIO_Init+0xc0>)
 8000aa0:	f043 0302 	orr.w	r3, r3, #2
 8000aa4:	64d3      	str	r3, [r2, #76]	@ 0x4c
 8000aa6:	4b21      	ldr	r3, [pc, #132]	@ (8000b2c <MX_GPIO_Init+0xc0>)
 8000aa8:	6cdb      	ldr	r3, [r3, #76]	@ 0x4c
 8000aaa:	f003 0302 	and.w	r3, r3, #2
 8000aae:	607b      	str	r3, [r7, #4]
 8000ab0:	687b      	ldr	r3, [r7, #4]
  * This software is licensed under terms that can be found in the LICENSE file
  * in the root directory of this software component.
  * If no LICENSE file comes with this software, it is provided AS-IS.
 8000ab2:	2200      	movs	r2, #0
 8000ab4:	2170      	movs	r1, #112	@ 0x70
 8000ab6:	f04f 4090 	mov.w	r0, #1207959552	@ 0x48000000
 8000aba:	f003 f985 	bl	8003dc8 <HAL_GPIO_WritePin>
  *
  ******************************************************************************
  */
 8000abe:	2200      	movs	r2, #0
 8000ac0:	f240 1109 	movw	r1, #265	@ 0x109
 8000ac4:	481a      	ldr	r0, [pc, #104]	@ (8000b30 <MX_GPIO_Init+0xc4>)
 8000ac6:	f003 f97f 	bl	8003dc8 <HAL_GPIO_WritePin>
/* USER CODE END Header */

/**
 8000aca:	2370      	movs	r3, #112	@ 0x70
 8000acc:	60fb      	str	r3, [r7, #12]
  * @}
 8000ace:	2301      	movs	r3, #1
 8000ad0:	613b      	str	r3, [r7, #16]
  */
 8000ad2:	2300      	movs	r3, #0
 8000ad4:	617b      	str	r3, [r7, #20]

 8000ad6:	2300      	movs	r3, #0
 8000ad8:	61bb      	str	r3, [r7, #24]
/**
 8000ada:	f107 030c 	add.w	r3, r7, #12
 8000ade:	4619      	mov	r1, r3
 8000ae0:	f04f 4090 	mov.w	r0, #1207959552	@ 0x48000000
 8000ae4:	f002 ffee 	bl	8003ac4 <HAL_GPIO_Init>
  * @}
  */

 8000ae8:	f240 1309 	movw	r3, #265	@ 0x109
 8000aec:	60fb      	str	r3, [r7, #12]
/**
 8000aee:	2301      	movs	r3, #1
 8000af0:	613b      	str	r3, [r7, #16]
  * @brief  This function is executed in case of error occurrence.
 8000af2:	2300      	movs	r3, #0
 8000af4:	617b      	str	r3, [r7, #20]
  * @retval None
 8000af6:	2300      	movs	r3, #0
 8000af8:	61bb      	str	r3, [r7, #24]
  */
 8000afa:	f107 030c 	add.w	r3, r7, #12
 8000afe:	4619      	mov	r1, r3
 8000b00:	480b      	ldr	r0, [pc, #44]	@ (8000b30 <MX_GPIO_Init+0xc4>)
 8000b02:	f002 ffdf 	bl	8003ac4 <HAL_GPIO_Init>
void Error_Handler(void)
{
  /* USER CODE BEGIN Error_Handler_Debug */
 8000b06:	f44f 7380 	mov.w	r3, #256	@ 0x100
 8000b0a:	60fb      	str	r3, [r7, #12]
  /* User can add his own implementation to report the HAL error return state */
 8000b0c:	2300      	movs	r3, #0
 8000b0e:	613b      	str	r3, [r7, #16]
  __disable_irq();
 8000b10:	2302      	movs	r3, #2
 8000b12:	617b      	str	r3, [r7, #20]
  while (1)
 8000b14:	f107 030c 	add.w	r3, r7, #12
 8000b18:	4619      	mov	r1, r3
 8000b1a:	f04f 4090 	mov.w	r0, #1207959552	@ 0x48000000
 8000b1e:	f002 ffd1 	bl	8003ac4 <HAL_GPIO_Init>
  {
  }
  /* USER CODE END Error_Handler_Debug */
}
#ifdef USE_FULL_ASSERT
 8000b22:	bf00      	nop
 8000b24:	3720      	adds	r7, #32
 8000b26:	46bd      	mov	sp, r7
 8000b28:	bd80      	pop	{r7, pc}
 8000b2a:	bf00      	nop
 8000b2c:	40021000 	.word	0x40021000
 8000b30:	48000400 	.word	0x48000400

08000b34 <Error_Handler>:
 8000b34:	b480      	push	{r7}
 8000b36:	af00      	add	r7, sp, #0
  \details Disables IRQ interrupts by setting the I-bit in the CPSR.
           Can only be executed in Privileged modes.
 */
__STATIC_FORCEINLINE void __disable_irq(void)
{
  __ASM volatile ("cpsid i" : : : "memory");
 8000b38:	b672      	cpsid	i
}
 8000b3a:	bf00      	nop
 8000b3c:	bf00      	nop
 8000b3e:	e7fd      	b.n	8000b3c <Error_Handler+0x8>

08000b40 <HAL_MspInit>:
/* USER CODE END 0 */
/**
  * Initializes the Global MSP.
  */
void HAL_MspInit(void)
{
 8000b40:	b580      	push	{r7, lr}
 8000b42:	b082      	sub	sp, #8
 8000b44:	af00      	add	r7, sp, #0

  /* USER CODE BEGIN MspInit 0 */

  /* USER CODE END MspInit 0 */

  __HAL_RCC_SYSCFG_CLK_ENABLE();
 8000b46:	4b0f      	ldr	r3, [pc, #60]	@ (8000b84 <HAL_MspInit+0x44>)
 8000b48:	6e1b      	ldr	r3, [r3, #96]	@ 0x60
 8000b4a:	4a0e      	ldr	r2, [pc, #56]	@ (8000b84 <HAL_MspInit+0x44>)
 8000b4c:	f043 0301 	orr.w	r3, r3, #1
 8000b50:	6613      	str	r3, [r2, #96]	@ 0x60
 8000b52:	4b0c      	ldr	r3, [pc, #48]	@ (8000b84 <HAL_MspInit+0x44>)
 8000b54:	6e1b      	ldr	r3, [r3, #96]	@ 0x60
 8000b56:	f003 0301 	and.w	r3, r3, #1
 8000b5a:	607b      	str	r3, [r7, #4]
 8000b5c:	687b      	ldr	r3, [r7, #4]
  __HAL_RCC_PWR_CLK_ENABLE();
 8000b5e:	4b09      	ldr	r3, [pc, #36]	@ (8000b84 <HAL_MspInit+0x44>)
 8000b60:	6d9b      	ldr	r3, [r3, #88]	@ 0x58
 8000b62:	4a08      	ldr	r2, [pc, #32]	@ (8000b84 <HAL_MspInit+0x44>)
 8000b64:	f043 5380 	orr.w	r3, r3, #268435456	@ 0x10000000
 8000b68:	6593      	str	r3, [r2, #88]	@ 0x58
 8000b6a:	4b06      	ldr	r3, [pc, #24]	@ (8000b84 <HAL_MspInit+0x44>)
 8000b6c:	6d9b      	ldr	r3, [r3, #88]	@ 0x58
 8000b6e:	f003 5380 	and.w	r3, r3, #268435456	@ 0x10000000
 8000b72:	603b      	str	r3, [r7, #0]
 8000b74:	683b      	ldr	r3, [r7, #0]

  /* System interrupt init*/

  /** Disable the internal Pull-Up in Dead Battery pins of UCPD peripheral
  */
  HAL_PWREx_DisableUCPDDeadBattery();
 8000b76:	f003 f9fd 	bl	8003f74 <HAL_PWREx_DisableUCPDDeadBattery>

  /* USER CODE BEGIN MspInit 1 */

  /* USER CODE END MspInit 1 */
}
 8000b7a:	bf00      	nop
 8000b7c:	3708      	adds	r7, #8
 8000b7e:	46bd      	mov	sp, r7
 8000b80:	bd80      	pop	{r7, pc}
 8000b82:	bf00      	nop
 8000b84:	40021000 	.word	0x40021000

08000b88 <HAL_ADC_MspInit>:
  * This function configures the hardware resources used in this example
  * @param hadc: ADC handle pointer
  * @retval None
  */
void HAL_ADC_MspInit(ADC_HandleTypeDef* hadc)
{
 8000b88:	b580      	push	{r7, lr}
 8000b8a:	b09a      	sub	sp, #104	@ 0x68
 8000b8c:	af00      	add	r7, sp, #0
 8000b8e:	6078      	str	r0, [r7, #4]
  GPIO_InitTypeDef GPIO_InitStruct = {0};
 8000b90:	f107 0354 	add.w	r3, r7, #84	@ 0x54
 8000b94:	2200      	movs	r2, #0
 8000b96:	601a      	str	r2, [r3, #0]
 8000b98:	605a      	str	r2, [r3, #4]
 8000b9a:	609a      	str	r2, [r3, #8]
 8000b9c:	60da      	str	r2, [r3, #12]
 8000b9e:	611a      	str	r2, [r3, #16]
  RCC_PeriphCLKInitTypeDef PeriphClkInit = {0};
 8000ba0:	f107 0310 	add.w	r3, r7, #16
 8000ba4:	2244      	movs	r2, #68	@ 0x44
 8000ba6:	2100      	movs	r1, #0
 8000ba8:	4618      	mov	r0, r3
 8000baa:	f004 fe56 	bl	800585a <memset>
  if(hadc->Instance==ADC2)
 8000bae:	687b      	ldr	r3, [r7, #4]
 8000bb0:	681b      	ldr	r3, [r3, #0]
 8000bb2:	4a38      	ldr	r2, [pc, #224]	@ (8000c94 <HAL_ADC_MspInit+0x10c>)
 8000bb4:	4293      	cmp	r3, r2
 8000bb6:	d168      	bne.n	8000c8a <HAL_ADC_MspInit+0x102>

    /* USER CODE END ADC2_MspInit 0 */

  /** Initializes the peripherals clocks
  */
    PeriphClkInit.PeriphClockSelection = RCC_PERIPHCLK_ADC12;
 8000bb8:	f44f 4300 	mov.w	r3, #32768	@ 0x8000
 8000bbc:	613b      	str	r3, [r7, #16]
    PeriphClkInit.Adc12ClockSelection = RCC_ADC12CLKSOURCE_PLL;
 8000bbe:	f04f 5380 	mov.w	r3, #268435456	@ 0x10000000
 8000bc2:	64fb      	str	r3, [r7, #76]	@ 0x4c
    if (HAL_RCCEx_PeriphCLKConfig(&PeriphClkInit) != HAL_OK)
 8000bc4:	f107 0310 	add.w	r3, r7, #16
 8000bc8:	4618      	mov	r0, r3
 8000bca:	f003 ff11 	bl	80049f0 <HAL_RCCEx_PeriphCLKConfig>
 8000bce:	4603      	mov	r3, r0
 8000bd0:	2b00      	cmp	r3, #0
 8000bd2:	d001      	beq.n	8000bd8 <HAL_ADC_MspInit+0x50>
    {
      Error_Handler();
 8000bd4:	f7ff ffae 	bl	8000b34 <Error_Handler>
    }

    /* Peripheral clock enable */
    __HAL_RCC_ADC12_CLK_ENABLE();
 8000bd8:	4b2f      	ldr	r3, [pc, #188]	@ (8000c98 <HAL_ADC_MspInit+0x110>)
 8000bda:	6cdb      	ldr	r3, [r3, #76]	@ 0x4c
 8000bdc:	4a2e      	ldr	r2, [pc, #184]	@ (8000c98 <HAL_ADC_MspInit+0x110>)
 8000bde:	f443 5300 	orr.w	r3, r3, #8192	@ 0x2000
 8000be2:	64d3      	str	r3, [r2, #76]	@ 0x4c
 8000be4:	4b2c      	ldr	r3, [pc, #176]	@ (8000c98 <HAL_ADC_MspInit+0x110>)
 8000be6:	6cdb      	ldr	r3, [r3, #76]	@ 0x4c
 8000be8:	f403 5300 	and.w	r3, r3, #8192	@ 0x2000
 8000bec:	60fb      	str	r3, [r7, #12]
 8000bee:	68fb      	ldr	r3, [r7, #12]

    __HAL_RCC_GPIOA_CLK_ENABLE();
 8000bf0:	4b29      	ldr	r3, [pc, #164]	@ (8000c98 <HAL_ADC_MspInit+0x110>)
 8000bf2:	6cdb      	ldr	r3, [r3, #76]	@ 0x4c
 8000bf4:	4a28      	ldr	r2, [pc, #160]	@ (8000c98 <HAL_ADC_MspInit+0x110>)
 8000bf6:	f043 0301 	orr.w	r3, r3, #1
 8000bfa:	64d3      	str	r3, [r2, #76]	@ 0x4c
 8000bfc:	4b26      	ldr	r3, [pc, #152]	@ (8000c98 <HAL_ADC_MspInit+0x110>)
 8000bfe:	6cdb      	ldr	r3, [r3, #76]	@ 0x4c
 8000c00:	f003 0301 	and.w	r3, r3, #1
 8000c04:	60bb      	str	r3, [r7, #8]
 8000c06:	68bb      	ldr	r3, [r7, #8]
    /**ADC2 GPIO Configuration
    PA0     ------> ADC2_IN1
    PA7     ------> ADC2_IN4
    */
    GPIO_InitStruct.Pin = GPIO_PIN_0|GPIO_PIN_7;
 8000c08:	2381      	movs	r3, #129	@ 0x81
 8000c0a:	657b      	str	r3, [r7, #84]	@ 0x54
    GPIO_InitStruct.Mode = GPIO_MODE_ANALOG;
 8000c0c:	2303      	movs	r3, #3
 8000c0e:	65bb      	str	r3, [r7, #88]	@ 0x58
    GPIO_InitStruct.Pull = GPIO_NOPULL;
 8000c10:	2300      	movs	r3, #0
 8000c12:	65fb      	str	r3, [r7, #92]	@ 0x5c
    HAL_GPIO_Init(GPIOA, &GPIO_InitStruct);
 8000c14:	f107 0354 	add.w	r3, r7, #84	@ 0x54
 8000c18:	4619      	mov	r1, r3
 8000c1a:	f04f 4090 	mov.w	r0, #1207959552	@ 0x48000000
 8000c1e:	f002 ff51 	bl	8003ac4 <HAL_GPIO_Init>

    /* ADC2 DMA Init */
    /* ADC2 Init */
    hdma_adc2.Instance = DMA1_Channel1;
 8000c22:	4b1e      	ldr	r3, [pc, #120]	@ (8000c9c <HAL_ADC_MspInit+0x114>)
 8000c24:	4a1e      	ldr	r2, [pc, #120]	@ (8000ca0 <HAL_ADC_MspInit+0x118>)
 8000c26:	601a      	str	r2, [r3, #0]
    hdma_adc2.Init.Request = DMA_REQUEST_ADC2;
 8000c28:	4b1c      	ldr	r3, [pc, #112]	@ (8000c9c <HAL_ADC_MspInit+0x114>)
 8000c2a:	2224      	movs	r2, #36	@ 0x24
 8000c2c:	605a      	str	r2, [r3, #4]
    hdma_adc2.Init.Direction = DMA_PERIPH_TO_MEMORY;
 8000c2e:	4b1b      	ldr	r3, [pc, #108]	@ (8000c9c <HAL_ADC_MspInit+0x114>)
 8000c30:	2200      	movs	r2, #0
 8000c32:	609a      	str	r2, [r3, #8]
    hdma_adc2.Init.PeriphInc = DMA_PINC_DISABLE;
 8000c34:	4b19      	ldr	r3, [pc, #100]	@ (8000c9c <HAL_ADC_MspInit+0x114>)
 8000c36:	2200      	movs	r2, #0
 8000c38:	60da      	str	r2, [r3, #12]
    hdma_adc2.Init.MemInc = DMA_MINC_ENABLE;
 8000c3a:	4b18      	ldr	r3, [pc, #96]	@ (8000c9c <HAL_ADC_MspInit+0x114>)
 8000c3c:	2280      	movs	r2, #128	@ 0x80
 8000c3e:	611a      	str	r2, [r3, #16]
    hdma_adc2.Init.PeriphDataAlignment = DMA_PDATAALIGN_HALFWORD;
 8000c40:	4b16      	ldr	r3, [pc, #88]	@ (8000c9c <HAL_ADC_MspInit+0x114>)
 8000c42:	f44f 7280 	mov.w	r2, #256	@ 0x100
 8000c46:	615a      	str	r2, [r3, #20]
    hdma_adc2.Init.MemDataAlignment = DMA_MDATAALIGN_HALFWORD;
 8000c48:	4b14      	ldr	r3, [pc, #80]	@ (8000c9c <HAL_ADC_MspInit+0x114>)
 8000c4a:	f44f 6280 	mov.w	r2, #1024	@ 0x400
 8000c4e:	619a      	str	r2, [r3, #24]
    hdma_adc2.Init.Mode = DMA_CIRCULAR;
 8000c50:	4b12      	ldr	r3, [pc, #72]	@ (8000c9c <HAL_ADC_MspInit+0x114>)
 8000c52:	2220      	movs	r2, #32
 8000c54:	61da      	str	r2, [r3, #28]
    hdma_adc2.Init.Priority = DMA_PRIORITY_HIGH;
 8000c56:	4b11      	ldr	r3, [pc, #68]	@ (8000c9c <HAL_ADC_MspInit+0x114>)
 8000c58:	f44f 5200 	mov.w	r2, #8192	@ 0x2000
 8000c5c:	621a      	str	r2, [r3, #32]
    if (HAL_DMA_Init(&hdma_adc2) != HAL_OK)
 8000c5e:	480f      	ldr	r0, [pc, #60]	@ (8000c9c <HAL_ADC_MspInit+0x114>)
 8000c60:	f001 ff5c 	bl	8002b1c <HAL_DMA_Init>
 8000c64:	4603      	mov	r3, r0
 8000c66:	2b00      	cmp	r3, #0
 8000c68:	d001      	beq.n	8000c6e <HAL_ADC_MspInit+0xe6>
    {
      Error_Handler();
 8000c6a:	f7ff ff63 	bl	8000b34 <Error_Handler>
    }

    __HAL_LINKDMA(hadc,DMA_Handle,hdma_adc2);
 8000c6e:	687b      	ldr	r3, [r7, #4]
 8000c70:	4a0a      	ldr	r2, [pc, #40]	@ (8000c9c <HAL_ADC_MspInit+0x114>)
 8000c72:	655a      	str	r2, [r3, #84]	@ 0x54
 8000c74:	4a09      	ldr	r2, [pc, #36]	@ (8000c9c <HAL_ADC_MspInit+0x114>)
 8000c76:	687b      	ldr	r3, [r7, #4]
 8000c78:	6293      	str	r3, [r2, #40]	@ 0x28

    /* ADC2 interrupt Init */
    HAL_NVIC_SetPriority(ADC1_2_IRQn, 0, 0);
 8000c7a:	2200      	movs	r2, #0
 8000c7c:	2100      	movs	r1, #0
 8000c7e:	2012      	movs	r0, #18
 8000c80:	f001 ff17 	bl	8002ab2 <HAL_NVIC_SetPriority>
    HAL_NVIC_EnableIRQ(ADC1_2_IRQn);
 8000c84:	2012      	movs	r0, #18
 8000c86:	f001 ff2e 	bl	8002ae6 <HAL_NVIC_EnableIRQ>

    /* USER CODE END ADC2_MspInit 1 */

  }

}
 8000c8a:	bf00      	nop
 8000c8c:	3768      	adds	r7, #104	@ 0x68
 8000c8e:	46bd      	mov	sp, r7
 8000c90:	bd80      	pop	{r7, pc}
 8000c92:	bf00      	nop
 8000c94:	50000100 	.word	0x50000100
 8000c98:	40021000 	.word	0x40021000
 8000c9c:	200000ac 	.word	0x200000ac
 8000ca0:	40020008 	.word	0x40020008

08000ca4 <HAL_FDCAN_MspInit>:
  * This function configures the hardware resources used in this example
  * @param hfdcan: FDCAN handle pointer
  * @retval None
  */
void HAL_FDCAN_MspInit(FDCAN_HandleTypeDef* hfdcan)
{
 8000ca4:	b580      	push	{r7, lr}
 8000ca6:	b09a      	sub	sp, #104	@ 0x68
 8000ca8:	af00      	add	r7, sp, #0
 8000caa:	6078      	str	r0, [r7, #4]
  GPIO_InitTypeDef GPIO_InitStruct = {0};
 8000cac:	f107 0354 	add.w	r3, r7, #84	@ 0x54
 8000cb0:	2200      	movs	r2, #0
 8000cb2:	601a      	str	r2, [r3, #0]
 8000cb4:	605a      	str	r2, [r3, #4]
 8000cb6:	609a      	str	r2, [r3, #8]
 8000cb8:	60da      	str	r2, [r3, #12]
 8000cba:	611a      	str	r2, [r3, #16]
  RCC_PeriphCLKInitTypeDef PeriphClkInit = {0};
 8000cbc:	f107 0310 	add.w	r3, r7, #16
 8000cc0:	2244      	movs	r2, #68	@ 0x44
 8000cc2:	2100      	movs	r1, #0
 8000cc4:	4618      	mov	r0, r3
 8000cc6:	f004 fdc8 	bl	800585a <memset>
  if(hfdcan->Instance==FDCAN1)
 8000cca:	687b      	ldr	r3, [r7, #4]
 8000ccc:	681b      	ldr	r3, [r3, #0]
 8000cce:	4a24      	ldr	r2, [pc, #144]	@ (8000d60 <HAL_FDCAN_MspInit+0xbc>)
 8000cd0:	4293      	cmp	r3, r2
 8000cd2:	d141      	bne.n	8000d58 <HAL_FDCAN_MspInit+0xb4>

    /* USER CODE END FDCAN1_MspInit 0 */

  /** Initializes the peripherals clocks
  */
    PeriphClkInit.PeriphClockSelection = RCC_PERIPHCLK_FDCAN;
 8000cd4:	f44f 5380 	mov.w	r3, #4096	@ 0x1000
 8000cd8:	613b      	str	r3, [r7, #16]
    PeriphClkInit.FdcanClockSelection = RCC_FDCANCLKSOURCE_PCLK1;
 8000cda:	f04f 7300 	mov.w	r3, #33554432	@ 0x2000000
 8000cde:	643b      	str	r3, [r7, #64]	@ 0x40
    if (HAL_RCCEx_PeriphCLKConfig(&PeriphClkInit) != HAL_OK)
 8000ce0:	f107 0310 	add.w	r3, r7, #16
 8000ce4:	4618      	mov	r0, r3
 8000ce6:	f003 fe83 	bl	80049f0 <HAL_RCCEx_PeriphCLKConfig>
 8000cea:	4603      	mov	r3, r0
 8000cec:	2b00      	cmp	r3, #0
 8000cee:	d001      	beq.n	8000cf4 <HAL_FDCAN_MspInit+0x50>
    {
      Error_Handler();
 8000cf0:	f7ff ff20 	bl	8000b34 <Error_Handler>
    }

    /* Peripheral clock enable */
    __HAL_RCC_FDCAN_CLK_ENABLE();
 8000cf4:	4b1b      	ldr	r3, [pc, #108]	@ (8000d64 <HAL_FDCAN_MspInit+0xc0>)
 8000cf6:	6d9b      	ldr	r3, [r3, #88]	@ 0x58
 8000cf8:	4a1a      	ldr	r2, [pc, #104]	@ (8000d64 <HAL_FDCAN_MspInit+0xc0>)
 8000cfa:	f043 7300 	orr.w	r3, r3, #33554432	@ 0x2000000
 8000cfe:	6593      	str	r3, [r2, #88]	@ 0x58
 8000d00:	4b18      	ldr	r3, [pc, #96]	@ (8000d64 <HAL_FDCAN_MspInit+0xc0>)
 8000d02:	6d9b      	ldr	r3, [r3, #88]	@ 0x58
 8000d04:	f003 7300 	and.w	r3, r3, #33554432	@ 0x2000000
 8000d08:	60fb      	str	r3, [r7, #12]
 8000d0a:	68fb      	ldr	r3, [r7, #12]

    __HAL_RCC_GPIOA_CLK_ENABLE();
 8000d0c:	4b15      	ldr	r3, [pc, #84]	@ (8000d64 <HAL_FDCAN_MspInit+0xc0>)
 8000d0e:	6cdb      	ldr	r3, [r3, #76]	@ 0x4c
 8000d10:	4a14      	ldr	r2, [pc, #80]	@ (8000d64 <HAL_FDCAN_MspInit+0xc0>)
 8000d12:	f043 0301 	orr.w	r3, r3, #1
 8000d16:	64d3      	str	r3, [r2, #76]	@ 0x4c
 8000d18:	4b12      	ldr	r3, [pc, #72]	@ (8000d64 <HAL_FDCAN_MspInit+0xc0>)
 8000d1a:	6cdb      	ldr	r3, [r3, #76]	@ 0x4c
 8000d1c:	f003 0301 	and.w	r3, r3, #1
 8000d20:	60bb      	str	r3, [r7, #8]
 8000d22:	68bb      	ldr	r3, [r7, #8]
    /**FDCAN1 GPIO Configuration
    PA11     ------> FDCAN1_RX
    PA12     ------> FDCAN1_TX
    */
    GPIO_InitStruct.Pin = GPIO_PIN_11|GPIO_PIN_12;
 8000d24:	f44f 53c0 	mov.w	r3, #6144	@ 0x1800
 8000d28:	657b      	str	r3, [r7, #84]	@ 0x54
    GPIO_InitStruct.Mode = GPIO_MODE_AF_PP;
 8000d2a:	2302      	movs	r3, #2
 8000d2c:	65bb      	str	r3, [r7, #88]	@ 0x58
    GPIO_InitStruct.Pull = GPIO_NOPULL;
 8000d2e:	2300      	movs	r3, #0
 8000d30:	65fb      	str	r3, [r7, #92]	@ 0x5c
    GPIO_InitStruct.Speed = GPIO_SPEED_FREQ_LOW;
 8000d32:	2300      	movs	r3, #0
 8000d34:	663b      	str	r3, [r7, #96]	@ 0x60
    GPIO_InitStruct.Alternate = GPIO_AF9_FDCAN1;
 8000d36:	2309      	movs	r3, #9
 8000d38:	667b      	str	r3, [r7, #100]	@ 0x64
    HAL_GPIO_Init(GPIOA, &GPIO_InitStruct);
 8000d3a:	f107 0354 	add.w	r3, r7, #84	@ 0x54
 8000d3e:	4619      	mov	r1, r3
 8000d40:	f04f 4090 	mov.w	r0, #1207959552	@ 0x48000000
 8000d44:	f002 febe 	bl	8003ac4 <HAL_GPIO_Init>

    /* FDCAN1 interrupt Init */
    HAL_NVIC_SetPriority(FDCAN1_IT0_IRQn, 0, 0);
 8000d48:	2200      	movs	r2, #0
 8000d4a:	2100      	movs	r1, #0
 8000d4c:	2015      	movs	r0, #21
 8000d4e:	f001 feb0 	bl	8002ab2 <HAL_NVIC_SetPriority>
    HAL_NVIC_EnableIRQ(FDCAN1_IT0_IRQn);
 8000d52:	2015      	movs	r0, #21
 8000d54:	f001 fec7 	bl	8002ae6 <HAL_NVIC_EnableIRQ>

    /* USER CODE END FDCAN1_MspInit 1 */

  }

}
 8000d58:	bf00      	nop
 8000d5a:	3768      	adds	r7, #104	@ 0x68
 8000d5c:	46bd      	mov	sp, r7
 8000d5e:	bd80      	pop	{r7, pc}
 8000d60:	40006400 	.word	0x40006400
 8000d64:	40021000 	.word	0x40021000

08000d68 <NMI_Handler>:
/******************************************************************************/
/**
  * @brief This function handles Non maskable interrupt.
  */
void NMI_Handler(void)
{
 8000d68:	b480      	push	{r7}
 8000d6a:	af00      	add	r7, sp, #0
  /* USER CODE BEGIN NonMaskableInt_IRQn 0 */

  /* USER CODE END NonMaskableInt_IRQn 0 */
  /* USER CODE BEGIN NonMaskableInt_IRQn 1 */
   while (1)
 8000d6c:	bf00      	nop
 8000d6e:	e7fd      	b.n	8000d6c <NMI_Handler+0x4>

08000d70 <HardFault_Handler>:

/**
  * @brief This function handles Hard fault interrupt.
  */
void HardFault_Handler(void)
{
 8000d70:	b480      	push	{r7}
 8000d72:	af00      	add	r7, sp, #0
  /* USER CODE BEGIN HardFault_IRQn 0 */

  /* USER CODE END HardFault_IRQn 0 */
  while (1)
 8000d74:	bf00      	nop
 8000d76:	e7fd      	b.n	8000d74 <HardFault_Handler+0x4>

08000d78 <MemManage_Handler>:

/**
  * @brief This function handles Memory management fault.
  */
void MemManage_Handler(void)
{
 8000d78:	b480      	push	{r7}
 8000d7a:	af00      	add	r7, sp, #0
  /* USER CODE BEGIN MemoryManagement_IRQn 0 */

  /* USER CODE END MemoryManagement_IRQn 0 */
  while (1)
 8000d7c:	bf00      	nop
 8000d7e:	e7fd      	b.n	8000d7c <MemManage_Handler+0x4>

08000d80 <BusFault_Handler>:

/**
  * @brief This function handles Prefetch fault, memory access fault.
  */
void BusFault_Handler(void)
{
 8000d80:	b480      	push	{r7}
 8000d82:	af00      	add	r7, sp, #0
  /* USER CODE BEGIN BusFault_IRQn 0 */

  /* USER CODE END BusFault_IRQn 0 */
  while (1)
 8000d84:	bf00      	nop
 8000d86:	e7fd      	b.n	8000d84 <BusFault_Handler+0x4>

08000d88 <UsageFault_Handler>:

/**
  * @brief This function handles Undefined instruction or illegal state.
  */
void UsageFault_Handler(void)
{
 8000d88:	b480      	push	{r7}
 8000d8a:	af00      	add	r7, sp, #0
  /* USER CODE BEGIN UsageFault_IRQn 0 */

  /* USER CODE END UsageFault_IRQn 0 */
  while (1)
 8000d8c:	bf00      	nop
 8000d8e:	e7fd      	b.n	8000d8c <UsageFault_Handler+0x4>

08000d90 <SVC_Handler>:

/**
  * @brief This function handles System service call via SWI instruction.
  */
void SVC_Handler(void)
{
 8000d90:	b480      	push	{r7}
 8000d92:	af00      	add	r7, sp, #0

  /* USER CODE END SVCall_IRQn 0 */
  /* USER CODE BEGIN SVCall_IRQn 1 */

  /* USER CODE END SVCall_IRQn 1 */
}
 8000d94:	bf00      	nop
 8000d96:	46bd      	mov	sp, r7
 8000d98:	f85d 7b04 	ldr.w	r7, [sp], #4
 8000d9c:	4770      	bx	lr

08000d9e <DebugMon_Handler>:

/**
  * @brief This function handles Debug monitor.
  */
void DebugMon_Handler(void)
{
 8000d9e:	b480      	push	{r7}
 8000da0:	af00      	add	r7, sp, #0

  /* USER CODE END DebugMonitor_IRQn 0 */
  /* USER CODE BEGIN DebugMonitor_IRQn 1 */

  /* USER CODE END DebugMonitor_IRQn 1 */
}
 8000da2:	bf00      	nop
 8000da4:	46bd      	mov	sp, r7
 8000da6:	f85d 7b04 	ldr.w	r7, [sp], #4
 8000daa:	4770      	bx	lr

08000dac <PendSV_Handler>:

/**
  * @brief This function handles Pendable request for system service.
  */
void PendSV_Handler(void)
{
 8000dac:	b480      	push	{r7}
 8000dae:	af00      	add	r7, sp, #0

  /* USER CODE END PendSV_IRQn 0 */
  /* USER CODE BEGIN PendSV_IRQn 1 */

  /* USER CODE END PendSV_IRQn 1 */
}
 8000db0:	bf00      	nop
 8000db2:	46bd      	mov	sp, r7
 8000db4:	f85d 7b04 	ldr.w	r7, [sp], #4
 8000db8:	4770      	bx	lr

08000dba <SysTick_Handler>:

/**
  * @brief This function handles System tick timer.
  */
void SysTick_Handler(void)
{
 8000dba:	b580      	push	{r7, lr}
 8000dbc:	af00      	add	r7, sp, #0
  /* USER CODE BEGIN SysTick_IRQn 0 */

  /* USER CODE END SysTick_IRQn 0 */
  HAL_IncTick();
 8000dbe:	f000 f993 	bl	80010e8 <HAL_IncTick>
  /* USER CODE BEGIN SysTick_IRQn 1 */

  /* USER CODE END SysTick_IRQn 1 */
}
 8000dc2:	bf00      	nop
 8000dc4:	bd80      	pop	{r7, pc}
	...

08000dc8 <DMA1_Channel1_IRQHandler>:

/**
  * @brief This function handles DMA1 channel1 global interrupt.
  */
void DMA1_Channel1_IRQHandler(void)
{
 8000dc8:	b580      	push	{r7, lr}
 8000dca:	af00      	add	r7, sp, #0
  /* USER CODE BEGIN DMA1_Channel1_IRQn 0 */

  /* USER CODE END DMA1_Channel1_IRQn 0 */
  HAL_DMA_IRQHandler(&hdma_adc2);
 8000dcc:	4802      	ldr	r0, [pc, #8]	@ (8000dd8 <DMA1_Channel1_IRQHandler+0x10>)
 8000dce:	f001 ffc8 	bl	8002d62 <HAL_DMA_IRQHandler>
  /* USER CODE BEGIN DMA1_Channel1_IRQn 1 */

  /* USER CODE END DMA1_Channel1_IRQn 1 */
}
 8000dd2:	bf00      	nop
 8000dd4:	bd80      	pop	{r7, pc}
 8000dd6:	bf00      	nop
 8000dd8:	200000ac 	.word	0x200000ac

08000ddc <ADC1_2_IRQHandler>:

/**
  * @brief This function handles ADC1 and ADC2 global interrupt.
  */
void ADC1_2_IRQHandler(void)
{
 8000ddc:	b580      	push	{r7, lr}
 8000dde:	af00      	add	r7, sp, #0
  /* USER CODE BEGIN ADC1_2_IRQn 0 */

  /* USER CODE END ADC1_2_IRQn 0 */
  HAL_ADC_IRQHandler(&hadc2);
 8000de0:	4802      	ldr	r0, [pc, #8]	@ (8000dec <ADC1_2_IRQHandler+0x10>)
 8000de2:	f000 fe17 	bl	8001a14 <HAL_ADC_IRQHandler>
  /* USER CODE BEGIN ADC1_2_IRQn 1 */

  /* USER CODE END ADC1_2_IRQn 1 */
}
 8000de6:	bf00      	nop
 8000de8:	bd80      	pop	{r7, pc}
 8000dea:	bf00      	nop
 8000dec:	20000040 	.word	0x20000040

08000df0 <FDCAN1_IT0_IRQHandler>:

/**
  * @brief This function handles FDCAN1 interrupt 0.
  */
void FDCAN1_IT0_IRQHandler(void)
{
 8000df0:	b580      	push	{r7, lr}
 8000df2:	af00      	add	r7, sp, #0
  /* USER CODE BEGIN FDCAN1_IT0_IRQn 0 */

  /* USER CODE END FDCAN1_IT0_IRQn 0 */
  HAL_FDCAN_IRQHandler(&hfdcan1);
 8000df4:	4802      	ldr	r0, [pc, #8]	@ (8000e00 <FDCAN1_IT0_IRQHandler+0x10>)
 8000df6:	f002 fc73 	bl	80036e0 <HAL_FDCAN_IRQHandler>
  /* USER CODE BEGIN FDCAN1_IT0_IRQn 1 */

  /* USER CODE END FDCAN1_IT0_IRQn 1 */
}
 8000dfa:	bf00      	nop
 8000dfc:	bd80      	pop	{r7, pc}
 8000dfe:	bf00      	nop
 8000e00:	2000010c 	.word	0x2000010c

08000e04 <SystemInit>:
  * @param  None
  * @retval None
  */

void SystemInit(void)
{
 8000e04:	b480      	push	{r7}
 8000e06:	af00      	add	r7, sp, #0
  /* FPU settings ------------------------------------------------------------*/
  #if (__FPU_PRESENT == 1) && (__FPU_USED == 1)
    SCB->CPACR |= ((3UL << (10*2))|(3UL << (11*2)));  /* set CP10 and CP11 Full Access */
 8000e08:	4b06      	ldr	r3, [pc, #24]	@ (8000e24 <SystemInit+0x20>)
 8000e0a:	f8d3 3088 	ldr.w	r3, [r3, #136]	@ 0x88
 8000e0e:	4a05      	ldr	r2, [pc, #20]	@ (8000e24 <SystemInit+0x20>)
 8000e10:	f443 0370 	orr.w	r3, r3, #15728640	@ 0xf00000
 8000e14:	f8c2 3088 	str.w	r3, [r2, #136]	@ 0x88

  /* Configure the Vector Table location add offset address ------------------*/
#if defined(USER_VECT_TAB_ADDRESS)
  SCB->VTOR = VECT_TAB_BASE_ADDRESS | VECT_TAB_OFFSET; /* Vector Table Relocation in Internal SRAM */
#endif /* USER_VECT_TAB_ADDRESS */
}
 8000e18:	bf00      	nop
 8000e1a:	46bd      	mov	sp, r7
 8000e1c:	f85d 7b04 	ldr.w	r7, [sp], #4
 8000e20:	4770      	bx	lr
 8000e22:	bf00      	nop
 8000e24:	e000ed00 	.word	0xe000ed00

08000e28 <Reset_Handler>:

    .section	.text.Reset_Handler
	.weak	Reset_Handler
	.type	Reset_Handler, %function
Reset_Handler:
  ldr   r0, =_estack
 8000e28:	480d      	ldr	r0, [pc, #52]	@ (8000e60 <LoopForever+0x2>)
  mov   sp, r0          /* set stack pointer */
 8000e2a:	4685      	mov	sp, r0
  
/* Call the clock system initialization function.*/
    bl  SystemInit
 8000e2c:	f7ff ffea 	bl	8000e04 <SystemInit>

/* Copy the data segment initializers from flash to SRAM */
  ldr r0, =_sdata
 8000e30:	480c      	ldr	r0, [pc, #48]	@ (8000e64 <LoopForever+0x6>)
  ldr r1, =_edata
 8000e32:	490d      	ldr	r1, [pc, #52]	@ (8000e68 <LoopForever+0xa>)
  ldr r2, =_sidata
 8000e34:	4a0d      	ldr	r2, [pc, #52]	@ (8000e6c <LoopForever+0xe>)
  movs r3, #0
 8000e36:	2300      	movs	r3, #0
  b	LoopCopyDataInit
 8000e38:	e002      	b.n	8000e40 <LoopCopyDataInit>

08000e3a <CopyDataInit>:

CopyDataInit:
  ldr r4, [r2, r3]
 8000e3a:	58d4      	ldr	r4, [r2, r3]
  str r4, [r0, r3]
 8000e3c:	50c4      	str	r4, [r0, r3]
  adds r3, r3, #4
 8000e3e:	3304      	adds	r3, #4

08000e40 <LoopCopyDataInit>:

LoopCopyDataInit:
  adds r4, r0, r3
 8000e40:	18c4      	adds	r4, r0, r3
  cmp r4, r1
 8000e42:	428c      	cmp	r4, r1
  bcc CopyDataInit
 8000e44:	d3f9      	bcc.n	8000e3a <CopyDataInit>
  
/* Zero fill the bss segment. */
  ldr r2, =_sbss
 8000e46:	4a0a      	ldr	r2, [pc, #40]	@ (8000e70 <LoopForever+0x12>)
  ldr r4, =_ebss
 8000e48:	4c0a      	ldr	r4, [pc, #40]	@ (8000e74 <LoopForever+0x16>)
  movs r3, #0
 8000e4a:	2300      	movs	r3, #0
  b LoopFillZerobss
 8000e4c:	e001      	b.n	8000e52 <LoopFillZerobss>

08000e4e <FillZerobss>:

FillZerobss:
  str  r3, [r2]
 8000e4e:	6013      	str	r3, [r2, #0]
  adds r2, r2, #4
 8000e50:	3204      	adds	r2, #4

08000e52 <LoopFillZerobss>:

LoopFillZerobss:
  cmp r2, r4
 8000e52:	42a2      	cmp	r2, r4
  bcc FillZerobss
 8000e54:	d3fb      	bcc.n	8000e4e <FillZerobss>
/* Call static constructors */
    bl __libc_init_array
 8000e56:	f004 fd09 	bl	800586c <__libc_init_array>
/* Call the application's entry point.*/
	bl	main
 8000e5a:	f7ff fc53 	bl	8000704 <main>

08000e5e <LoopForever>:

LoopForever:
    b LoopForever
 8000e5e:	e7fe      	b.n	8000e5e <LoopForever>
  ldr   r0, =_estack
 8000e60:	20008000 	.word	0x20008000
  ldr r0, =_sdata
 8000e64:	20000000 	.word	0x20000000
  ldr r1, =_edata
 8000e68:	20000014 	.word	0x20000014
  ldr r2, =_sidata
 8000e6c:	0800591c 	.word	0x0800591c
  ldr r2, =_sbss
 8000e70:	20000014 	.word	0x20000014
  ldr r4, =_ebss
 8000e74:	2000038c 	.word	0x2000038c

08000e78 <COMP1_2_3_IRQHandler>:
 * @retval : None
*/
    .section	.text.Default_Handler,"ax",%progbits
Default_Handler:
Infinite_Loop:
	b	Infinite_Loop
 8000e78:	e7fe      	b.n	8000e78 <COMP1_2_3_IRQHandler>
	...

08000e7c <BSP_LED_Init>:
  *         This parameter can be one of following parameters:
  *           @arg  LED2
  * @retval BSP status
  */
int32_t BSP_LED_Init(Led_TypeDef Led)
{
 8000e7c:	b580      	push	{r7, lr}
 8000e7e:	b088      	sub	sp, #32
 8000e80:	af00      	add	r7, sp, #0
 8000e82:	4603      	mov	r3, r0
 8000e84:	71fb      	strb	r3, [r7, #7]
  GPIO_InitTypeDef  gpio_init_structure;

  /* Enable the GPIO LED Clock */
  LED2_GPIO_CLK_ENABLE();
 8000e86:	4b16      	ldr	r3, [pc, #88]	@ (8000ee0 <BSP_LED_Init+0x64>)
 8000e88:	6cdb      	ldr	r3, [r3, #76]	@ 0x4c
 8000e8a:	4a15      	ldr	r2, [pc, #84]	@ (8000ee0 <BSP_LED_Init+0x64>)
 8000e8c:	f043 0301 	orr.w	r3, r3, #1
 8000e90:	64d3      	str	r3, [r2, #76]	@ 0x4c
 8000e92:	4b13      	ldr	r3, [pc, #76]	@ (8000ee0 <BSP_LED_Init+0x64>)
 8000e94:	6cdb      	ldr	r3, [r3, #76]	@ 0x4c
 8000e96:	f003 0301 	and.w	r3, r3, #1
 8000e9a:	60bb      	str	r3, [r7, #8]
 8000e9c:	68bb      	ldr	r3, [r7, #8]

  /* Configure the GPIO_LED pin */
  gpio_init_structure.Pin   = LED_PIN[Led];
 8000e9e:	2320      	movs	r3, #32
 8000ea0:	60fb      	str	r3, [r7, #12]
  gpio_init_structure.Mode  = GPIO_MODE_OUTPUT_PP;
 8000ea2:	2301      	movs	r3, #1
 8000ea4:	613b      	str	r3, [r7, #16]
  gpio_init_structure.Pull  = GPIO_NOPULL;
 8000ea6:	2300      	movs	r3, #0
 8000ea8:	617b      	str	r3, [r7, #20]
  gpio_init_structure.Speed = GPIO_SPEED_FREQ_VERY_HIGH;
 8000eaa:	2303      	movs	r3, #3
 8000eac:	61bb      	str	r3, [r7, #24]

  HAL_GPIO_Init(LED_PORT[Led], &gpio_init_structure);
 8000eae:	79fb      	ldrb	r3, [r7, #7]
 8000eb0:	4a0c      	ldr	r2, [pc, #48]	@ (8000ee4 <BSP_LED_Init+0x68>)
 8000eb2:	f852 3023 	ldr.w	r3, [r2, r3, lsl #2]
 8000eb6:	f107 020c 	add.w	r2, r7, #12
 8000eba:	4611      	mov	r1, r2
 8000ebc:	4618      	mov	r0, r3
 8000ebe:	f002 fe01 	bl	8003ac4 <HAL_GPIO_Init>
  HAL_GPIO_WritePin(LED_PORT[Led], LED_PIN[Led], GPIO_PIN_RESET);
 8000ec2:	79fb      	ldrb	r3, [r7, #7]
 8000ec4:	4a07      	ldr	r2, [pc, #28]	@ (8000ee4 <BSP_LED_Init+0x68>)
 8000ec6:	f852 3023 	ldr.w	r3, [r2, r3, lsl #2]
 8000eca:	2120      	movs	r1, #32
 8000ecc:	2200      	movs	r2, #0
 8000ece:	4618      	mov	r0, r3
 8000ed0:	f002 ff7a 	bl	8003dc8 <HAL_GPIO_WritePin>

  return BSP_ERROR_NONE;
 8000ed4:	2300      	movs	r3, #0
}
 8000ed6:	4618      	mov	r0, r3
 8000ed8:	3720      	adds	r7, #32
 8000eda:	46bd      	mov	sp, r7
 8000edc:	bd80      	pop	{r7, pc}
 8000ede:	bf00      	nop
 8000ee0:	40021000 	.word	0x40021000
 8000ee4:	20000004 	.word	0x20000004

08000ee8 <BSP_COM_Init>:
  * @param  COM_Init Pointer to a UART_HandleTypeDef structure that contains the
  *                  configuration information for the specified USART peripheral.
  * @retval BSP error code
  */
int32_t BSP_COM_Init(COM_TypeDef COM, COM_InitTypeDef *COM_Init)
{
 8000ee8:	b580      	push	{r7, lr}
 8000eea:	b084      	sub	sp, #16
 8000eec:	af00      	add	r7, sp, #0
 8000eee:	4603      	mov	r3, r0
 8000ef0:	6039      	str	r1, [r7, #0]
 8000ef2:	71fb      	strb	r3, [r7, #7]
  int32_t ret = BSP_ERROR_NONE;
 8000ef4:	2300      	movs	r3, #0
 8000ef6:	60fb      	str	r3, [r7, #12]

  if(COM > COMn)
 8000ef8:	79fb      	ldrb	r3, [r7, #7]
 8000efa:	2b01      	cmp	r3, #1
 8000efc:	d903      	bls.n	8000f06 <BSP_COM_Init+0x1e>
  {
    ret = BSP_ERROR_WRONG_PARAM;
 8000efe:	f06f 0301 	mvn.w	r3, #1
 8000f02:	60fb      	str	r3, [r7, #12]
 8000f04:	e018      	b.n	8000f38 <BSP_COM_Init+0x50>
  }
  else
  {
#if (USE_HAL_UART_REGISTER_CALLBACKS == 0)
    /* Init the UART Msp */
    COM1_MspInit(&hcom_uart[COM]);
 8000f06:	79fb      	ldrb	r3, [r7, #7]
 8000f08:	2294      	movs	r2, #148	@ 0x94
 8000f0a:	fb02 f303 	mul.w	r3, r2, r3
 8000f0e:	4a0d      	ldr	r2, [pc, #52]	@ (8000f44 <BSP_COM_Init+0x5c>)
 8000f10:	4413      	add	r3, r2
 8000f12:	4618      	mov	r0, r3
 8000f14:	f000 f84a 	bl	8000fac <COM1_MspInit>
        return BSP_ERROR_MSP_FAILURE;
      }
    }
#endif

    if(MX_LPUART1_Init(&hcom_uart[COM], COM_Init) != HAL_OK)
 8000f18:	79fb      	ldrb	r3, [r7, #7]
 8000f1a:	2294      	movs	r2, #148	@ 0x94
 8000f1c:	fb02 f303 	mul.w	r3, r2, r3
 8000f20:	4a08      	ldr	r2, [pc, #32]	@ (8000f44 <BSP_COM_Init+0x5c>)
 8000f22:	4413      	add	r3, r2
 8000f24:	6839      	ldr	r1, [r7, #0]
 8000f26:	4618      	mov	r0, r3
 8000f28:	f000 f80e 	bl	8000f48 <MX_LPUART1_Init>
 8000f2c:	4603      	mov	r3, r0
 8000f2e:	2b00      	cmp	r3, #0
 8000f30:	d002      	beq.n	8000f38 <BSP_COM_Init+0x50>
    {
      return BSP_ERROR_PERIPH_FAILURE;
 8000f32:	f06f 0303 	mvn.w	r3, #3
 8000f36:	e000      	b.n	8000f3a <BSP_COM_Init+0x52>
    }
  }

  return ret;
 8000f38:	68fb      	ldr	r3, [r7, #12]
}
 8000f3a:	4618      	mov	r0, r3
 8000f3c:	3710      	adds	r7, #16
 8000f3e:	46bd      	mov	sp, r7
 8000f40:	bd80      	pop	{r7, pc}
 8000f42:	bf00      	nop
 8000f44:	200002f4 	.word	0x200002f4

08000f48 <MX_LPUART1_Init>:
  * @param  COM_Init Pointer to a UART_HandleTypeDef structure that contains the
  *                  configuration information for the specified USART peripheral.
  * @retval HAL error code
  */
__weak HAL_StatusTypeDef MX_LPUART1_Init(UART_HandleTypeDef *huart, MX_UART_InitTypeDef *COM_Init)
{
 8000f48:	b580      	push	{r7, lr}
 8000f4a:	b082      	sub	sp, #8
 8000f4c:	af00      	add	r7, sp, #0
 8000f4e:	6078      	str	r0, [r7, #4]
 8000f50:	6039      	str	r1, [r7, #0]
  /* USART configuration */
 huart->Instance          = COM_USART[COM1];
 8000f52:	4b15      	ldr	r3, [pc, #84]	@ (8000fa8 <MX_LPUART1_Init+0x60>)
 8000f54:	681a      	ldr	r2, [r3, #0]
 8000f56:	687b      	ldr	r3, [r7, #4]
 8000f58:	601a      	str	r2, [r3, #0]
 huart->Init.BaudRate     = COM_Init->BaudRate;
 8000f5a:	683b      	ldr	r3, [r7, #0]
 8000f5c:	681a      	ldr	r2, [r3, #0]
 8000f5e:	687b      	ldr	r3, [r7, #4]
 8000f60:	605a      	str	r2, [r3, #4]
 huart->Init.Mode         = UART_MODE_TX_RX;
 8000f62:	687b      	ldr	r3, [r7, #4]
 8000f64:	220c      	movs	r2, #12
 8000f66:	615a      	str	r2, [r3, #20]
 huart->Init.Parity       = (uint32_t)COM_Init->Parity;
 8000f68:	683b      	ldr	r3, [r7, #0]
 8000f6a:	895b      	ldrh	r3, [r3, #10]
 8000f6c:	461a      	mov	r2, r3
 8000f6e:	687b      	ldr	r3, [r7, #4]
 8000f70:	611a      	str	r2, [r3, #16]
 huart->Init.WordLength   = COM_Init->WordLength;
 8000f72:	683b      	ldr	r3, [r7, #0]
 8000f74:	685a      	ldr	r2, [r3, #4]
 8000f76:	687b      	ldr	r3, [r7, #4]
 8000f78:	609a      	str	r2, [r3, #8]
 huart->Init.StopBits     = (uint32_t)COM_Init->StopBits;
 8000f7a:	683b      	ldr	r3, [r7, #0]
 8000f7c:	891b      	ldrh	r3, [r3, #8]
 8000f7e:	461a      	mov	r2, r3
 8000f80:	687b      	ldr	r3, [r7, #4]
 8000f82:	60da      	str	r2, [r3, #12]
 huart->Init.HwFlowCtl    = (uint32_t)COM_Init->HwFlowCtl;
 8000f84:	683b      	ldr	r3, [r7, #0]
 8000f86:	899b      	ldrh	r3, [r3, #12]
 8000f88:	461a      	mov	r2, r3
 8000f8a:	687b      	ldr	r3, [r7, #4]
 8000f8c:	619a      	str	r2, [r3, #24]
 huart->Init.OverSampling = UART_OVERSAMPLING_8;
 8000f8e:	687b      	ldr	r3, [r7, #4]
 8000f90:	f44f 4200 	mov.w	r2, #32768	@ 0x8000
 8000f94:	61da      	str	r2, [r3, #28]

 return HAL_UART_Init(huart);
 8000f96:	6878      	ldr	r0, [r7, #4]
 8000f98:	f003 ff1a 	bl	8004dd0 <HAL_UART_Init>
 8000f9c:	4603      	mov	r3, r0
}
 8000f9e:	4618      	mov	r0, r3
 8000fa0:	3708      	adds	r7, #8
 8000fa2:	46bd      	mov	sp, r7
 8000fa4:	bd80      	pop	{r7, pc}
 8000fa6:	bf00      	nop
 8000fa8:	20000008 	.word	0x20000008

08000fac <COM1_MspInit>:
  * @brief  Initializes COM1 MSP.
  * @param  huart UART handle
  * @retval BSP status
  */
static void COM1_MspInit(UART_HandleTypeDef *huart)
{
 8000fac:	b580      	push	{r7, lr}
 8000fae:	b08a      	sub	sp, #40	@ 0x28
 8000fb0:	af00      	add	r7, sp, #0
 8000fb2:	6078      	str	r0, [r7, #4]

  /* Prevent unused argument(s) compilation warning */
  UNUSED(huart);

  /* Enable GPIO clock */
  COM1_TX_GPIO_CLK_ENABLE();
 8000fb4:	4b22      	ldr	r3, [pc, #136]	@ (8001040 <COM1_MspInit+0x94>)
 8000fb6:	6cdb      	ldr	r3, [r3, #76]	@ 0x4c
 8000fb8:	4a21      	ldr	r2, [pc, #132]	@ (8001040 <COM1_MspInit+0x94>)
 8000fba:	f043 0301 	orr.w	r3, r3, #1
 8000fbe:	64d3      	str	r3, [r2, #76]	@ 0x4c
 8000fc0:	4b1f      	ldr	r3, [pc, #124]	@ (8001040 <COM1_MspInit+0x94>)
 8000fc2:	6cdb      	ldr	r3, [r3, #76]	@ 0x4c
 8000fc4:	f003 0301 	and.w	r3, r3, #1
 8000fc8:	613b      	str	r3, [r7, #16]
 8000fca:	693b      	ldr	r3, [r7, #16]
  COM1_RX_GPIO_CLK_ENABLE();
 8000fcc:	4b1c      	ldr	r3, [pc, #112]	@ (8001040 <COM1_MspInit+0x94>)
 8000fce:	6cdb      	ldr	r3, [r3, #76]	@ 0x4c
 8000fd0:	4a1b      	ldr	r2, [pc, #108]	@ (8001040 <COM1_MspInit+0x94>)
 8000fd2:	f043 0301 	orr.w	r3, r3, #1
 8000fd6:	64d3      	str	r3, [r2, #76]	@ 0x4c
 8000fd8:	4b19      	ldr	r3, [pc, #100]	@ (8001040 <COM1_MspInit+0x94>)
 8000fda:	6cdb      	ldr	r3, [r3, #76]	@ 0x4c
 8000fdc:	f003 0301 	and.w	r3, r3, #1
 8000fe0:	60fb      	str	r3, [r7, #12]
 8000fe2:	68fb      	ldr	r3, [r7, #12]

  /* Enable USART clock */
  COM1_CLK_ENABLE();
 8000fe4:	4b16      	ldr	r3, [pc, #88]	@ (8001040 <COM1_MspInit+0x94>)
 8000fe6:	6ddb      	ldr	r3, [r3, #92]	@ 0x5c
 8000fe8:	4a15      	ldr	r2, [pc, #84]	@ (8001040 <COM1_MspInit+0x94>)
 8000fea:	f043 0301 	orr.w	r3, r3, #1
 8000fee:	65d3      	str	r3, [r2, #92]	@ 0x5c
 8000ff0:	4b13      	ldr	r3, [pc, #76]	@ (8001040 <COM1_MspInit+0x94>)
 8000ff2:	6ddb      	ldr	r3, [r3, #92]	@ 0x5c
 8000ff4:	f003 0301 	and.w	r3, r3, #1
 8000ff8:	60bb      	str	r3, [r7, #8]
 8000ffa:	68bb      	ldr	r3, [r7, #8]

  /* Configure USART Tx as alternate function */
  gpio_init_structure.Pin       = COM1_TX_PIN;
 8000ffc:	2304      	movs	r3, #4
 8000ffe:	617b      	str	r3, [r7, #20]
  gpio_init_structure.Mode      = GPIO_MODE_AF_PP;
 8001000:	2302      	movs	r3, #2
 8001002:	61bb      	str	r3, [r7, #24]
  gpio_init_structure.Speed     = GPIO_SPEED_FREQ_HIGH;
 8001004:	2302      	movs	r3, #2
 8001006:	623b      	str	r3, [r7, #32]
  gpio_init_structure.Pull      = GPIO_PULLUP;
 8001008:	2301      	movs	r3, #1
 800100a:	61fb      	str	r3, [r7, #28]
  gpio_init_structure.Alternate = COM1_TX_AF;
 800100c:	230c      	movs	r3, #12
 800100e:	627b      	str	r3, [r7, #36]	@ 0x24
  HAL_GPIO_Init(COM1_TX_GPIO_PORT, &gpio_init_structure);
 8001010:	f107 0314 	add.w	r3, r7, #20
 8001014:	4619      	mov	r1, r3
 8001016:	f04f 4090 	mov.w	r0, #1207959552	@ 0x48000000
 800101a:	f002 fd53 	bl	8003ac4 <HAL_GPIO_Init>

  /* Configure USART Rx as alternate function */
  gpio_init_structure.Pin = COM1_RX_PIN;
 800101e:	2308      	movs	r3, #8
 8001020:	617b      	str	r3, [r7, #20]
  gpio_init_structure.Mode = GPIO_MODE_AF_PP;
 8001022:	2302      	movs	r3, #2
 8001024:	61bb      	str	r3, [r7, #24]
  gpio_init_structure.Alternate = COM1_RX_AF;
 8001026:	230c      	movs	r3, #12
 8001028:	627b      	str	r3, [r7, #36]	@ 0x24
  HAL_GPIO_Init(COM1_RX_GPIO_PORT, &gpio_init_structure);
 800102a:	f107 0314 	add.w	r3, r7, #20
 800102e:	4619      	mov	r1, r3
 8001030:	f04f 4090 	mov.w	r0, #1207959552	@ 0x48000000
 8001034:	f002 fd46 	bl	8003ac4 <HAL_GPIO_Init>
}
 8001038:	bf00      	nop
 800103a:	3728      	adds	r7, #40	@ 0x28
 800103c:	46bd      	mov	sp, r7
 800103e:	bd80      	pop	{r7, pc}
 8001040:	40021000 	.word	0x40021000

08001044 <HAL_Init>:
  *         each 1ms in the SysTick_Handler() interrupt handler.
  *
  * @retval HAL status
  */
HAL_StatusTypeDef HAL_Init(void)
{
 8001044:	b580      	push	{r7, lr}
 8001046:	b082      	sub	sp, #8
 8001048:	af00      	add	r7, sp, #0
  HAL_StatusTypeDef  status = HAL_OK;
 800104a:	2300      	movs	r3, #0
 800104c:	71fb      	strb	r3, [r7, #7]
#if (PREFETCH_ENABLE != 0U)
  __HAL_FLASH_PREFETCH_BUFFER_ENABLE();
#endif /* PREFETCH_ENABLE */

  /* Set Interrupt Group Priority */
  HAL_NVIC_SetPriorityGrouping(NVIC_PRIORITYGROUP_4);
 800104e:	2003      	movs	r0, #3
 8001050:	f001 fd24 	bl	8002a9c <HAL_NVIC_SetPriorityGrouping>

  /* Use SysTick as time base source and configure 1ms tick (default clock after Reset is HSI) */
  if (HAL_InitTick(TICK_INT_PRIORITY) != HAL_OK)
 8001054:	2000      	movs	r0, #0
 8001056:	f000 f80d 	bl	8001074 <HAL_InitTick>
 800105a:	4603      	mov	r3, r0
 800105c:	2b00      	cmp	r3, #0
 800105e:	d002      	beq.n	8001066 <HAL_Init+0x22>
  {
    status = HAL_ERROR;
 8001060:	2301      	movs	r3, #1
 8001062:	71fb      	strb	r3, [r7, #7]
 8001064:	e001      	b.n	800106a <HAL_Init+0x26>
  }
  else
  {
    /* Init the low level hardware */
    HAL_MspInit();
 8001066:	f7ff fd6b 	bl	8000b40 <HAL_MspInit>
  }

  /* Return function status */
  return status;
 800106a:	79fb      	ldrb	r3, [r7, #7]

}
 800106c:	4618      	mov	r0, r3
 800106e:	3708      	adds	r7, #8
 8001070:	46bd      	mov	sp, r7
 8001072:	bd80      	pop	{r7, pc}

08001074 <HAL_InitTick>:
  *       implementation  in user file.
  * @param TickPriority: Tick interrupt priority.
  * @retval HAL status
  */
__weak HAL_StatusTypeDef HAL_InitTick(uint32_t TickPriority)
{
 8001074:	b580      	push	{r7, lr}
 8001076:	b084      	sub	sp, #16
 8001078:	af00      	add	r7, sp, #0
 800107a:	6078      	str	r0, [r7, #4]
  HAL_StatusTypeDef  status = HAL_OK;
 800107c:	2300      	movs	r3, #0
 800107e:	73fb      	strb	r3, [r7, #15]

  if (uwTickFreq != 0U)
 8001080:	4b16      	ldr	r3, [pc, #88]	@ (80010dc <HAL_InitTick+0x68>)
 8001082:	681b      	ldr	r3, [r3, #0]
 8001084:	2b00      	cmp	r3, #0
 8001086:	d022      	beq.n	80010ce <HAL_InitTick+0x5a>
  {
    /* Configure the SysTick to have interrupt in 1ms time basis*/
    if (HAL_SYSTICK_Config(SystemCoreClock / (1000U / uwTickFreq)) == 0U)
 8001088:	4b15      	ldr	r3, [pc, #84]	@ (80010e0 <HAL_InitTick+0x6c>)
 800108a:	681a      	ldr	r2, [r3, #0]
 800108c:	4b13      	ldr	r3, [pc, #76]	@ (80010dc <HAL_InitTick+0x68>)
 800108e:	681b      	ldr	r3, [r3, #0]
 8001090:	f44f 717a 	mov.w	r1, #1000	@ 0x3e8
 8001094:	fbb1 f3f3 	udiv	r3, r1, r3
 8001098:	fbb2 f3f3 	udiv	r3, r2, r3
 800109c:	4618      	mov	r0, r3
 800109e:	f001 fd30 	bl	8002b02 <HAL_SYSTICK_Config>
 80010a2:	4603      	mov	r3, r0
 80010a4:	2b00      	cmp	r3, #0
 80010a6:	d10f      	bne.n	80010c8 <HAL_InitTick+0x54>
    {
      /* Configure the SysTick IRQ priority */
      if (TickPriority < (1UL << __NVIC_PRIO_BITS))
 80010a8:	687b      	ldr	r3, [r7, #4]
 80010aa:	2b0f      	cmp	r3, #15
 80010ac:	d809      	bhi.n	80010c2 <HAL_InitTick+0x4e>
      {
        HAL_NVIC_SetPriority(SysTick_IRQn, TickPriority, 0U);
 80010ae:	2200      	movs	r2, #0
 80010b0:	6879      	ldr	r1, [r7, #4]
 80010b2:	f04f 30ff 	mov.w	r0, #4294967295	@ 0xffffffff
 80010b6:	f001 fcfc 	bl	8002ab2 <HAL_NVIC_SetPriority>
        uwTickPrio = TickPriority;
 80010ba:	4a0a      	ldr	r2, [pc, #40]	@ (80010e4 <HAL_InitTick+0x70>)
 80010bc:	687b      	ldr	r3, [r7, #4]
 80010be:	6013      	str	r3, [r2, #0]
 80010c0:	e007      	b.n	80010d2 <HAL_InitTick+0x5e>
      }
      else
      {
        status = HAL_ERROR;
 80010c2:	2301      	movs	r3, #1
 80010c4:	73fb      	strb	r3, [r7, #15]
 80010c6:	e004      	b.n	80010d2 <HAL_InitTick+0x5e>
      }
    }
    else
    {
      status = HAL_ERROR;
 80010c8:	2301      	movs	r3, #1
 80010ca:	73fb      	strb	r3, [r7, #15]
 80010cc:	e001      	b.n	80010d2 <HAL_InitTick+0x5e>
    }
  }
  else
  {
    status = HAL_ERROR;
 80010ce:	2301      	movs	r3, #1
 80010d0:	73fb      	strb	r3, [r7, #15]
  }

  /* Return function status */
  return status;
 80010d2:	7bfb      	ldrb	r3, [r7, #15]
}
 80010d4:	4618      	mov	r0, r3
 80010d6:	3710      	adds	r7, #16
 80010d8:	46bd      	mov	sp, r7
 80010da:	bd80      	pop	{r7, pc}
 80010dc:	20000010 	.word	0x20000010
 80010e0:	20000000 	.word	0x20000000
 80010e4:	2000000c 	.word	0x2000000c

080010e8 <HAL_IncTick>:
  * @note This function is declared as __weak to be overwritten in case of other
  *      implementations in user file.
  * @retval None
  */
__weak void HAL_IncTick(void)
{
 80010e8:	b480      	push	{r7}
 80010ea:	af00      	add	r7, sp, #0
  uwTick += uwTickFreq;
 80010ec:	4b05      	ldr	r3, [pc, #20]	@ (8001104 <HAL_IncTick+0x1c>)
 80010ee:	681a      	ldr	r2, [r3, #0]
 80010f0:	4b05      	ldr	r3, [pc, #20]	@ (8001108 <HAL_IncTick+0x20>)
 80010f2:	681b      	ldr	r3, [r3, #0]
 80010f4:	4413      	add	r3, r2
 80010f6:	4a03      	ldr	r2, [pc, #12]	@ (8001104 <HAL_IncTick+0x1c>)
 80010f8:	6013      	str	r3, [r2, #0]
}
 80010fa:	bf00      	nop
 80010fc:	46bd      	mov	sp, r7
 80010fe:	f85d 7b04 	ldr.w	r7, [sp], #4
 8001102:	4770      	bx	lr
 8001104:	20000388 	.word	0x20000388
 8001108:	20000010 	.word	0x20000010

0800110c <HAL_GetTick>:
  * @note This function is declared as __weak to be overwritten in case of other
  *       implementations in user file.
  * @retval tick value
  */
__weak uint32_t HAL_GetTick(void)
{
 800110c:	b480      	push	{r7}
 800110e:	af00      	add	r7, sp, #0
  return uwTick;
 8001110:	4b03      	ldr	r3, [pc, #12]	@ (8001120 <HAL_GetTick+0x14>)
 8001112:	681b      	ldr	r3, [r3, #0]
}
 8001114:	4618      	mov	r0, r3
 8001116:	46bd      	mov	sp, r7
 8001118:	f85d 7b04 	ldr.w	r7, [sp], #4
 800111c:	4770      	bx	lr
 800111e:	bf00      	nop
 8001120:	20000388 	.word	0x20000388

08001124 <LL_ADC_SetCommonClock>:
  *         @arg @ref LL_ADC_CLOCK_ASYNC_DIV128
  *         @arg @ref LL_ADC_CLOCK_ASYNC_DIV256
  * @retval None
  */
__STATIC_INLINE void LL_ADC_SetCommonClock(ADC_Common_TypeDef *ADCxy_COMMON, uint32_t CommonClock)
{
 8001124:	b480      	push	{r7}
 8001126:	b083      	sub	sp, #12
 8001128:	af00      	add	r7, sp, #0
 800112a:	6078      	str	r0, [r7, #4]
 800112c:	6039      	str	r1, [r7, #0]
  MODIFY_REG(ADCxy_COMMON->CCR, ADC_CCR_CKMODE | ADC_CCR_PRESC, CommonClock);
 800112e:	687b      	ldr	r3, [r7, #4]
 8001130:	689b      	ldr	r3, [r3, #8]
 8001132:	f423 127c 	bic.w	r2, r3, #4128768	@ 0x3f0000
 8001136:	683b      	ldr	r3, [r7, #0]
 8001138:	431a      	orrs	r2, r3
 800113a:	687b      	ldr	r3, [r7, #4]
 800113c:	609a      	str	r2, [r3, #8]
}
 800113e:	bf00      	nop
 8001140:	370c      	adds	r7, #12
 8001142:	46bd      	mov	sp, r7
 8001144:	f85d 7b04 	ldr.w	r7, [sp], #4
 8001148:	4770      	bx	lr

0800114a <LL_ADC_SetCommonPathInternalCh>:
  *         @arg @ref LL_ADC_PATH_INTERNAL_TEMPSENSOR
  *         @arg @ref LL_ADC_PATH_INTERNAL_VBAT
  * @retval None
  */
__STATIC_INLINE void LL_ADC_SetCommonPathInternalCh(ADC_Common_TypeDef *ADCxy_COMMON, uint32_t PathInternal)
{
 800114a:	b480      	push	{r7}
 800114c:	b083      	sub	sp, #12
 800114e:	af00      	add	r7, sp, #0
 8001150:	6078      	str	r0, [r7, #4]
 8001152:	6039      	str	r1, [r7, #0]
  MODIFY_REG(ADCxy_COMMON->CCR, ADC_CCR_VREFEN | ADC_CCR_VSENSESEL | ADC_CCR_VBATSEL, PathInternal);
 8001154:	687b      	ldr	r3, [r7, #4]
 8001156:	689b      	ldr	r3, [r3, #8]
 8001158:	f023 72e0 	bic.w	r2, r3, #29360128	@ 0x1c00000
 800115c:	683b      	ldr	r3, [r7, #0]
 800115e:	431a      	orrs	r2, r3
 8001160:	687b      	ldr	r3, [r7, #4]
 8001162:	609a      	str	r2, [r3, #8]
}
 8001164:	bf00      	nop
 8001166:	370c      	adds	r7, #12
 8001168:	46bd      	mov	sp, r7
 800116a:	f85d 7b04 	ldr.w	r7, [sp], #4
 800116e:	4770      	bx	lr

08001170 <LL_ADC_GetCommonPathInternalCh>:
  *         @arg @ref LL_ADC_PATH_INTERNAL_VREFINT
  *         @arg @ref LL_ADC_PATH_INTERNAL_TEMPSENSOR
  *         @arg @ref LL_ADC_PATH_INTERNAL_VBAT
  */
__STATIC_INLINE uint32_t LL_ADC_GetCommonPathInternalCh(const ADC_Common_TypeDef *ADCxy_COMMON)
{
 8001170:	b480      	push	{r7}
 8001172:	b083      	sub	sp, #12
 8001174:	af00      	add	r7, sp, #0
 8001176:	6078      	str	r0, [r7, #4]
  return (uint32_t)(READ_BIT(ADCxy_COMMON->CCR, ADC_CCR_VREFEN | ADC_CCR_VSENSESEL | ADC_CCR_VBATSEL));
 8001178:	687b      	ldr	r3, [r7, #4]
 800117a:	689b      	ldr	r3, [r3, #8]
 800117c:	f003 73e0 	and.w	r3, r3, #29360128	@ 0x1c00000
}
 8001180:	4618      	mov	r0, r3
 8001182:	370c      	adds	r7, #12
 8001184:	46bd      	mov	sp, r7
 8001186:	f85d 7b04 	ldr.w	r7, [sp], #4
 800118a:	4770      	bx	lr

0800118c <LL_ADC_SetOffset>:
  *             (fADC) to convert in 12-bit resolution.\n
  * @param  OffsetLevel Value between Min_Data=0x000 and Max_Data=0xFFF
  * @retval None
  */
__STATIC_INLINE void LL_ADC_SetOffset(ADC_TypeDef *ADCx, uint32_t Offsety, uint32_t Channel, uint32_t OffsetLevel)
{
 800118c:	b480      	push	{r7}
 800118e:	b087      	sub	sp, #28
 8001190:	af00      	add	r7, sp, #0
 8001192:	60f8      	str	r0, [r7, #12]
 8001194:	60b9      	str	r1, [r7, #8]
 8001196:	607a      	str	r2, [r7, #4]
 8001198:	603b      	str	r3, [r7, #0]
  __IO uint32_t *preg = __ADC_PTR_REG_OFFSET(ADCx->OFR1, Offsety);
 800119a:	68fb      	ldr	r3, [r7, #12]
 800119c:	3360      	adds	r3, #96	@ 0x60
 800119e:	461a      	mov	r2, r3
 80011a0:	68bb      	ldr	r3, [r7, #8]
 80011a2:	009b      	lsls	r3, r3, #2
 80011a4:	4413      	add	r3, r2
 80011a6:	617b      	str	r3, [r7, #20]

  MODIFY_REG(*preg,
 80011a8:	697b      	ldr	r3, [r7, #20]
 80011aa:	681a      	ldr	r2, [r3, #0]
 80011ac:	4b08      	ldr	r3, [pc, #32]	@ (80011d0 <LL_ADC_SetOffset+0x44>)
 80011ae:	4013      	ands	r3, r2
 80011b0:	687a      	ldr	r2, [r7, #4]
 80011b2:	f002 41f8 	and.w	r1, r2, #2080374784	@ 0x7c000000
 80011b6:	683a      	ldr	r2, [r7, #0]
 80011b8:	430a      	orrs	r2, r1
 80011ba:	4313      	orrs	r3, r2
 80011bc:	f043 4200 	orr.w	r2, r3, #2147483648	@ 0x80000000
 80011c0:	697b      	ldr	r3, [r7, #20]
 80011c2:	601a      	str	r2, [r3, #0]
             ADC_OFR1_OFFSET1_EN | ADC_OFR1_OFFSET1_CH | ADC_OFR1_OFFSET1,
             ADC_OFR1_OFFSET1_EN | (Channel & ADC_CHANNEL_ID_NUMBER_MASK) | OffsetLevel);
}
 80011c4:	bf00      	nop
 80011c6:	371c      	adds	r7, #28
 80011c8:	46bd      	mov	sp, r7
 80011ca:	f85d 7b04 	ldr.w	r7, [sp], #4
 80011ce:	4770      	bx	lr
 80011d0:	03fff000 	.word	0x03fff000

080011d4 <LL_ADC_GetOffsetChannel>:
  *         (1, 2, 3, 4, 5, 7) For ADC channel read back from ADC register,
  *                      comparison with internal channel parameter to be done
  *                      using helper macro @ref __LL_ADC_CHANNEL_INTERNAL_TO_EXTERNAL().
  */
__STATIC_INLINE uint32_t LL_ADC_GetOffsetChannel(const ADC_TypeDef *ADCx, uint32_t Offsety)
{
 80011d4:	b480      	push	{r7}
 80011d6:	b085      	sub	sp, #20
 80011d8:	af00      	add	r7, sp, #0
 80011da:	6078      	str	r0, [r7, #4]
 80011dc:	6039      	str	r1, [r7, #0]
  const __IO uint32_t *preg = __ADC_PTR_REG_OFFSET(ADCx->OFR1, Offsety);
 80011de:	687b      	ldr	r3, [r7, #4]
 80011e0:	3360      	adds	r3, #96	@ 0x60
 80011e2:	461a      	mov	r2, r3
 80011e4:	683b      	ldr	r3, [r7, #0]
 80011e6:	009b      	lsls	r3, r3, #2
 80011e8:	4413      	add	r3, r2
 80011ea:	60fb      	str	r3, [r7, #12]

  return (uint32_t) READ_BIT(*preg, ADC_OFR1_OFFSET1_CH);
 80011ec:	68fb      	ldr	r3, [r7, #12]
 80011ee:	681b      	ldr	r3, [r3, #0]
 80011f0:	f003 43f8 	and.w	r3, r3, #2080374784	@ 0x7c000000
}
 80011f4:	4618      	mov	r0, r3
 80011f6:	3714      	adds	r7, #20
 80011f8:	46bd      	mov	sp, r7
 80011fa:	f85d 7b04 	ldr.w	r7, [sp], #4
 80011fe:	4770      	bx	lr

08001200 <LL_ADC_SetOffsetState>:
  *         @arg @ref LL_ADC_OFFSET_DISABLE
  *         @arg @ref LL_ADC_OFFSET_ENABLE
  * @retval None
  */
__STATIC_INLINE void LL_ADC_SetOffsetState(ADC_TypeDef *ADCx, uint32_t Offsety, uint32_t OffsetState)
{
 8001200:	b480      	push	{r7}
 8001202:	b087      	sub	sp, #28
 8001204:	af00      	add	r7, sp, #0
 8001206:	60f8      	str	r0, [r7, #12]
 8001208:	60b9      	str	r1, [r7, #8]
 800120a:	607a      	str	r2, [r7, #4]
  __IO uint32_t *preg = __ADC_PTR_REG_OFFSET(ADCx->OFR1, Offsety);
 800120c:	68fb      	ldr	r3, [r7, #12]
 800120e:	3360      	adds	r3, #96	@ 0x60
 8001210:	461a      	mov	r2, r3
 8001212:	68bb      	ldr	r3, [r7, #8]
 8001214:	009b      	lsls	r3, r3, #2
 8001216:	4413      	add	r3, r2
 8001218:	617b      	str	r3, [r7, #20]

  MODIFY_REG(*preg,
 800121a:	697b      	ldr	r3, [r7, #20]
 800121c:	681b      	ldr	r3, [r3, #0]
 800121e:	f023 4200 	bic.w	r2, r3, #2147483648	@ 0x80000000
 8001222:	687b      	ldr	r3, [r7, #4]
 8001224:	431a      	orrs	r2, r3
 8001226:	697b      	ldr	r3, [r7, #20]
 8001228:	601a      	str	r2, [r3, #0]
             ADC_OFR1_OFFSET1_EN,
             OffsetState);
}
 800122a:	bf00      	nop
 800122c:	371c      	adds	r7, #28
 800122e:	46bd      	mov	sp, r7
 8001230:	f85d 7b04 	ldr.w	r7, [sp], #4
 8001234:	4770      	bx	lr

08001236 <LL_ADC_SetOffsetSign>:
  *         @arg @ref LL_ADC_OFFSET_SIGN_NEGATIVE
  *         @arg @ref LL_ADC_OFFSET_SIGN_POSITIVE
  * @retval None
  */
__STATIC_INLINE void LL_ADC_SetOffsetSign(ADC_TypeDef *ADCx, uint32_t Offsety, uint32_t OffsetSign)
{
 8001236:	b480      	push	{r7}
 8001238:	b087      	sub	sp, #28
 800123a:	af00      	add	r7, sp, #0
 800123c:	60f8      	str	r0, [r7, #12]
 800123e:	60b9      	str	r1, [r7, #8]
 8001240:	607a      	str	r2, [r7, #4]
  __IO uint32_t *preg = __ADC_PTR_REG_OFFSET(ADCx->OFR1, Offsety);
 8001242:	68fb      	ldr	r3, [r7, #12]
 8001244:	3360      	adds	r3, #96	@ 0x60
 8001246:	461a      	mov	r2, r3
 8001248:	68bb      	ldr	r3, [r7, #8]
 800124a:	009b      	lsls	r3, r3, #2
 800124c:	4413      	add	r3, r2
 800124e:	617b      	str	r3, [r7, #20]

  MODIFY_REG(*preg,
 8001250:	697b      	ldr	r3, [r7, #20]
 8001252:	681b      	ldr	r3, [r3, #0]
 8001254:	f023 7280 	bic.w	r2, r3, #16777216	@ 0x1000000
 8001258:	687b      	ldr	r3, [r7, #4]
 800125a:	431a      	orrs	r2, r3
 800125c:	697b      	ldr	r3, [r7, #20]
 800125e:	601a      	str	r2, [r3, #0]
             ADC_OFR1_OFFSETPOS,
             OffsetSign);
}
 8001260:	bf00      	nop
 8001262:	371c      	adds	r7, #28
 8001264:	46bd      	mov	sp, r7
 8001266:	f85d 7b04 	ldr.w	r7, [sp], #4
 800126a:	4770      	bx	lr

0800126c <LL_ADC_SetOffsetSaturation>:
  *         @arg @ref LL_ADC_OFFSET_SATURATION_ENABLE
  *         @arg @ref LL_ADC_OFFSET_SATURATION_DISABLE
  * @retval None
  */
__STATIC_INLINE void LL_ADC_SetOffsetSaturation(ADC_TypeDef *ADCx, uint32_t Offsety, uint32_t OffsetSaturation)
{
 800126c:	b480      	push	{r7}
 800126e:	b087      	sub	sp, #28
 8001270:	af00      	add	r7, sp, #0
 8001272:	60f8      	str	r0, [r7, #12]
 8001274:	60b9      	str	r1, [r7, #8]
 8001276:	607a      	str	r2, [r7, #4]
  __IO uint32_t *preg = __ADC_PTR_REG_OFFSET(ADCx->OFR1, Offsety);
 8001278:	68fb      	ldr	r3, [r7, #12]
 800127a:	3360      	adds	r3, #96	@ 0x60
 800127c:	461a      	mov	r2, r3
 800127e:	68bb      	ldr	r3, [r7, #8]
 8001280:	009b      	lsls	r3, r3, #2
 8001282:	4413      	add	r3, r2
 8001284:	617b      	str	r3, [r7, #20]

  MODIFY_REG(*preg,
 8001286:	697b      	ldr	r3, [r7, #20]
 8001288:	681b      	ldr	r3, [r3, #0]
 800128a:	f023 7200 	bic.w	r2, r3, #33554432	@ 0x2000000
 800128e:	687b      	ldr	r3, [r7, #4]
 8001290:	431a      	orrs	r2, r3
 8001292:	697b      	ldr	r3, [r7, #20]
 8001294:	601a      	str	r2, [r3, #0]
             ADC_OFR1_SATEN,
             OffsetSaturation);
}
 8001296:	bf00      	nop
 8001298:	371c      	adds	r7, #28
 800129a:	46bd      	mov	sp, r7
 800129c:	f85d 7b04 	ldr.w	r7, [sp], #4
 80012a0:	4770      	bx	lr

080012a2 <LL_ADC_SetSamplingTimeCommonConfig>:
  *         @arg @ref LL_ADC_SAMPLINGTIME_COMMON_DEFAULT
  *         @arg @ref LL_ADC_SAMPLINGTIME_COMMON_3C5_REPL_2C5
  * @retval None
  */
__STATIC_INLINE void LL_ADC_SetSamplingTimeCommonConfig(ADC_TypeDef *ADCx, uint32_t SamplingTimeCommonConfig)
{
 80012a2:	b480      	push	{r7}
 80012a4:	b083      	sub	sp, #12
 80012a6:	af00      	add	r7, sp, #0
 80012a8:	6078      	str	r0, [r7, #4]
 80012aa:	6039      	str	r1, [r7, #0]
  MODIFY_REG(ADCx->SMPR1, ADC_SMPR1_SMPPLUS, SamplingTimeCommonConfig);
 80012ac:	687b      	ldr	r3, [r7, #4]
 80012ae:	695b      	ldr	r3, [r3, #20]
 80012b0:	f023 4200 	bic.w	r2, r3, #2147483648	@ 0x80000000
 80012b4:	683b      	ldr	r3, [r7, #0]
 80012b6:	431a      	orrs	r2, r3
 80012b8:	687b      	ldr	r3, [r7, #4]
 80012ba:	615a      	str	r2, [r3, #20]
}
 80012bc:	bf00      	nop
 80012be:	370c      	adds	r7, #12
 80012c0:	46bd      	mov	sp, r7
 80012c2:	f85d 7b04 	ldr.w	r7, [sp], #4
 80012c6:	4770      	bx	lr

080012c8 <LL_ADC_REG_IsTriggerSourceSWStart>:
  * @param  ADCx ADC instance
  * @retval Value "0" if trigger source external trigger
  *         Value "1" if trigger source SW start.
  */
__STATIC_INLINE uint32_t LL_ADC_REG_IsTriggerSourceSWStart(const ADC_TypeDef *ADCx)
{
 80012c8:	b480      	push	{r7}
 80012ca:	b083      	sub	sp, #12
 80012cc:	af00      	add	r7, sp, #0
 80012ce:	6078      	str	r0, [r7, #4]
  return ((READ_BIT(ADCx->CFGR, ADC_CFGR_EXTEN) == (LL_ADC_REG_TRIG_SOFTWARE & ADC_CFGR_EXTEN)) ? 1UL : 0UL);
 80012d0:	687b      	ldr	r3, [r7, #4]
 80012d2:	68db      	ldr	r3, [r3, #12]
 80012d4:	f403 6340 	and.w	r3, r3, #3072	@ 0xc00
 80012d8:	2b00      	cmp	r3, #0
 80012da:	d101      	bne.n	80012e0 <LL_ADC_REG_IsTriggerSourceSWStart+0x18>
 80012dc:	2301      	movs	r3, #1
 80012de:	e000      	b.n	80012e2 <LL_ADC_REG_IsTriggerSourceSWStart+0x1a>
 80012e0:	2300      	movs	r3, #0
}
 80012e2:	4618      	mov	r0, r3
 80012e4:	370c      	adds	r7, #12
 80012e6:	46bd      	mov	sp, r7
 80012e8:	f85d 7b04 	ldr.w	r7, [sp], #4
 80012ec:	4770      	bx	lr

080012ee <LL_ADC_REG_SetSequencerRanks>:
  *             Other channels are slow channels  allows: 6.5 (sampling) + 12.5 (conversion) = 19 ADC clock cycles
  *             (fADC) to convert in 12-bit resolution.\n
  * @retval None
  */
__STATIC_INLINE void LL_ADC_REG_SetSequencerRanks(ADC_TypeDef *ADCx, uint32_t Rank, uint32_t Channel)
{
 80012ee:	b480      	push	{r7}
 80012f0:	b087      	sub	sp, #28
 80012f2:	af00      	add	r7, sp, #0
 80012f4:	60f8      	str	r0, [r7, #12]
 80012f6:	60b9      	str	r1, [r7, #8]
 80012f8:	607a      	str	r2, [r7, #4]
  /* Set bits with content of parameter "Channel" with bits position          */
  /* in register and register position depending on parameter "Rank".         */
  /* Parameters "Rank" and "Channel" are used with masks because containing   */
  /* other bits reserved for other purpose.                                   */
  __IO uint32_t *preg = __ADC_PTR_REG_OFFSET(ADCx->SQR1,
 80012fa:	68fb      	ldr	r3, [r7, #12]
 80012fc:	3330      	adds	r3, #48	@ 0x30
 80012fe:	461a      	mov	r2, r3
 8001300:	68bb      	ldr	r3, [r7, #8]
 8001302:	0a1b      	lsrs	r3, r3, #8
 8001304:	009b      	lsls	r3, r3, #2
 8001306:	f003 030c 	and.w	r3, r3, #12
 800130a:	4413      	add	r3, r2
 800130c:	617b      	str	r3, [r7, #20]
                                             ((Rank & ADC_REG_SQRX_REGOFFSET_MASK) >> ADC_SQRX_REGOFFSET_POS));

  MODIFY_REG(*preg,
 800130e:	697b      	ldr	r3, [r7, #20]
 8001310:	681a      	ldr	r2, [r3, #0]
 8001312:	68bb      	ldr	r3, [r7, #8]
 8001314:	f003 031f 	and.w	r3, r3, #31
 8001318:	211f      	movs	r1, #31
 800131a:	fa01 f303 	lsl.w	r3, r1, r3
 800131e:	43db      	mvns	r3, r3
 8001320:	401a      	ands	r2, r3
 8001322:	687b      	ldr	r3, [r7, #4]
 8001324:	0e9b      	lsrs	r3, r3, #26
 8001326:	f003 011f 	and.w	r1, r3, #31
 800132a:	68bb      	ldr	r3, [r7, #8]
 800132c:	f003 031f 	and.w	r3, r3, #31
 8001330:	fa01 f303 	lsl.w	r3, r1, r3
 8001334:	431a      	orrs	r2, r3
 8001336:	697b      	ldr	r3, [r7, #20]
 8001338:	601a      	str	r2, [r3, #0]
             ADC_CHANNEL_ID_NUMBER_MASK_POSBIT0 << (Rank & ADC_REG_RANK_ID_SQRX_MASK),
             ((Channel & ADC_CHANNEL_ID_NUMBER_MASK) >> ADC_CHANNEL_ID_NUMBER_BITOFFSET_POS)
             << (Rank & ADC_REG_RANK_ID_SQRX_MASK));
}
 800133a:	bf00      	nop
 800133c:	371c      	adds	r7, #28
 800133e:	46bd      	mov	sp, r7
 8001340:	f85d 7b04 	ldr.w	r7, [sp], #4
 8001344:	4770      	bx	lr

08001346 <LL_ADC_INJ_IsTriggerSourceSWStart>:
  * @param  ADCx ADC instance
  * @retval Value "0" if trigger source external trigger
  *         Value "1" if trigger source SW start.
  */
__STATIC_INLINE uint32_t LL_ADC_INJ_IsTriggerSourceSWStart(const ADC_TypeDef *ADCx)
{
 8001346:	b480      	push	{r7}
 8001348:	b083      	sub	sp, #12
 800134a:	af00      	add	r7, sp, #0
 800134c:	6078      	str	r0, [r7, #4]
  return ((READ_BIT(ADCx->JSQR, ADC_JSQR_JEXTEN) == (LL_ADC_INJ_TRIG_SOFTWARE & ADC_JSQR_JEXTEN)) ? 1UL : 0UL);
 800134e:	687b      	ldr	r3, [r7, #4]
 8001350:	6cdb      	ldr	r3, [r3, #76]	@ 0x4c
 8001352:	f403 73c0 	and.w	r3, r3, #384	@ 0x180
 8001356:	2b00      	cmp	r3, #0
 8001358:	d101      	bne.n	800135e <LL_ADC_INJ_IsTriggerSourceSWStart+0x18>
 800135a:	2301      	movs	r3, #1
 800135c:	e000      	b.n	8001360 <LL_ADC_INJ_IsTriggerSourceSWStart+0x1a>
 800135e:	2300      	movs	r3, #0
}
 8001360:	4618      	mov	r0, r3
 8001362:	370c      	adds	r7, #12
 8001364:	46bd      	mov	sp, r7
 8001366:	f85d 7b04 	ldr.w	r7, [sp], #4
 800136a:	4770      	bx	lr

0800136c <LL_ADC_SetChannelSamplingTime>:
  *             can be replaced by 3.5 ADC clock cycles.
  *             Refer to function @ref LL_ADC_SetSamplingTimeCommonConfig().
  * @retval None
  */
__STATIC_INLINE void LL_ADC_SetChannelSamplingTime(ADC_TypeDef *ADCx, uint32_t Channel, uint32_t SamplingTime)
{
 800136c:	b480      	push	{r7}
 800136e:	b087      	sub	sp, #28
 8001370:	af00      	add	r7, sp, #0
 8001372:	60f8      	str	r0, [r7, #12]
 8001374:	60b9      	str	r1, [r7, #8]
 8001376:	607a      	str	r2, [r7, #4]
  /* Set bits with content of parameter "SamplingTime" with bits position     */
  /* in register and register position depending on parameter "Channel".      */
  /* Parameter "Channel" is used with masks because containing                */
  /* other bits reserved for other purpose.                                   */
  __IO uint32_t *preg = __ADC_PTR_REG_OFFSET(ADCx->SMPR1,
 8001378:	68fb      	ldr	r3, [r7, #12]
 800137a:	3314      	adds	r3, #20
 800137c:	461a      	mov	r2, r3
 800137e:	68bb      	ldr	r3, [r7, #8]
 8001380:	0e5b      	lsrs	r3, r3, #25
 8001382:	009b      	lsls	r3, r3, #2
 8001384:	f003 0304 	and.w	r3, r3, #4
 8001388:	4413      	add	r3, r2
 800138a:	617b      	str	r3, [r7, #20]
                                             ((Channel & ADC_CHANNEL_SMPRX_REGOFFSET_MASK) >> ADC_SMPRX_REGOFFSET_POS));

  MODIFY_REG(*preg,
 800138c:	697b      	ldr	r3, [r7, #20]
 800138e:	681a      	ldr	r2, [r3, #0]
 8001390:	68bb      	ldr	r3, [r7, #8]
 8001392:	0d1b      	lsrs	r3, r3, #20
 8001394:	f003 031f 	and.w	r3, r3, #31
 8001398:	2107      	movs	r1, #7
 800139a:	fa01 f303 	lsl.w	r3, r1, r3
 800139e:	43db      	mvns	r3, r3
 80013a0:	401a      	ands	r2, r3
 80013a2:	68bb      	ldr	r3, [r7, #8]
 80013a4:	0d1b      	lsrs	r3, r3, #20
 80013a6:	f003 031f 	and.w	r3, r3, #31
 80013aa:	6879      	ldr	r1, [r7, #4]
 80013ac:	fa01 f303 	lsl.w	r3, r1, r3
 80013b0:	431a      	orrs	r2, r3
 80013b2:	697b      	ldr	r3, [r7, #20]
 80013b4:	601a      	str	r2, [r3, #0]
             ADC_SMPR1_SMP0 << ((Channel & ADC_CHANNEL_SMPx_BITOFFSET_MASK) >> ADC_CHANNEL_SMPx_BITOFFSET_POS),
             SamplingTime   << ((Channel & ADC_CHANNEL_SMPx_BITOFFSET_MASK) >> ADC_CHANNEL_SMPx_BITOFFSET_POS));
}
 80013b6:	bf00      	nop
 80013b8:	371c      	adds	r7, #28
 80013ba:	46bd      	mov	sp, r7
 80013bc:	f85d 7b04 	ldr.w	r7, [sp], #4
 80013c0:	4770      	bx	lr
	...

080013c4 <LL_ADC_SetChannelSingleDiff>:
  *         @arg @ref LL_ADC_SINGLE_ENDED
  *         @arg @ref LL_ADC_DIFFERENTIAL_ENDED
  * @retval None
  */
__STATIC_INLINE void LL_ADC_SetChannelSingleDiff(ADC_TypeDef *ADCx, uint32_t Channel, uint32_t SingleDiff)
{
 80013c4:	b480      	push	{r7}
 80013c6:	b085      	sub	sp, #20
 80013c8:	af00      	add	r7, sp, #0
 80013ca:	60f8      	str	r0, [r7, #12]
 80013cc:	60b9      	str	r1, [r7, #8]
 80013ce:	607a      	str	r2, [r7, #4]
  /* Bits of channels in single or differential mode are set only for         */
  /* differential mode (for single mode, mask of bits allowed to be set is    */
  /* shifted out of range of bits of channels in single or differential mode. */
  MODIFY_REG(ADCx->DIFSEL,
 80013d0:	68fb      	ldr	r3, [r7, #12]
 80013d2:	f8d3 20b0 	ldr.w	r2, [r3, #176]	@ 0xb0
 80013d6:	68bb      	ldr	r3, [r7, #8]
 80013d8:	f3c3 0312 	ubfx	r3, r3, #0, #19
 80013dc:	43db      	mvns	r3, r3
 80013de:	401a      	ands	r2, r3
 80013e0:	687b      	ldr	r3, [r7, #4]
 80013e2:	f003 0318 	and.w	r3, r3, #24
 80013e6:	4908      	ldr	r1, [pc, #32]	@ (8001408 <LL_ADC_SetChannelSingleDiff+0x44>)
 80013e8:	40d9      	lsrs	r1, r3
 80013ea:	68bb      	ldr	r3, [r7, #8]
 80013ec:	400b      	ands	r3, r1
 80013ee:	f3c3 0312 	ubfx	r3, r3, #0, #19
 80013f2:	431a      	orrs	r2, r3
 80013f4:	68fb      	ldr	r3, [r7, #12]
 80013f6:	f8c3 20b0 	str.w	r2, [r3, #176]	@ 0xb0
             Channel & ADC_SINGLEDIFF_CHANNEL_MASK,
             (Channel & ADC_SINGLEDIFF_CHANNEL_MASK)
             & (ADC_DIFSEL_DIFSEL >> (SingleDiff & ADC_SINGLEDIFF_CHANNEL_SHIFT_MASK)));
}
 80013fa:	bf00      	nop
 80013fc:	3714      	adds	r7, #20
 80013fe:	46bd      	mov	sp, r7
 8001400:	f85d 7b04 	ldr.w	r7, [sp], #4
 8001404:	4770      	bx	lr
 8001406:	bf00      	nop
 8001408:	0007ffff 	.word	0x0007ffff

0800140c <LL_ADC_GetMultimode>:
  *         @arg @ref LL_ADC_MULTI_DUAL_REG_SIM_INJ_SIM
  *         @arg @ref LL_ADC_MULTI_DUAL_REG_SIM_INJ_ALT
  *         @arg @ref LL_ADC_MULTI_DUAL_REG_INT_INJ_SIM
  */
__STATIC_INLINE uint32_t LL_ADC_GetMultimode(const ADC_Common_TypeDef *ADCxy_COMMON)
{
 800140c:	b480      	push	{r7}
 800140e:	b083      	sub	sp, #12
 8001410:	af00      	add	r7, sp, #0
 8001412:	6078      	str	r0, [r7, #4]
  return (uint32_t)(READ_BIT(ADCxy_COMMON->CCR, ADC_CCR_DUAL));
 8001414:	687b      	ldr	r3, [r7, #4]
 8001416:	689b      	ldr	r3, [r3, #8]
 8001418:	f003 031f 	and.w	r3, r3, #31
}
 800141c:	4618      	mov	r0, r3
 800141e:	370c      	adds	r7, #12
 8001420:	46bd      	mov	sp, r7
 8001422:	f85d 7b04 	ldr.w	r7, [sp], #4
 8001426:	4770      	bx	lr

08001428 <LL_ADC_GetMultiDMATransfer>:
  *         @arg @ref LL_ADC_MULTI_REG_DMA_LIMIT_RES8_6B
  *         @arg @ref LL_ADC_MULTI_REG_DMA_UNLMT_RES12_10B
  *         @arg @ref LL_ADC_MULTI_REG_DMA_UNLMT_RES8_6B
  */
__STATIC_INLINE uint32_t LL_ADC_GetMultiDMATransfer(const ADC_Common_TypeDef *ADCxy_COMMON)
{
 8001428:	b480      	push	{r7}
 800142a:	b083      	sub	sp, #12
 800142c:	af00      	add	r7, sp, #0
 800142e:	6078      	str	r0, [r7, #4]
  return (uint32_t)(READ_BIT(ADCxy_COMMON->CCR, ADC_CCR_MDMA | ADC_CCR_DMACFG));
 8001430:	687b      	ldr	r3, [r7, #4]
 8001432:	689b      	ldr	r3, [r3, #8]
 8001434:	f403 4360 	and.w	r3, r3, #57344	@ 0xe000
}
 8001438:	4618      	mov	r0, r3
 800143a:	370c      	adds	r7, #12
 800143c:	46bd      	mov	sp, r7
 800143e:	f85d 7b04 	ldr.w	r7, [sp], #4
 8001442:	4770      	bx	lr

08001444 <LL_ADC_DisableDeepPowerDown>:
  * @rmtoll CR       DEEPPWD        LL_ADC_DisableDeepPowerDown
  * @param  ADCx ADC instance
  * @retval None
  */
__STATIC_INLINE void LL_ADC_DisableDeepPowerDown(ADC_TypeDef *ADCx)
{
 8001444:	b480      	push	{r7}
 8001446:	b083      	sub	sp, #12
 8001448:	af00      	add	r7, sp, #0
 800144a:	6078      	str	r0, [r7, #4]
  /* Note: Write register with some additional bits forced to state reset     */
  /*       instead of modifying only the selected bit for this function,      */
  /*       to not interfere with bits with HW property "rs".                  */
  CLEAR_BIT(ADCx->CR, (ADC_CR_DEEPPWD | ADC_CR_BITS_PROPERTY_RS));
 800144c:	687b      	ldr	r3, [r7, #4]
 800144e:	689b      	ldr	r3, [r3, #8]
 8001450:	f023 4320 	bic.w	r3, r3, #2684354560	@ 0xa0000000
 8001454:	f023 033f 	bic.w	r3, r3, #63	@ 0x3f
 8001458:	687a      	ldr	r2, [r7, #4]
 800145a:	6093      	str	r3, [r2, #8]
}
 800145c:	bf00      	nop
 800145e:	370c      	adds	r7, #12
 8001460:	46bd      	mov	sp, r7
 8001462:	f85d 7b04 	ldr.w	r7, [sp], #4
 8001466:	4770      	bx	lr

08001468 <LL_ADC_IsDeepPowerDownEnabled>:
  * @rmtoll CR       DEEPPWD        LL_ADC_IsDeepPowerDownEnabled
  * @param  ADCx ADC instance
  * @retval 0: deep power down is disabled, 1: deep power down is enabled.
  */
__STATIC_INLINE uint32_t LL_ADC_IsDeepPowerDownEnabled(const ADC_TypeDef *ADCx)
{
 8001468:	b480      	push	{r7}
 800146a:	b083      	sub	sp, #12
 800146c:	af00      	add	r7, sp, #0
 800146e:	6078      	str	r0, [r7, #4]
  return ((READ_BIT(ADCx->CR, ADC_CR_DEEPPWD) == (ADC_CR_DEEPPWD)) ? 1UL : 0UL);
 8001470:	687b      	ldr	r3, [r7, #4]
 8001472:	689b      	ldr	r3, [r3, #8]
 8001474:	f003 5300 	and.w	r3, r3, #536870912	@ 0x20000000
 8001478:	f1b3 5f00 	cmp.w	r3, #536870912	@ 0x20000000
 800147c:	d101      	bne.n	8001482 <LL_ADC_IsDeepPowerDownEnabled+0x1a>
 800147e:	2301      	movs	r3, #1
 8001480:	e000      	b.n	8001484 <LL_ADC_IsDeepPowerDownEnabled+0x1c>
 8001482:	2300      	movs	r3, #0
}
 8001484:	4618      	mov	r0, r3
 8001486:	370c      	adds	r7, #12
 8001488:	46bd      	mov	sp, r7
 800148a:	f85d 7b04 	ldr.w	r7, [sp], #4
 800148e:	4770      	bx	lr

08001490 <LL_ADC_EnableInternalRegulator>:
  * @rmtoll CR       ADVREGEN       LL_ADC_EnableInternalRegulator
  * @param  ADCx ADC instance
  * @retval None
  */
__STATIC_INLINE void LL_ADC_EnableInternalRegulator(ADC_TypeDef *ADCx)
{
 8001490:	b480      	push	{r7}
 8001492:	b083      	sub	sp, #12
 8001494:	af00      	add	r7, sp, #0
 8001496:	6078      	str	r0, [r7, #4]
  /* Note: Write register with some additional bits forced to state reset     */
  /*       instead of modifying only the selected bit for this function,      */
  /*       to not interfere with bits with HW property "rs".                  */
  MODIFY_REG(ADCx->CR,
 8001498:	687b      	ldr	r3, [r7, #4]
 800149a:	689b      	ldr	r3, [r3, #8]
 800149c:	f023 4310 	bic.w	r3, r3, #2415919104	@ 0x90000000
 80014a0:	f023 033f 	bic.w	r3, r3, #63	@ 0x3f
 80014a4:	f043 5280 	orr.w	r2, r3, #268435456	@ 0x10000000
 80014a8:	687b      	ldr	r3, [r7, #4]
 80014aa:	609a      	str	r2, [r3, #8]
             ADC_CR_BITS_PROPERTY_RS,
             ADC_CR_ADVREGEN);
}
 80014ac:	bf00      	nop
 80014ae:	370c      	adds	r7, #12
 80014b0:	46bd      	mov	sp, r7
 80014b2:	f85d 7b04 	ldr.w	r7, [sp], #4
 80014b6:	4770      	bx	lr

080014b8 <LL_ADC_IsInternalRegulatorEnabled>:
  * @rmtoll CR       ADVREGEN       LL_ADC_IsInternalRegulatorEnabled
  * @param  ADCx ADC instance
  * @retval 0: internal regulator is disabled, 1: internal regulator is enabled.
  */
__STATIC_INLINE uint32_t LL_ADC_IsInternalRegulatorEnabled(const ADC_TypeDef *ADCx)
{
 80014b8:	b480      	push	{r7}
 80014ba:	b083      	sub	sp, #12
 80014bc:	af00      	add	r7, sp, #0
 80014be:	6078      	str	r0, [r7, #4]
  return ((READ_BIT(ADCx->CR, ADC_CR_ADVREGEN) == (ADC_CR_ADVREGEN)) ? 1UL : 0UL);
 80014c0:	687b      	ldr	r3, [r7, #4]
 80014c2:	689b      	ldr	r3, [r3, #8]
 80014c4:	f003 5380 	and.w	r3, r3, #268435456	@ 0x10000000
 80014c8:	f1b3 5f80 	cmp.w	r3, #268435456	@ 0x10000000
 80014cc:	d101      	bne.n	80014d2 <LL_ADC_IsInternalRegulatorEnabled+0x1a>
 80014ce:	2301      	movs	r3, #1
 80014d0:	e000      	b.n	80014d4 <LL_ADC_IsInternalRegulatorEnabled+0x1c>
 80014d2:	2300      	movs	r3, #0
}
 80014d4:	4618      	mov	r0, r3
 80014d6:	370c      	adds	r7, #12
 80014d8:	46bd      	mov	sp, r7
 80014da:	f85d 7b04 	ldr.w	r7, [sp], #4
 80014de:	4770      	bx	lr

080014e0 <LL_ADC_Enable>:
  * @rmtoll CR       ADEN           LL_ADC_Enable
  * @param  ADCx ADC instance
  * @retval None
  */
__STATIC_INLINE void LL_ADC_Enable(ADC_TypeDef *ADCx)
{
 80014e0:	b480      	push	{r7}
 80014e2:	b083      	sub	sp, #12
 80014e4:	af00      	add	r7, sp, #0
 80014e6:	6078      	str	r0, [r7, #4]
  /* Note: Write register with some additional bits forced to state reset     */
  /*       instead of modifying only the selected bit for this function,      */
  /*       to not interfere with bits with HW property "rs".                  */
  MODIFY_REG(ADCx->CR,
 80014e8:	687b      	ldr	r3, [r7, #4]
 80014ea:	689b      	ldr	r3, [r3, #8]
 80014ec:	f023 4300 	bic.w	r3, r3, #2147483648	@ 0x80000000
 80014f0:	f023 033f 	bic.w	r3, r3, #63	@ 0x3f
 80014f4:	f043 0201 	orr.w	r2, r3, #1
 80014f8:	687b      	ldr	r3, [r7, #4]
 80014fa:	609a      	str	r2, [r3, #8]
             ADC_CR_BITS_PROPERTY_RS,
             ADC_CR_ADEN);
}
 80014fc:	bf00      	nop
 80014fe:	370c      	adds	r7, #12
 8001500:	46bd      	mov	sp, r7
 8001502:	f85d 7b04 	ldr.w	r7, [sp], #4
 8001506:	4770      	bx	lr

08001508 <LL_ADC_IsEnabled>:
  * @rmtoll CR       ADEN           LL_ADC_IsEnabled
  * @param  ADCx ADC instance
  * @retval 0: ADC is disabled, 1: ADC is enabled.
  */
__STATIC_INLINE uint32_t LL_ADC_IsEnabled(const ADC_TypeDef *ADCx)
{
 8001508:	b480      	push	{r7}
 800150a:	b083      	sub	sp, #12
 800150c:	af00      	add	r7, sp, #0
 800150e:	6078      	str	r0, [r7, #4]
  return ((READ_BIT(ADCx->CR, ADC_CR_ADEN) == (ADC_CR_ADEN)) ? 1UL : 0UL);
 8001510:	687b      	ldr	r3, [r7, #4]
 8001512:	689b      	ldr	r3, [r3, #8]
 8001514:	f003 0301 	and.w	r3, r3, #1
 8001518:	2b01      	cmp	r3, #1
 800151a:	d101      	bne.n	8001520 <LL_ADC_IsEnabled+0x18>
 800151c:	2301      	movs	r3, #1
 800151e:	e000      	b.n	8001522 <LL_ADC_IsEnabled+0x1a>
 8001520:	2300      	movs	r3, #0
}
 8001522:	4618      	mov	r0, r3
 8001524:	370c      	adds	r7, #12
 8001526:	46bd      	mov	sp, r7
 8001528:	f85d 7b04 	ldr.w	r7, [sp], #4
 800152c:	4770      	bx	lr

0800152e <LL_ADC_REG_StartConversion>:
  * @rmtoll CR       ADSTART        LL_ADC_REG_StartConversion
  * @param  ADCx ADC instance
  * @retval None
  */
__STATIC_INLINE void LL_ADC_REG_StartConversion(ADC_TypeDef *ADCx)
{
 800152e:	b480      	push	{r7}
 8001530:	b083      	sub	sp, #12
 8001532:	af00      	add	r7, sp, #0
 8001534:	6078      	str	r0, [r7, #4]
  /* Note: Write register with some additional bits forced to state reset     */
  /*       instead of modifying only the selected bit for this function,      */
  /*       to not interfere with bits with HW property "rs".                  */
  MODIFY_REG(ADCx->CR,
 8001536:	687b      	ldr	r3, [r7, #4]
 8001538:	689b      	ldr	r3, [r3, #8]
 800153a:	f023 4300 	bic.w	r3, r3, #2147483648	@ 0x80000000
 800153e:	f023 033f 	bic.w	r3, r3, #63	@ 0x3f
 8001542:	f043 0204 	orr.w	r2, r3, #4
 8001546:	687b      	ldr	r3, [r7, #4]
 8001548:	609a      	str	r2, [r3, #8]
             ADC_CR_BITS_PROPERTY_RS,
             ADC_CR_ADSTART);
}
 800154a:	bf00      	nop
 800154c:	370c      	adds	r7, #12
 800154e:	46bd      	mov	sp, r7
 8001550:	f85d 7b04 	ldr.w	r7, [sp], #4
 8001554:	4770      	bx	lr

08001556 <LL_ADC_REG_IsConversionOngoing>:
  * @rmtoll CR       ADSTART        LL_ADC_REG_IsConversionOngoing
  * @param  ADCx ADC instance
  * @retval 0: no conversion is on going on ADC group regular.
  */
__STATIC_INLINE uint32_t LL_ADC_REG_IsConversionOngoing(const ADC_TypeDef *ADCx)
{
 8001556:	b480      	push	{r7}
 8001558:	b083      	sub	sp, #12
 800155a:	af00      	add	r7, sp, #0
 800155c:	6078      	str	r0, [r7, #4]
  return ((READ_BIT(ADCx->CR, ADC_CR_ADSTART) == (ADC_CR_ADSTART)) ? 1UL : 0UL);
 800155e:	687b      	ldr	r3, [r7, #4]
 8001560:	689b      	ldr	r3, [r3, #8]
 8001562:	f003 0304 	and.w	r3, r3, #4
 8001566:	2b04      	cmp	r3, #4
 8001568:	d101      	bne.n	800156e <LL_ADC_REG_IsConversionOngoing+0x18>
 800156a:	2301      	movs	r3, #1
 800156c:	e000      	b.n	8001570 <LL_ADC_REG_IsConversionOngoing+0x1a>
 800156e:	2300      	movs	r3, #0
}
 8001570:	4618      	mov	r0, r3
 8001572:	370c      	adds	r7, #12
 8001574:	46bd      	mov	sp, r7
 8001576:	f85d 7b04 	ldr.w	r7, [sp], #4
 800157a:	4770      	bx	lr

0800157c <LL_ADC_INJ_IsConversionOngoing>:
  * @rmtoll CR       JADSTART       LL_ADC_INJ_IsConversionOngoing
  * @param  ADCx ADC instance
  * @retval 0: no conversion is on going on ADC group injected.
  */
__STATIC_INLINE uint32_t LL_ADC_INJ_IsConversionOngoing(const ADC_TypeDef *ADCx)
{
 800157c:	b480      	push	{r7}
 800157e:	b083      	sub	sp, #12
 8001580:	af00      	add	r7, sp, #0
 8001582:	6078      	str	r0, [r7, #4]
  return ((READ_BIT(ADCx->CR, ADC_CR_JADSTART) == (ADC_CR_JADSTART)) ? 1UL : 0UL);
 8001584:	687b      	ldr	r3, [r7, #4]
 8001586:	689b      	ldr	r3, [r3, #8]
 8001588:	f003 0308 	and.w	r3, r3, #8
 800158c:	2b08      	cmp	r3, #8
 800158e:	d101      	bne.n	8001594 <LL_ADC_INJ_IsConversionOngoing+0x18>
 8001590:	2301      	movs	r3, #1
 8001592:	e000      	b.n	8001596 <LL_ADC_INJ_IsConversionOngoing+0x1a>
 8001594:	2300      	movs	r3, #0
}
 8001596:	4618      	mov	r0, r3
 8001598:	370c      	adds	r7, #12
 800159a:	46bd      	mov	sp, r7
 800159c:	f85d 7b04 	ldr.w	r7, [sp], #4
 80015a0:	4770      	bx	lr
	...

080015a4 <HAL_ADC_Init>:
  *         without  disabling the other ADCs.
  * @param hadc ADC handle
  * @retval HAL status
  */
HAL_StatusTypeDef HAL_ADC_Init(ADC_HandleTypeDef *hadc)
{
 80015a4:	b590      	push	{r4, r7, lr}
 80015a6:	b089      	sub	sp, #36	@ 0x24
 80015a8:	af00      	add	r7, sp, #0
 80015aa:	6078      	str	r0, [r7, #4]
  HAL_StatusTypeDef tmp_hal_status = HAL_OK;
 80015ac:	2300      	movs	r3, #0
 80015ae:	77fb      	strb	r3, [r7, #31]
  uint32_t tmp_cfgr;
  uint32_t tmp_adc_is_conversion_on_going_regular;
  uint32_t tmp_adc_is_conversion_on_going_injected;
  __IO uint32_t wait_loop_index = 0UL;
 80015b0:	2300      	movs	r3, #0
 80015b2:	60fb      	str	r3, [r7, #12]

  /* Check ADC handle */
  if (hadc == NULL)
 80015b4:	687b      	ldr	r3, [r7, #4]
 80015b6:	2b00      	cmp	r3, #0
 80015b8:	d101      	bne.n	80015be <HAL_ADC_Init+0x1a>
  {
    return HAL_ERROR;
 80015ba:	2301      	movs	r3, #1
 80015bc:	e167      	b.n	800188e <HAL_ADC_Init+0x2ea>
  assert_param(IS_ADC_EOC_SELECTION(hadc->Init.EOCSelection));
  assert_param(IS_ADC_OVERRUN(hadc->Init.Overrun));
  assert_param(IS_FUNCTIONAL_STATE(hadc->Init.LowPowerAutoWait));
  assert_param(IS_FUNCTIONAL_STATE(hadc->Init.OversamplingMode));

  if (hadc->Init.ScanConvMode != ADC_SCAN_DISABLE)
 80015be:	687b      	ldr	r3, [r7, #4]
 80015c0:	695b      	ldr	r3, [r3, #20]
 80015c2:	2b00      	cmp	r3, #0
  /* DISCEN and CONT bits cannot be set at the same time */
  assert_param(!((hadc->Init.DiscontinuousConvMode == ENABLE) && (hadc->Init.ContinuousConvMode == ENABLE)));

  /* Actions performed only if ADC is coming from state reset:                */
  /* - Initialization of ADC MSP                                              */
  if (hadc->State == HAL_ADC_STATE_RESET)
 80015c4:	687b      	ldr	r3, [r7, #4]
 80015c6:	6ddb      	ldr	r3, [r3, #92]	@ 0x5c
 80015c8:	2b00      	cmp	r3, #0
 80015ca:	d109      	bne.n	80015e0 <HAL_ADC_Init+0x3c>

    /* Init the low level hardware */
    hadc->MspInitCallback(hadc);
#else
    /* Init the low level hardware */
    HAL_ADC_MspInit(hadc);
 80015cc:	6878      	ldr	r0, [r7, #4]
 80015ce:	f7ff fadb 	bl	8000b88 <HAL_ADC_MspInit>
#endif /* USE_HAL_ADC_REGISTER_CALLBACKS */

    /* Set ADC error code to none */
    ADC_CLEAR_ERRORCODE(hadc);
 80015d2:	687b      	ldr	r3, [r7, #4]
 80015d4:	2200      	movs	r2, #0
 80015d6:	661a      	str	r2, [r3, #96]	@ 0x60

    /* Initialize Lock */
    hadc->Lock = HAL_UNLOCKED;
 80015d8:	687b      	ldr	r3, [r7, #4]
 80015da:	2200      	movs	r2, #0
 80015dc:	f883 2058 	strb.w	r2, [r3, #88]	@ 0x58
  }

  /* - Exit from deep-power-down mode and ADC voltage regulator enable        */
  if (LL_ADC_IsDeepPowerDownEnabled(hadc->Instance) != 0UL)
 80015e0:	687b      	ldr	r3, [r7, #4]
 80015e2:	681b      	ldr	r3, [r3, #0]
 80015e4:	4618      	mov	r0, r3
 80015e6:	f7ff ff3f 	bl	8001468 <LL_ADC_IsDeepPowerDownEnabled>
 80015ea:	4603      	mov	r3, r0
 80015ec:	2b00      	cmp	r3, #0
 80015ee:	d004      	beq.n	80015fa <HAL_ADC_Init+0x56>
  {
    /* Disable ADC deep power down mode */
    LL_ADC_DisableDeepPowerDown(hadc->Instance);
 80015f0:	687b      	ldr	r3, [r7, #4]
 80015f2:	681b      	ldr	r3, [r3, #0]
 80015f4:	4618      	mov	r0, r3
 80015f6:	f7ff ff25 	bl	8001444 <LL_ADC_DisableDeepPowerDown>
    /* System was in deep power down mode, calibration must
     be relaunched or a previously saved calibration factor
     re-applied once the ADC voltage regulator is enabled */
  }

  if (LL_ADC_IsInternalRegulatorEnabled(hadc->Instance) == 0UL)
 80015fa:	687b      	ldr	r3, [r7, #4]
 80015fc:	681b      	ldr	r3, [r3, #0]
 80015fe:	4618      	mov	r0, r3
 8001600:	f7ff ff5a 	bl	80014b8 <LL_ADC_IsInternalRegulatorEnabled>
 8001604:	4603      	mov	r3, r0
 8001606:	2b00      	cmp	r3, #0
 8001608:	d115      	bne.n	8001636 <HAL_ADC_Init+0x92>
  {
    /* Enable ADC internal voltage regulator */
    LL_ADC_EnableInternalRegulator(hadc->Instance);
 800160a:	687b      	ldr	r3, [r7, #4]
 800160c:	681b      	ldr	r3, [r3, #0]
 800160e:	4618      	mov	r0, r3
 8001610:	f7ff ff3e 	bl	8001490 <LL_ADC_EnableInternalRegulator>

    /* Note: Variable divided by 2 to compensate partially              */
    /*       CPU processing cycles, scaling in us split to not          */
    /*       exceed 32 bits register capacity and handle low frequency. */
    wait_loop_index = ((LL_ADC_DELAY_INTERNAL_REGUL_STAB_US / 10UL) * ((SystemCoreClock / (100000UL * 2UL)) + 1UL));
 8001614:	4ba0      	ldr	r3, [pc, #640]	@ (8001898 <HAL_ADC_Init+0x2f4>)
 8001616:	681b      	ldr	r3, [r3, #0]
 8001618:	099b      	lsrs	r3, r3, #6
 800161a:	4aa0      	ldr	r2, [pc, #640]	@ (800189c <HAL_ADC_Init+0x2f8>)
 800161c:	fba2 2303 	umull	r2, r3, r2, r3
 8001620:	099b      	lsrs	r3, r3, #6
 8001622:	3301      	adds	r3, #1
 8001624:	005b      	lsls	r3, r3, #1
 8001626:	60fb      	str	r3, [r7, #12]
    while (wait_loop_index != 0UL)
 8001628:	e002      	b.n	8001630 <HAL_ADC_Init+0x8c>
    {
      wait_loop_index--;
 800162a:	68fb      	ldr	r3, [r7, #12]
 800162c:	3b01      	subs	r3, #1
 800162e:	60fb      	str	r3, [r7, #12]
    while (wait_loop_index != 0UL)
 8001630:	68fb      	ldr	r3, [r7, #12]
 8001632:	2b00      	cmp	r3, #0
 8001634:	d1f9      	bne.n	800162a <HAL_ADC_Init+0x86>
  }

  /* Verification that ADC voltage regulator is correctly enabled, whether    */
  /* or not ADC is coming from state reset (if any potential problem of       */
  /* clocking, voltage regulator would not be enabled).                       */
  if (LL_ADC_IsInternalRegulatorEnabled(hadc->Instance) == 0UL)
 8001636:	687b      	ldr	r3, [r7, #4]
 8001638:	681b      	ldr	r3, [r3, #0]
 800163a:	4618      	mov	r0, r3
 800163c:	f7ff ff3c 	bl	80014b8 <LL_ADC_IsInternalRegulatorEnabled>
 8001640:	4603      	mov	r3, r0
 8001642:	2b00      	cmp	r3, #0
 8001644:	d10d      	bne.n	8001662 <HAL_ADC_Init+0xbe>
  {
    /* Update ADC state machine to error */
    SET_BIT(hadc->State, HAL_ADC_STATE_ERROR_INTERNAL);
 8001646:	687b      	ldr	r3, [r7, #4]
 8001648:	6ddb      	ldr	r3, [r3, #92]	@ 0x5c
 800164a:	f043 0210 	orr.w	r2, r3, #16
 800164e:	687b      	ldr	r3, [r7, #4]
 8001650:	65da      	str	r2, [r3, #92]	@ 0x5c

    /* Set ADC error code to ADC peripheral internal error */
    SET_BIT(hadc->ErrorCode, HAL_ADC_ERROR_INTERNAL);
 8001652:	687b      	ldr	r3, [r7, #4]
 8001654:	6e1b      	ldr	r3, [r3, #96]	@ 0x60
 8001656:	f043 0201 	orr.w	r2, r3, #1
 800165a:	687b      	ldr	r3, [r7, #4]
 800165c:	661a      	str	r2, [r3, #96]	@ 0x60

    tmp_hal_status = HAL_ERROR;
 800165e:	2301      	movs	r3, #1
 8001660:	77fb      	strb	r3, [r7, #31]

  /* Configuration of ADC parameters if previous preliminary actions are      */
  /* correctly completed and if there is no conversion on going on regular    */
  /* group (ADC may already be enabled at this point if HAL_ADC_Init() is     */
  /* called to update a parameter on the fly).                                */
  tmp_adc_is_conversion_on_going_regular = LL_ADC_REG_IsConversionOngoing(hadc->Instance);
 8001662:	687b      	ldr	r3, [r7, #4]
 8001664:	681b      	ldr	r3, [r3, #0]
 8001666:	4618      	mov	r0, r3
 8001668:	f7ff ff75 	bl	8001556 <LL_ADC_REG_IsConversionOngoing>
 800166c:	6178      	str	r0, [r7, #20]

  if (((hadc->State & HAL_ADC_STATE_ERROR_INTERNAL) == 0UL)
 800166e:	687b      	ldr	r3, [r7, #4]
 8001670:	6ddb      	ldr	r3, [r3, #92]	@ 0x5c
 8001672:	f003 0310 	and.w	r3, r3, #16
 8001676:	2b00      	cmp	r3, #0
 8001678:	f040 8100 	bne.w	800187c <HAL_ADC_Init+0x2d8>
      && (tmp_adc_is_conversion_on_going_regular == 0UL)
 800167c:	697b      	ldr	r3, [r7, #20]
 800167e:	2b00      	cmp	r3, #0
 8001680:	f040 80fc 	bne.w	800187c <HAL_ADC_Init+0x2d8>
     )
  {
    /* Set ADC state */
    ADC_STATE_CLR_SET(hadc->State,
 8001684:	687b      	ldr	r3, [r7, #4]
 8001686:	6ddb      	ldr	r3, [r3, #92]	@ 0x5c
 8001688:	f423 7381 	bic.w	r3, r3, #258	@ 0x102
 800168c:	f043 0202 	orr.w	r2, r3, #2
 8001690:	687b      	ldr	r3, [r7, #4]
 8001692:	65da      	str	r2, [r3, #92]	@ 0x5c
    /* Configuration of common ADC parameters                                 */

    /* Parameters update conditioned to ADC state:                            */
    /* Parameters that can be updated only when ADC is disabled:              */
    /*  - clock configuration                                                 */
    if (LL_ADC_IsEnabled(hadc->Instance) == 0UL)
 8001694:	687b      	ldr	r3, [r7, #4]
 8001696:	681b      	ldr	r3, [r3, #0]
 8001698:	4618      	mov	r0, r3
 800169a:	f7ff ff35 	bl	8001508 <LL_ADC_IsEnabled>
 800169e:	4603      	mov	r3, r0
 80016a0:	2b00      	cmp	r3, #0
 80016a2:	d111      	bne.n	80016c8 <HAL_ADC_Init+0x124>
    {
      if (__LL_ADC_IS_ENABLED_ALL_COMMON_INSTANCE(__LL_ADC_COMMON_INSTANCE(hadc->Instance)) == 0UL)
 80016a4:	f04f 40a0 	mov.w	r0, #1342177280	@ 0x50000000
 80016a8:	f7ff ff2e 	bl	8001508 <LL_ADC_IsEnabled>
 80016ac:	4604      	mov	r4, r0
 80016ae:	487c      	ldr	r0, [pc, #496]	@ (80018a0 <HAL_ADC_Init+0x2fc>)
 80016b0:	f7ff ff2a 	bl	8001508 <LL_ADC_IsEnabled>
 80016b4:	4603      	mov	r3, r0
 80016b6:	4323      	orrs	r3, r4
 80016b8:	2b00      	cmp	r3, #0
 80016ba:	d105      	bne.n	80016c8 <HAL_ADC_Init+0x124>
        /*     parameters: MDMA, DMACFG, DELAY, DUAL (set by API                */
        /*     HAL_ADCEx_MultiModeConfigChannel() )                             */
        /*   - internal measurement paths: Vbat, temperature sensor, Vref       */
        /*     (set into HAL_ADC_ConfigChannel() or                             */
        /*     HAL_ADCEx_InjectedConfigChannel() )                              */
        LL_ADC_SetCommonClock(__LL_ADC_COMMON_INSTANCE(hadc->Instance), hadc->Init.ClockPrescaler);
 80016bc:	687b      	ldr	r3, [r7, #4]
 80016be:	685b      	ldr	r3, [r3, #4]
 80016c0:	4619      	mov	r1, r3
 80016c2:	4878      	ldr	r0, [pc, #480]	@ (80018a4 <HAL_ADC_Init+0x300>)
 80016c4:	f7ff fd2e 	bl	8001124 <LL_ADC_SetCommonClock>
    /*  - external trigger polarity                Init.ExternalTrigConvEdge  */
    /*  - continuous conversion mode               Init.ContinuousConvMode    */
    /*  - overrun                                  Init.Overrun               */
    /*  - discontinuous mode                       Init.DiscontinuousConvMode */
    /*  - discontinuous mode channel count         Init.NbrOfDiscConversion   */
    tmp_cfgr  = (ADC_CFGR_CONTINUOUS((uint32_t)hadc->Init.ContinuousConvMode)           |
 80016c8:	687b      	ldr	r3, [r7, #4]
 80016ca:	7f5b      	ldrb	r3, [r3, #29]
 80016cc:	035a      	lsls	r2, r3, #13
                 hadc->Init.Overrun                                                     |
 80016ce:	687b      	ldr	r3, [r7, #4]
 80016d0:	6bdb      	ldr	r3, [r3, #60]	@ 0x3c
    tmp_cfgr  = (ADC_CFGR_CONTINUOUS((uint32_t)hadc->Init.ContinuousConvMode)           |
 80016d2:	431a      	orrs	r2, r3
                 hadc->Init.DataAlign                                                   |
 80016d4:	687b      	ldr	r3, [r7, #4]
 80016d6:	68db      	ldr	r3, [r3, #12]
                 hadc->Init.Overrun                                                     |
 80016d8:	431a      	orrs	r2, r3
                 hadc->Init.Resolution                                                  |
 80016da:	687b      	ldr	r3, [r7, #4]
 80016dc:	689b      	ldr	r3, [r3, #8]
                 hadc->Init.DataAlign                                                   |
 80016de:	431a      	orrs	r2, r3
                 ADC_CFGR_REG_DISCONTINUOUS((uint32_t)hadc->Init.DiscontinuousConvMode));
 80016e0:	687b      	ldr	r3, [r7, #4]
 80016e2:	f893 3024 	ldrb.w	r3, [r3, #36]	@ 0x24
 80016e6:	041b      	lsls	r3, r3, #16
    tmp_cfgr  = (ADC_CFGR_CONTINUOUS((uint32_t)hadc->Init.ContinuousConvMode)           |
 80016e8:	4313      	orrs	r3, r2
 80016ea:	61bb      	str	r3, [r7, #24]

    if (hadc->Init.DiscontinuousConvMode == ENABLE)
 80016ec:	687b      	ldr	r3, [r7, #4]
 80016ee:	f893 3024 	ldrb.w	r3, [r3, #36]	@ 0x24
 80016f2:	2b01      	cmp	r3, #1
 80016f4:	d106      	bne.n	8001704 <HAL_ADC_Init+0x160>
    {
      tmp_cfgr |= ADC_CFGR_DISCONTINUOUS_NUM(hadc->Init.NbrOfDiscConversion);
 80016f6:	687b      	ldr	r3, [r7, #4]
 80016f8:	6a9b      	ldr	r3, [r3, #40]	@ 0x28
 80016fa:	3b01      	subs	r3, #1
 80016fc:	045b      	lsls	r3, r3, #17
 80016fe:	69ba      	ldr	r2, [r7, #24]
 8001700:	4313      	orrs	r3, r2
 8001702:	61bb      	str	r3, [r7, #24]
    /* Enable external trigger if trigger selection is different of software  */
    /* start.                                                                 */
    /* Note: This configuration keeps the hardware feature of parameter       */
    /*       ExternalTrigConvEdge "trigger edge none" equivalent to           */
    /*       software start.                                                  */
    if (hadc->Init.ExternalTrigConv != ADC_SOFTWARE_START)
 8001704:	687b      	ldr	r3, [r7, #4]
 8001706:	6adb      	ldr	r3, [r3, #44]	@ 0x2c
 8001708:	2b00      	cmp	r3, #0
 800170a:	d009      	beq.n	8001720 <HAL_ADC_Init+0x17c>
    {
      tmp_cfgr |= ((hadc->Init.ExternalTrigConv & ADC_CFGR_EXTSEL)
 800170c:	687b      	ldr	r3, [r7, #4]
 800170e:	6adb      	ldr	r3, [r3, #44]	@ 0x2c
 8001710:	f403 7278 	and.w	r2, r3, #992	@ 0x3e0
                   | hadc->Init.ExternalTrigConvEdge
 8001714:	687b      	ldr	r3, [r7, #4]
 8001716:	6b1b      	ldr	r3, [r3, #48]	@ 0x30
 8001718:	4313      	orrs	r3, r2
      tmp_cfgr |= ((hadc->Init.ExternalTrigConv & ADC_CFGR_EXTSEL)
 800171a:	69ba      	ldr	r2, [r7, #24]
 800171c:	4313      	orrs	r3, r2
 800171e:	61bb      	str	r3, [r7, #24]
                  );
    }

    /* Update Configuration Register CFGR */
    MODIFY_REG(hadc->Instance->CFGR, ADC_CFGR_FIELDS_1, tmp_cfgr);
 8001720:	687b      	ldr	r3, [r7, #4]
 8001722:	681b      	ldr	r3, [r3, #0]
 8001724:	68da      	ldr	r2, [r3, #12]
 8001726:	4b60      	ldr	r3, [pc, #384]	@ (80018a8 <HAL_ADC_Init+0x304>)
 8001728:	4013      	ands	r3, r2
 800172a:	687a      	ldr	r2, [r7, #4]
 800172c:	6812      	ldr	r2, [r2, #0]
 800172e:	69b9      	ldr	r1, [r7, #24]
 8001730:	430b      	orrs	r3, r1
 8001732:	60d3      	str	r3, [r2, #12]

    /* Configuration of sampling mode */
    MODIFY_REG(hadc->Instance->CFGR2, ADC_CFGR2_BULB | ADC_CFGR2_SMPTRIG, hadc->Init.SamplingMode);
 8001734:	687b      	ldr	r3, [r7, #4]
 8001736:	681b      	ldr	r3, [r3, #0]
 8001738:	691b      	ldr	r3, [r3, #16]
 800173a:	f023 6140 	bic.w	r1, r3, #201326592	@ 0xc000000
 800173e:	687b      	ldr	r3, [r7, #4]
 8001740:	6b5a      	ldr	r2, [r3, #52]	@ 0x34
 8001742:	687b      	ldr	r3, [r7, #4]
 8001744:	681b      	ldr	r3, [r3, #0]
 8001746:	430a      	orrs	r2, r1
 8001748:	611a      	str	r2, [r3, #16]
    /* conversion on going on regular and injected groups:                    */
    /*  - Gain Compensation               Init.GainCompensation               */
    /*  - DMA continuous request          Init.DMAContinuousRequests          */
    /*  - LowPowerAutoWait feature        Init.LowPowerAutoWait               */
    /*  - Oversampling parameters         Init.Oversampling                   */
    tmp_adc_is_conversion_on_going_injected = LL_ADC_INJ_IsConversionOngoing(hadc->Instance);
 800174a:	687b      	ldr	r3, [r7, #4]
 800174c:	681b      	ldr	r3, [r3, #0]
 800174e:	4618      	mov	r0, r3
 8001750:	f7ff ff14 	bl	800157c <LL_ADC_INJ_IsConversionOngoing>
 8001754:	6138      	str	r0, [r7, #16]
    if ((tmp_adc_is_conversion_on_going_regular == 0UL)
 8001756:	697b      	ldr	r3, [r7, #20]
 8001758:	2b00      	cmp	r3, #0
 800175a:	d16d      	bne.n	8001838 <HAL_ADC_Init+0x294>
        && (tmp_adc_is_conversion_on_going_injected == 0UL)
 800175c:	693b      	ldr	r3, [r7, #16]
 800175e:	2b00      	cmp	r3, #0
 8001760:	d16a      	bne.n	8001838 <HAL_ADC_Init+0x294>
       )
    {
      tmp_cfgr = (ADC_CFGR_DFSDM(hadc)                                            |
                   ADC_CFGR_AUTOWAIT((uint32_t)hadc->Init.LowPowerAutoWait)        |
 8001762:	687b      	ldr	r3, [r7, #4]
 8001764:	7f1b      	ldrb	r3, [r3, #28]
      tmp_cfgr = (ADC_CFGR_DFSDM(hadc)                                            |
 8001766:	039a      	lsls	r2, r3, #14
                   ADC_CFGR_DMACONTREQ((uint32_t)hadc->Init.DMAContinuousRequests));
 8001768:	687b      	ldr	r3, [r7, #4]
 800176a:	f893 3038 	ldrb.w	r3, [r3, #56]	@ 0x38
 800176e:	005b      	lsls	r3, r3, #1
      tmp_cfgr = (ADC_CFGR_DFSDM(hadc)                                            |
 8001770:	4313      	orrs	r3, r2
 8001772:	61bb      	str	r3, [r7, #24]

      MODIFY_REG(hadc->Instance->CFGR, ADC_CFGR_FIELDS_2, tmp_cfgr);
 8001774:	687b      	ldr	r3, [r7, #4]
 8001776:	681b      	ldr	r3, [r3, #0]
 8001778:	68db      	ldr	r3, [r3, #12]
 800177a:	f423 4380 	bic.w	r3, r3, #16384	@ 0x4000
 800177e:	f023 0302 	bic.w	r3, r3, #2
 8001782:	687a      	ldr	r2, [r7, #4]
 8001784:	6812      	ldr	r2, [r2, #0]
 8001786:	69b9      	ldr	r1, [r7, #24]
 8001788:	430b      	orrs	r3, r1
 800178a:	60d3      	str	r3, [r2, #12]

      if (hadc->Init.GainCompensation != 0UL)
 800178c:	687b      	ldr	r3, [r7, #4]
 800178e:	691b      	ldr	r3, [r3, #16]
 8001790:	2b00      	cmp	r3, #0
 8001792:	d017      	beq.n	80017c4 <HAL_ADC_Init+0x220>
      {
        SET_BIT(hadc->Instance->CFGR2, ADC_CFGR2_GCOMP);
 8001794:	687b      	ldr	r3, [r7, #4]
 8001796:	681b      	ldr	r3, [r3, #0]
 8001798:	691a      	ldr	r2, [r3, #16]
 800179a:	687b      	ldr	r3, [r7, #4]
 800179c:	681b      	ldr	r3, [r3, #0]
 800179e:	f442 3280 	orr.w	r2, r2, #65536	@ 0x10000
 80017a2:	611a      	str	r2, [r3, #16]
        MODIFY_REG(hadc->Instance->GCOMP, ADC_GCOMP_GCOMPCOEFF, hadc->Init.GainCompensation);
 80017a4:	687b      	ldr	r3, [r7, #4]
 80017a6:	681b      	ldr	r3, [r3, #0]
 80017a8:	f8d3 30c0 	ldr.w	r3, [r3, #192]	@ 0xc0
 80017ac:	f423 537f 	bic.w	r3, r3, #16320	@ 0x3fc0
 80017b0:	f023 033f 	bic.w	r3, r3, #63	@ 0x3f
 80017b4:	687a      	ldr	r2, [r7, #4]
 80017b6:	6911      	ldr	r1, [r2, #16]
 80017b8:	687a      	ldr	r2, [r7, #4]
 80017ba:	6812      	ldr	r2, [r2, #0]
 80017bc:	430b      	orrs	r3, r1
 80017be:	f8c2 30c0 	str.w	r3, [r2, #192]	@ 0xc0
 80017c2:	e013      	b.n	80017ec <HAL_ADC_Init+0x248>
      }
      else
      {
        CLEAR_BIT(hadc->Instance->CFGR2, ADC_CFGR2_GCOMP);
 80017c4:	687b      	ldr	r3, [r7, #4]
 80017c6:	681b      	ldr	r3, [r3, #0]
 80017c8:	691a      	ldr	r2, [r3, #16]
 80017ca:	687b      	ldr	r3, [r7, #4]
 80017cc:	681b      	ldr	r3, [r3, #0]
 80017ce:	f422 3280 	bic.w	r2, r2, #65536	@ 0x10000
 80017d2:	611a      	str	r2, [r3, #16]
        MODIFY_REG(hadc->Instance->GCOMP, ADC_GCOMP_GCOMPCOEFF, 0UL);
 80017d4:	687b      	ldr	r3, [r7, #4]
 80017d6:	681b      	ldr	r3, [r3, #0]
 80017d8:	f8d3 30c0 	ldr.w	r3, [r3, #192]	@ 0xc0
 80017dc:	687a      	ldr	r2, [r7, #4]
 80017de:	6812      	ldr	r2, [r2, #0]
 80017e0:	f423 537f 	bic.w	r3, r3, #16320	@ 0x3fc0
 80017e4:	f023 033f 	bic.w	r3, r3, #63	@ 0x3f
 80017e8:	f8c2 30c0 	str.w	r3, [r2, #192]	@ 0xc0
      }

      if (hadc->Init.OversamplingMode == ENABLE)
 80017ec:	687b      	ldr	r3, [r7, #4]
 80017ee:	f893 3040 	ldrb.w	r3, [r3, #64]	@ 0x40
 80017f2:	2b01      	cmp	r3, #1
 80017f4:	d118      	bne.n	8001828 <HAL_ADC_Init+0x284>
        /* Configuration of Oversampler:                                      */
        /*  - Oversampling Ratio                                              */
        /*  - Right bit shift                                                 */
        /*  - Triggered mode                                                  */
        /*  - Oversampling mode (continued/resumed)                           */
        MODIFY_REG(hadc->Instance->CFGR2,
 80017f6:	687b      	ldr	r3, [r7, #4]
 80017f8:	681b      	ldr	r3, [r3, #0]
 80017fa:	691b      	ldr	r3, [r3, #16]
 80017fc:	f423 63ff 	bic.w	r3, r3, #2040	@ 0x7f8
 8001800:	f023 0304 	bic.w	r3, r3, #4
 8001804:	687a      	ldr	r2, [r7, #4]
 8001806:	6c51      	ldr	r1, [r2, #68]	@ 0x44
 8001808:	687a      	ldr	r2, [r7, #4]
 800180a:	6c92      	ldr	r2, [r2, #72]	@ 0x48
 800180c:	4311      	orrs	r1, r2
 800180e:	687a      	ldr	r2, [r7, #4]
 8001810:	6cd2      	ldr	r2, [r2, #76]	@ 0x4c
 8001812:	4311      	orrs	r1, r2
 8001814:	687a      	ldr	r2, [r7, #4]
 8001816:	6d12      	ldr	r2, [r2, #80]	@ 0x50
 8001818:	430a      	orrs	r2, r1
 800181a:	431a      	orrs	r2, r3
 800181c:	687b      	ldr	r3, [r7, #4]
 800181e:	681b      	ldr	r3, [r3, #0]
 8001820:	f042 0201 	orr.w	r2, r2, #1
 8001824:	611a      	str	r2, [r3, #16]
 8001826:	e007      	b.n	8001838 <HAL_ADC_Init+0x294>
                  );
      }
      else
      {
        /* Disable ADC oversampling scope on ADC group regular */
        CLEAR_BIT(hadc->Instance->CFGR2, ADC_CFGR2_ROVSE);
 8001828:	687b      	ldr	r3, [r7, #4]
 800182a:	681b      	ldr	r3, [r3, #0]
 800182c:	691a      	ldr	r2, [r3, #16]
 800182e:	687b      	ldr	r3, [r7, #4]
 8001830:	681b      	ldr	r3, [r3, #0]
 8001832:	f022 0201 	bic.w	r2, r2, #1
 8001836:	611a      	str	r2, [r3, #16]
    /*   Note: Scan mode is not present by hardware on this device, but       */
    /*   emulated by software for alignment over all STM32 devices.           */
    /* - if scan mode is enabled, regular channels sequence length is set to  */
    /*   parameter "NbrOfConversion".                                         */

    if (hadc->Init.ScanConvMode == ADC_SCAN_ENABLE)
 8001838:	687b      	ldr	r3, [r7, #4]
 800183a:	695b      	ldr	r3, [r3, #20]
 800183c:	2b01      	cmp	r3, #1
 800183e:	d10c      	bne.n	800185a <HAL_ADC_Init+0x2b6>
    {
      /* Set number of ranks in regular group sequencer */
      MODIFY_REG(hadc->Instance->SQR1, ADC_SQR1_L, (hadc->Init.NbrOfConversion - (uint8_t)1));
 8001840:	687b      	ldr	r3, [r7, #4]
 8001842:	681b      	ldr	r3, [r3, #0]
 8001844:	6b1b      	ldr	r3, [r3, #48]	@ 0x30
 8001846:	f023 010f 	bic.w	r1, r3, #15
 800184a:	687b      	ldr	r3, [r7, #4]
 800184c:	6a1b      	ldr	r3, [r3, #32]
 800184e:	1e5a      	subs	r2, r3, #1
 8001850:	687b      	ldr	r3, [r7, #4]
 8001852:	681b      	ldr	r3, [r3, #0]
 8001854:	430a      	orrs	r2, r1
 8001856:	631a      	str	r2, [r3, #48]	@ 0x30
 8001858:	e007      	b.n	800186a <HAL_ADC_Init+0x2c6>
    }
    else
    {
      CLEAR_BIT(hadc->Instance->SQR1, ADC_SQR1_L);
 800185a:	687b      	ldr	r3, [r7, #4]
 800185c:	681b      	ldr	r3, [r3, #0]
 800185e:	6b1a      	ldr	r2, [r3, #48]	@ 0x30
 8001860:	687b      	ldr	r3, [r7, #4]
 8001862:	681b      	ldr	r3, [r3, #0]
 8001864:	f022 020f 	bic.w	r2, r2, #15
 8001868:	631a      	str	r2, [r3, #48]	@ 0x30
    }

    /* Initialize the ADC state */
    /* Clear HAL_ADC_STATE_BUSY_INTERNAL bit, set HAL_ADC_STATE_READY bit */
    ADC_STATE_CLR_SET(hadc->State, HAL_ADC_STATE_BUSY_INTERNAL, HAL_ADC_STATE_READY);
 800186a:	687b      	ldr	r3, [r7, #4]
 800186c:	6ddb      	ldr	r3, [r3, #92]	@ 0x5c
 800186e:	f023 0303 	bic.w	r3, r3, #3
 8001872:	f043 0201 	orr.w	r2, r3, #1
 8001876:	687b      	ldr	r3, [r7, #4]
 8001878:	65da      	str	r2, [r3, #92]	@ 0x5c
 800187a:	e007      	b.n	800188c <HAL_ADC_Init+0x2e8>
  }
  else
  {
    /* Update ADC state machine to error */
    SET_BIT(hadc->State, HAL_ADC_STATE_ERROR_INTERNAL);
 800187c:	687b      	ldr	r3, [r7, #4]
 800187e:	6ddb      	ldr	r3, [r3, #92]	@ 0x5c
 8001880:	f043 0210 	orr.w	r2, r3, #16
 8001884:	687b      	ldr	r3, [r7, #4]
 8001886:	65da      	str	r2, [r3, #92]	@ 0x5c

    tmp_hal_status = HAL_ERROR;
 8001888:	2301      	movs	r3, #1
 800188a:	77fb      	strb	r3, [r7, #31]
  }

  /* Return function status */
  return tmp_hal_status;
 800188c:	7ffb      	ldrb	r3, [r7, #31]
}
 800188e:	4618      	mov	r0, r3
 8001890:	3724      	adds	r7, #36	@ 0x24
 8001892:	46bd      	mov	sp, r7
 8001894:	bd90      	pop	{r4, r7, pc}
 8001896:	bf00      	nop
 8001898:	20000000 	.word	0x20000000
 800189c:	053e2d63 	.word	0x053e2d63
 80018a0:	50000100 	.word	0x50000100
 80018a4:	50000300 	.word	0x50000300
 80018a8:	fff04007 	.word	0xfff04007

080018ac <HAL_ADC_Start_DMA>:
  * @param pData Destination Buffer address.
  * @param Length Number of data to be transferred from ADC peripheral to memory
  * @retval HAL status.
  */
HAL_StatusTypeDef HAL_ADC_Start_DMA(ADC_HandleTypeDef *hadc, uint32_t *pData, uint32_t Length)
{
 80018ac:	b580      	push	{r7, lr}
 80018ae:	b086      	sub	sp, #24
 80018b0:	af00      	add	r7, sp, #0
 80018b2:	60f8      	str	r0, [r7, #12]
 80018b4:	60b9      	str	r1, [r7, #8]
 80018b6:	607a      	str	r2, [r7, #4]
  HAL_StatusTypeDef tmp_hal_status;
#if defined(ADC_MULTIMODE_SUPPORT)
  uint32_t tmp_multimode_config = LL_ADC_GetMultimode(__LL_ADC_COMMON_INSTANCE(hadc->Instance));
 80018b8:	4851      	ldr	r0, [pc, #324]	@ (8001a00 <HAL_ADC_Start_DMA+0x154>)
 80018ba:	f7ff fda7 	bl	800140c <LL_ADC_GetMultimode>
 80018be:	6138      	str	r0, [r7, #16]

  /* Check the parameters */
  assert_param(IS_ADC_ALL_INSTANCE(hadc->Instance));

  /* Perform ADC enable and conversion start if no conversion is on going */
  if (LL_ADC_REG_IsConversionOngoing(hadc->Instance) == 0UL)
 80018c0:	68fb      	ldr	r3, [r7, #12]
 80018c2:	681b      	ldr	r3, [r3, #0]
 80018c4:	4618      	mov	r0, r3
 80018c6:	f7ff fe46 	bl	8001556 <LL_ADC_REG_IsConversionOngoing>
 80018ca:	4603      	mov	r3, r0
 80018cc:	2b00      	cmp	r3, #0
 80018ce:	f040 808f 	bne.w	80019f0 <HAL_ADC_Start_DMA+0x144>
  {
    /* Process locked */
    __HAL_LOCK(hadc);
 80018d2:	68fb      	ldr	r3, [r7, #12]
 80018d4:	f893 3058 	ldrb.w	r3, [r3, #88]	@ 0x58
 80018d8:	2b01      	cmp	r3, #1
 80018da:	d101      	bne.n	80018e0 <HAL_ADC_Start_DMA+0x34>
 80018dc:	2302      	movs	r3, #2
 80018de:	e08a      	b.n	80019f6 <HAL_ADC_Start_DMA+0x14a>
 80018e0:	68fb      	ldr	r3, [r7, #12]
 80018e2:	2201      	movs	r2, #1
 80018e4:	f883 2058 	strb.w	r2, [r3, #88]	@ 0x58

#if defined(ADC_MULTIMODE_SUPPORT)
    /* Ensure that multimode regular conversions are not enabled.   */
    /* Otherwise, dedicated API HAL_ADCEx_MultiModeStart_DMA() must be used.  */
    if ((ADC_IS_INDEPENDENT(hadc) != RESET)
 80018e8:	693b      	ldr	r3, [r7, #16]
 80018ea:	2b00      	cmp	r3, #0
 80018ec:	d005      	beq.n	80018fa <HAL_ADC_Start_DMA+0x4e>
        || (tmp_multimode_config == LL_ADC_MULTI_INDEPENDENT)
        || (tmp_multimode_config == LL_ADC_MULTI_DUAL_INJ_SIMULT)
 80018ee:	693b      	ldr	r3, [r7, #16]
 80018f0:	2b05      	cmp	r3, #5
 80018f2:	d002      	beq.n	80018fa <HAL_ADC_Start_DMA+0x4e>
        || (tmp_multimode_config == LL_ADC_MULTI_DUAL_INJ_ALTERN)
 80018f4:	693b      	ldr	r3, [r7, #16]
 80018f6:	2b09      	cmp	r3, #9
 80018f8:	d173      	bne.n	80019e2 <HAL_ADC_Start_DMA+0x136>
       )
#endif /* ADC_MULTIMODE_SUPPORT */
    {
      /* Enable the ADC peripheral */
      tmp_hal_status = ADC_Enable(hadc);
 80018fa:	68f8      	ldr	r0, [r7, #12]
 80018fc:	f000 feb2 	bl	8002664 <ADC_Enable>
 8001900:	4603      	mov	r3, r0
 8001902:	75fb      	strb	r3, [r7, #23]

      /* Start conversion if ADC is effectively enabled */
      if (tmp_hal_status == HAL_OK)
 8001904:	7dfb      	ldrb	r3, [r7, #23]
 8001906:	2b00      	cmp	r3, #0
 8001908:	d166      	bne.n	80019d8 <HAL_ADC_Start_DMA+0x12c>
      {
        /* Set ADC state                                                        */
        /* - Clear state bitfield related to regular group conversion results   */
        /* - Set state bitfield related to regular operation                    */
        ADC_STATE_CLR_SET(hadc->State,
 800190a:	68fb      	ldr	r3, [r7, #12]
 800190c:	6ddb      	ldr	r3, [r3, #92]	@ 0x5c
 800190e:	f423 6370 	bic.w	r3, r3, #3840	@ 0xf00
 8001912:	f023 0301 	bic.w	r3, r3, #1
 8001916:	f443 7280 	orr.w	r2, r3, #256	@ 0x100
 800191a:	68fb      	ldr	r3, [r7, #12]
 800191c:	65da      	str	r2, [r3, #92]	@ 0x5c

#if defined(ADC_MULTIMODE_SUPPORT)
        /* Reset HAL_ADC_STATE_MULTIMODE_SLAVE bit
          - if ADC instance is master or if multimode feature is not available
          - if multimode setting is disabled (ADC instance slave in independent mode) */
        if ((__LL_ADC_MULTI_INSTANCE_MASTER(hadc->Instance) == hadc->Instance)
 800191e:	68fb      	ldr	r3, [r7, #12]
 8001920:	681b      	ldr	r3, [r3, #0]
 8001922:	4a38      	ldr	r2, [pc, #224]	@ (8001a04 <HAL_ADC_Start_DMA+0x158>)
 8001924:	4293      	cmp	r3, r2
 8001926:	d002      	beq.n	800192e <HAL_ADC_Start_DMA+0x82>
 8001928:	68fb      	ldr	r3, [r7, #12]
 800192a:	681b      	ldr	r3, [r3, #0]
 800192c:	e001      	b.n	8001932 <HAL_ADC_Start_DMA+0x86>
 800192e:	f04f 43a0 	mov.w	r3, #1342177280	@ 0x50000000
 8001932:	68fa      	ldr	r2, [r7, #12]
 8001934:	6812      	ldr	r2, [r2, #0]
 8001936:	4293      	cmp	r3, r2
 8001938:	d002      	beq.n	8001940 <HAL_ADC_Start_DMA+0x94>
            || (tmp_multimode_config == LL_ADC_MULTI_INDEPENDENT)
 800193a:	693b      	ldr	r3, [r7, #16]
 800193c:	2b00      	cmp	r3, #0
 800193e:	d105      	bne.n	800194c <HAL_ADC_Start_DMA+0xa0>
           )
        {
          CLEAR_BIT(hadc->State, HAL_ADC_STATE_MULTIMODE_SLAVE);
 8001940:	68fb      	ldr	r3, [r7, #12]
 8001942:	6ddb      	ldr	r3, [r3, #92]	@ 0x5c
 8001944:	f423 1280 	bic.w	r2, r3, #1048576	@ 0x100000
 8001948:	68fb      	ldr	r3, [r7, #12]
 800194a:	65da      	str	r2, [r3, #92]	@ 0x5c
        }
#endif /* ADC_MULTIMODE_SUPPORT */

        /* Check if a conversion is on going on ADC group injected */
        if ((hadc->State & HAL_ADC_STATE_INJ_BUSY) != 0UL)
 800194c:	68fb      	ldr	r3, [r7, #12]
 800194e:	6ddb      	ldr	r3, [r3, #92]	@ 0x5c
 8001950:	f403 5380 	and.w	r3, r3, #4096	@ 0x1000
 8001954:	2b00      	cmp	r3, #0
 8001956:	d006      	beq.n	8001966 <HAL_ADC_Start_DMA+0xba>
        {
          /* Reset ADC error code fields related to regular conversions only */
          CLEAR_BIT(hadc->ErrorCode, (HAL_ADC_ERROR_OVR | HAL_ADC_ERROR_DMA));
 8001958:	68fb      	ldr	r3, [r7, #12]
 800195a:	6e1b      	ldr	r3, [r3, #96]	@ 0x60
 800195c:	f023 0206 	bic.w	r2, r3, #6
 8001960:	68fb      	ldr	r3, [r7, #12]
 8001962:	661a      	str	r2, [r3, #96]	@ 0x60
 8001964:	e002      	b.n	800196c <HAL_ADC_Start_DMA+0xc0>
        }
        else
        {
          /* Reset all ADC error code fields */
          ADC_CLEAR_ERRORCODE(hadc);
 8001966:	68fb      	ldr	r3, [r7, #12]
 8001968:	2200      	movs	r2, #0
 800196a:	661a      	str	r2, [r3, #96]	@ 0x60
        }

        /* Set the DMA transfer complete callback */
        hadc->DMA_Handle->XferCpltCallback = ADC_DMAConvCplt;
 800196c:	68fb      	ldr	r3, [r7, #12]
 800196e:	6d5b      	ldr	r3, [r3, #84]	@ 0x54
 8001970:	4a25      	ldr	r2, [pc, #148]	@ (8001a08 <HAL_ADC_Start_DMA+0x15c>)
 8001972:	62da      	str	r2, [r3, #44]	@ 0x2c

        /* Set the DMA half transfer complete callback */
        hadc->DMA_Handle->XferHalfCpltCallback = ADC_DMAHalfConvCplt;
 8001974:	68fb      	ldr	r3, [r7, #12]
 8001976:	6d5b      	ldr	r3, [r3, #84]	@ 0x54
 8001978:	4a24      	ldr	r2, [pc, #144]	@ (8001a0c <HAL_ADC_Start_DMA+0x160>)
 800197a:	631a      	str	r2, [r3, #48]	@ 0x30

        /* Set the DMA error callback */
        hadc->DMA_Handle->XferErrorCallback = ADC_DMAError;
 800197c:	68fb      	ldr	r3, [r7, #12]
 800197e:	6d5b      	ldr	r3, [r3, #84]	@ 0x54
 8001980:	4a23      	ldr	r2, [pc, #140]	@ (8001a10 <HAL_ADC_Start_DMA+0x164>)
 8001982:	635a      	str	r2, [r3, #52]	@ 0x34
        /* ADC start (in case of SW start):                                   */

        /* Clear regular group conversion flag and overrun flag               */
        /* (To ensure of no unknown state from potential previous ADC         */
        /* operations)                                                        */
        __HAL_ADC_CLEAR_FLAG(hadc, (ADC_FLAG_EOC | ADC_FLAG_EOS | ADC_FLAG_OVR));
 8001984:	68fb      	ldr	r3, [r7, #12]
 8001986:	681b      	ldr	r3, [r3, #0]
 8001988:	221c      	movs	r2, #28
 800198a:	601a      	str	r2, [r3, #0]

        /* Process unlocked */
        /* Unlock before starting ADC conversions: in case of potential         */
        /* interruption, to let the process to ADC IRQ Handler.                 */
        __HAL_UNLOCK(hadc);
 800198c:	68fb      	ldr	r3, [r7, #12]
 800198e:	2200      	movs	r2, #0
 8001990:	f883 2058 	strb.w	r2, [r3, #88]	@ 0x58

        /* With DMA, overrun event is always considered as an error even if
           hadc->Init.Overrun is set to ADC_OVR_DATA_OVERWRITTEN. Therefore,
           ADC_IT_OVR is enabled. */
        __HAL_ADC_ENABLE_IT(hadc, ADC_IT_OVR);
 8001994:	68fb      	ldr	r3, [r7, #12]
 8001996:	681b      	ldr	r3, [r3, #0]
 8001998:	685a      	ldr	r2, [r3, #4]
 800199a:	68fb      	ldr	r3, [r7, #12]
 800199c:	681b      	ldr	r3, [r3, #0]
 800199e:	f042 0210 	orr.w	r2, r2, #16
 80019a2:	605a      	str	r2, [r3, #4]

        /* Enable ADC DMA mode */
        SET_BIT(hadc->Instance->CFGR, ADC_CFGR_DMAEN);
 80019a4:	68fb      	ldr	r3, [r7, #12]
 80019a6:	681b      	ldr	r3, [r3, #0]
 80019a8:	68da      	ldr	r2, [r3, #12]
 80019aa:	68fb      	ldr	r3, [r7, #12]
 80019ac:	681b      	ldr	r3, [r3, #0]
 80019ae:	f042 0201 	orr.w	r2, r2, #1
 80019b2:	60da      	str	r2, [r3, #12]

        /* Start the DMA channel */
        tmp_hal_status = HAL_DMA_Start_IT(hadc->DMA_Handle, (uint32_t)&hadc->Instance->DR, (uint32_t)pData, Length);
 80019b4:	68fb      	ldr	r3, [r7, #12]
 80019b6:	6d58      	ldr	r0, [r3, #84]	@ 0x54
 80019b8:	68fb      	ldr	r3, [r7, #12]
 80019ba:	681b      	ldr	r3, [r3, #0]
 80019bc:	3340      	adds	r3, #64	@ 0x40
 80019be:	4619      	mov	r1, r3
 80019c0:	68ba      	ldr	r2, [r7, #8]
 80019c2:	687b      	ldr	r3, [r7, #4]
 80019c4:	f001 f952 	bl	8002c6c <HAL_DMA_Start_IT>
 80019c8:	4603      	mov	r3, r0
 80019ca:	75fb      	strb	r3, [r7, #23]
        /* Enable conversion of regular group.                                  */
        /* If software start has been selected, conversion starts immediately.  */
        /* If external trigger has been selected, conversion will start at next */
        /* trigger event.                                                       */
        /* Start ADC group regular conversion */
        LL_ADC_REG_StartConversion(hadc->Instance);
 80019cc:	68fb      	ldr	r3, [r7, #12]
 80019ce:	681b      	ldr	r3, [r3, #0]
 80019d0:	4618      	mov	r0, r3
 80019d2:	f7ff fdac 	bl	800152e <LL_ADC_REG_StartConversion>
      if (tmp_hal_status == HAL_OK)
 80019d6:	e00d      	b.n	80019f4 <HAL_ADC_Start_DMA+0x148>
      }
      else
      {
        /* Process unlocked */
        __HAL_UNLOCK(hadc);
 80019d8:	68fb      	ldr	r3, [r7, #12]
 80019da:	2200      	movs	r2, #0
 80019dc:	f883 2058 	strb.w	r2, [r3, #88]	@ 0x58
      if (tmp_hal_status == HAL_OK)
 80019e0:	e008      	b.n	80019f4 <HAL_ADC_Start_DMA+0x148>

    }
#if defined(ADC_MULTIMODE_SUPPORT)
    else
    {
      tmp_hal_status = HAL_ERROR;
 80019e2:	2301      	movs	r3, #1
 80019e4:	75fb      	strb	r3, [r7, #23]
      /* Process unlocked */
      __HAL_UNLOCK(hadc);
 80019e6:	68fb      	ldr	r3, [r7, #12]
 80019e8:	2200      	movs	r2, #0
 80019ea:	f883 2058 	strb.w	r2, [r3, #88]	@ 0x58
 80019ee:	e001      	b.n	80019f4 <HAL_ADC_Start_DMA+0x148>
    }
#endif /* ADC_MULTIMODE_SUPPORT */
  }
  else
  {
    tmp_hal_status = HAL_BUSY;
 80019f0:	2302      	movs	r3, #2
 80019f2:	75fb      	strb	r3, [r7, #23]
  }

  /* Return function status */
  return tmp_hal_status;
 80019f4:	7dfb      	ldrb	r3, [r7, #23]
}
 80019f6:	4618      	mov	r0, r3
 80019f8:	3718      	adds	r7, #24
 80019fa:	46bd      	mov	sp, r7
 80019fc:	bd80      	pop	{r7, pc}
 80019fe:	bf00      	nop
 8001a00:	50000300 	.word	0x50000300
 8001a04:	50000100 	.word	0x50000100
 8001a08:	08002771 	.word	0x08002771
 8001a0c:	08002849 	.word	0x08002849
 8001a10:	08002865 	.word	0x08002865

08001a14 <HAL_ADC_IRQHandler>:
  * @brief  Handle ADC interrupt request.
  * @param hadc ADC handle
  * @retval None
  */
void HAL_ADC_IRQHandler(ADC_HandleTypeDef *hadc)
{
 8001a14:	b580      	push	{r7, lr}
 8001a16:	b08a      	sub	sp, #40	@ 0x28
 8001a18:	af00      	add	r7, sp, #0
 8001a1a:	6078      	str	r0, [r7, #4]
  uint32_t overrun_error = 0UL; /* flag set if overrun occurrence has to be considered as an error */
 8001a1c:	2300      	movs	r3, #0
 8001a1e:	627b      	str	r3, [r7, #36]	@ 0x24
  uint32_t tmp_isr = hadc->Instance->ISR;
 8001a20:	687b      	ldr	r3, [r7, #4]
 8001a22:	681b      	ldr	r3, [r3, #0]
 8001a24:	681b      	ldr	r3, [r3, #0]
 8001a26:	61fb      	str	r3, [r7, #28]
  uint32_t tmp_ier = hadc->Instance->IER;
 8001a28:	687b      	ldr	r3, [r7, #4]
 8001a2a:	681b      	ldr	r3, [r3, #0]
 8001a2c:	685b      	ldr	r3, [r3, #4]
 8001a2e:	61bb      	str	r3, [r7, #24]
  uint32_t tmp_adc_inj_is_trigger_source_sw_start;
  uint32_t tmp_adc_reg_is_trigger_source_sw_start;
  uint32_t tmp_cfgr;
#if defined(ADC_MULTIMODE_SUPPORT)
  const ADC_TypeDef *tmpADC_Master;
  uint32_t tmp_multimode_config = LL_ADC_GetMultimode(__LL_ADC_COMMON_INSTANCE(hadc->Instance));
 8001a30:	4883      	ldr	r0, [pc, #524]	@ (8001c40 <HAL_ADC_IRQHandler+0x22c>)
 8001a32:	f7ff fceb 	bl	800140c <LL_ADC_GetMultimode>
 8001a36:	6178      	str	r0, [r7, #20]
  /* Check the parameters */
  assert_param(IS_ADC_ALL_INSTANCE(hadc->Instance));
  assert_param(IS_ADC_EOC_SELECTION(hadc->Init.EOCSelection));

  /* ========== Check End of Sampling flag for ADC group regular ========== */
  if (((tmp_isr & ADC_FLAG_EOSMP) == ADC_FLAG_EOSMP) && ((tmp_ier & ADC_IT_EOSMP) == ADC_IT_EOSMP))
 8001a38:	69fb      	ldr	r3, [r7, #28]
 8001a3a:	f003 0302 	and.w	r3, r3, #2
 8001a3e:	2b00      	cmp	r3, #0
 8001a40:	d017      	beq.n	8001a72 <HAL_ADC_IRQHandler+0x5e>
 8001a42:	69bb      	ldr	r3, [r7, #24]
 8001a44:	f003 0302 	and.w	r3, r3, #2
 8001a48:	2b00      	cmp	r3, #0
 8001a4a:	d012      	beq.n	8001a72 <HAL_ADC_IRQHandler+0x5e>
  {
    /* Update state machine on end of sampling status if not in error state */
    if ((hadc->State & HAL_ADC_STATE_ERROR_INTERNAL) == 0UL)
 8001a4c:	687b      	ldr	r3, [r7, #4]
 8001a4e:	6ddb      	ldr	r3, [r3, #92]	@ 0x5c
 8001a50:	f003 0310 	and.w	r3, r3, #16
 8001a54:	2b00      	cmp	r3, #0
 8001a56:	d105      	bne.n	8001a64 <HAL_ADC_IRQHandler+0x50>
    {
      /* Set ADC state */
      SET_BIT(hadc->State, HAL_ADC_STATE_REG_EOSMP);
 8001a58:	687b      	ldr	r3, [r7, #4]
 8001a5a:	6ddb      	ldr	r3, [r3, #92]	@ 0x5c
 8001a5c:	f443 6200 	orr.w	r2, r3, #2048	@ 0x800
 8001a60:	687b      	ldr	r3, [r7, #4]
 8001a62:	65da      	str	r2, [r3, #92]	@ 0x5c

    /* End Of Sampling callback */
#if (USE_HAL_ADC_REGISTER_CALLBACKS == 1)
    hadc->EndOfSamplingCallback(hadc);
#else
    HAL_ADCEx_EndOfSamplingCallback(hadc);
 8001a64:	6878      	ldr	r0, [r7, #4]
 8001a66:	f000 ff3f 	bl	80028e8 <HAL_ADCEx_EndOfSamplingCallback>
#endif /* USE_HAL_ADC_REGISTER_CALLBACKS */

    /* Clear regular group conversion flag */
    __HAL_ADC_CLEAR_FLAG(hadc, ADC_FLAG_EOSMP);
 8001a6a:	687b      	ldr	r3, [r7, #4]
 8001a6c:	681b      	ldr	r3, [r3, #0]
 8001a6e:	2202      	movs	r2, #2
 8001a70:	601a      	str	r2, [r3, #0]
  }

  /* ====== Check ADC group regular end of unitary conversion sequence conversions ===== */
  if ((((tmp_isr & ADC_FLAG_EOC) == ADC_FLAG_EOC) && ((tmp_ier & ADC_IT_EOC) == ADC_IT_EOC)) ||
 8001a72:	69fb      	ldr	r3, [r7, #28]
 8001a74:	f003 0304 	and.w	r3, r3, #4
 8001a78:	2b00      	cmp	r3, #0
 8001a7a:	d004      	beq.n	8001a86 <HAL_ADC_IRQHandler+0x72>
 8001a7c:	69bb      	ldr	r3, [r7, #24]
 8001a7e:	f003 0304 	and.w	r3, r3, #4
 8001a82:	2b00      	cmp	r3, #0
 8001a84:	d10a      	bne.n	8001a9c <HAL_ADC_IRQHandler+0x88>
      (((tmp_isr & ADC_FLAG_EOS) == ADC_FLAG_EOS) && ((tmp_ier & ADC_IT_EOS) == ADC_IT_EOS)))
 8001a86:	69fb      	ldr	r3, [r7, #28]
 8001a88:	f003 0308 	and.w	r3, r3, #8
  if ((((tmp_isr & ADC_FLAG_EOC) == ADC_FLAG_EOC) && ((tmp_ier & ADC_IT_EOC) == ADC_IT_EOC)) ||
 8001a8c:	2b00      	cmp	r3, #0
 8001a8e:	f000 8085 	beq.w	8001b9c <HAL_ADC_IRQHandler+0x188>
      (((tmp_isr & ADC_FLAG_EOS) == ADC_FLAG_EOS) && ((tmp_ier & ADC_IT_EOS) == ADC_IT_EOS)))
 8001a92:	69bb      	ldr	r3, [r7, #24]
 8001a94:	f003 0308 	and.w	r3, r3, #8
 8001a98:	2b00      	cmp	r3, #0
 8001a9a:	d07f      	beq.n	8001b9c <HAL_ADC_IRQHandler+0x188>
  {
    /* Update state machine on conversion status if not in error state */
    if ((hadc->State & HAL_ADC_STATE_ERROR_INTERNAL) == 0UL)
 8001a9c:	687b      	ldr	r3, [r7, #4]
 8001a9e:	6ddb      	ldr	r3, [r3, #92]	@ 0x5c
 8001aa0:	f003 0310 	and.w	r3, r3, #16
 8001aa4:	2b00      	cmp	r3, #0
 8001aa6:	d105      	bne.n	8001ab4 <HAL_ADC_IRQHandler+0xa0>
    {
      /* Set ADC state */
      SET_BIT(hadc->State, HAL_ADC_STATE_REG_EOC);
 8001aa8:	687b      	ldr	r3, [r7, #4]
 8001aaa:	6ddb      	ldr	r3, [r3, #92]	@ 0x5c
 8001aac:	f443 7200 	orr.w	r2, r3, #512	@ 0x200
 8001ab0:	687b      	ldr	r3, [r7, #4]
 8001ab2:	65da      	str	r2, [r3, #92]	@ 0x5c
    }

    /* Determine whether any further conversion upcoming on group regular     */
    /* by external trigger, continuous mode or scan sequence on going         */
    /* to disable interruption.                                               */
    if (LL_ADC_REG_IsTriggerSourceSWStart(hadc->Instance) != 0UL)
 8001ab4:	687b      	ldr	r3, [r7, #4]
 8001ab6:	681b      	ldr	r3, [r3, #0]
 8001ab8:	4618      	mov	r0, r3
 8001aba:	f7ff fc05 	bl	80012c8 <LL_ADC_REG_IsTriggerSourceSWStart>
 8001abe:	4603      	mov	r3, r0
 8001ac0:	2b00      	cmp	r3, #0
 8001ac2:	d064      	beq.n	8001b8e <HAL_ADC_IRQHandler+0x17a>
    {
      /* Get relevant register CFGR in ADC instance of ADC master or slave    */
      /* in function of multimode state (for devices with multimode           */
      /* available).                                                          */
#if defined(ADC_MULTIMODE_SUPPORT)
      if ((__LL_ADC_MULTI_INSTANCE_MASTER(hadc->Instance) == hadc->Instance)
 8001ac4:	687b      	ldr	r3, [r7, #4]
 8001ac6:	681b      	ldr	r3, [r3, #0]
 8001ac8:	4a5e      	ldr	r2, [pc, #376]	@ (8001c44 <HAL_ADC_IRQHandler+0x230>)
 8001aca:	4293      	cmp	r3, r2
 8001acc:	d002      	beq.n	8001ad4 <HAL_ADC_IRQHandler+0xc0>
 8001ace:	687b      	ldr	r3, [r7, #4]
 8001ad0:	681b      	ldr	r3, [r3, #0]
 8001ad2:	e001      	b.n	8001ad8 <HAL_ADC_IRQHandler+0xc4>
 8001ad4:	f04f 43a0 	mov.w	r3, #1342177280	@ 0x50000000
 8001ad8:	687a      	ldr	r2, [r7, #4]
 8001ada:	6812      	ldr	r2, [r2, #0]
 8001adc:	4293      	cmp	r3, r2
 8001ade:	d008      	beq.n	8001af2 <HAL_ADC_IRQHandler+0xde>
          || (tmp_multimode_config == LL_ADC_MULTI_INDEPENDENT)
 8001ae0:	697b      	ldr	r3, [r7, #20]
 8001ae2:	2b00      	cmp	r3, #0
 8001ae4:	d005      	beq.n	8001af2 <HAL_ADC_IRQHandler+0xde>
          || (tmp_multimode_config == LL_ADC_MULTI_DUAL_INJ_SIMULT)
 8001ae6:	697b      	ldr	r3, [r7, #20]
 8001ae8:	2b05      	cmp	r3, #5
 8001aea:	d002      	beq.n	8001af2 <HAL_ADC_IRQHandler+0xde>
          || (tmp_multimode_config == LL_ADC_MULTI_DUAL_INJ_ALTERN)
 8001aec:	697b      	ldr	r3, [r7, #20]
 8001aee:	2b09      	cmp	r3, #9
 8001af0:	d104      	bne.n	8001afc <HAL_ADC_IRQHandler+0xe8>
         )
      {
        /* check CONT bit directly in handle ADC CFGR register */
        tmp_cfgr = READ_REG(hadc->Instance->CFGR);
 8001af2:	687b      	ldr	r3, [r7, #4]
 8001af4:	681b      	ldr	r3, [r3, #0]
 8001af6:	68db      	ldr	r3, [r3, #12]
 8001af8:	623b      	str	r3, [r7, #32]
 8001afa:	e00d      	b.n	8001b18 <HAL_ADC_IRQHandler+0x104>
      }
      else
      {
        /* else need to check Master ADC CONT bit */
        tmpADC_Master = __LL_ADC_MULTI_INSTANCE_MASTER(hadc->Instance);
 8001afc:	687b      	ldr	r3, [r7, #4]
 8001afe:	681b      	ldr	r3, [r3, #0]
 8001b00:	4a50      	ldr	r2, [pc, #320]	@ (8001c44 <HAL_ADC_IRQHandler+0x230>)
 8001b02:	4293      	cmp	r3, r2
 8001b04:	d002      	beq.n	8001b0c <HAL_ADC_IRQHandler+0xf8>
 8001b06:	687b      	ldr	r3, [r7, #4]
 8001b08:	681b      	ldr	r3, [r3, #0]
 8001b0a:	e001      	b.n	8001b10 <HAL_ADC_IRQHandler+0xfc>
 8001b0c:	f04f 43a0 	mov.w	r3, #1342177280	@ 0x50000000
 8001b10:	613b      	str	r3, [r7, #16]
        tmp_cfgr = READ_REG(tmpADC_Master->CFGR);
 8001b12:	693b      	ldr	r3, [r7, #16]
 8001b14:	68db      	ldr	r3, [r3, #12]
 8001b16:	623b      	str	r3, [r7, #32]
#else
      tmp_cfgr = READ_REG(hadc->Instance->CFGR);
#endif /* ADC_MULTIMODE_SUPPORT */

      /* Carry on if continuous mode is disabled */
      if (READ_BIT(tmp_cfgr, ADC_CFGR_CONT) != ADC_CFGR_CONT)
 8001b18:	6a3b      	ldr	r3, [r7, #32]
 8001b1a:	f403 5300 	and.w	r3, r3, #8192	@ 0x2000
 8001b1e:	2b00      	cmp	r3, #0
 8001b20:	d135      	bne.n	8001b8e <HAL_ADC_IRQHandler+0x17a>
      {
        /* If End of Sequence is reached, disable interrupts */
        if (__HAL_ADC_GET_FLAG(hadc, ADC_FLAG_EOS))
 8001b22:	687b      	ldr	r3, [r7, #4]
 8001b24:	681b      	ldr	r3, [r3, #0]
 8001b26:	681b      	ldr	r3, [r3, #0]
 8001b28:	f003 0308 	and.w	r3, r3, #8
 8001b2c:	2b08      	cmp	r3, #8
 8001b2e:	d12e      	bne.n	8001b8e <HAL_ADC_IRQHandler+0x17a>
        {
          /* Allowed to modify bits ADC_IT_EOC/ADC_IT_EOS only if bit         */
          /* ADSTART==0 (no conversion on going)                              */
          if (LL_ADC_REG_IsConversionOngoing(hadc->Instance) == 0UL)
 8001b30:	687b      	ldr	r3, [r7, #4]
 8001b32:	681b      	ldr	r3, [r3, #0]
 8001b34:	4618      	mov	r0, r3
 8001b36:	f7ff fd0e 	bl	8001556 <LL_ADC_REG_IsConversionOngoing>
 8001b3a:	4603      	mov	r3, r0
 8001b3c:	2b00      	cmp	r3, #0
 8001b3e:	d11a      	bne.n	8001b76 <HAL_ADC_IRQHandler+0x162>
          {
            /* Disable ADC end of sequence conversion interrupt */
            /* Note: Overrun interrupt was enabled with EOC interrupt in      */
            /* HAL_Start_IT(), but is not disabled here because can be used   */
            /* by overrun IRQ process below.                                  */
            __HAL_ADC_DISABLE_IT(hadc, ADC_IT_EOC | ADC_IT_EOS);
 8001b40:	687b      	ldr	r3, [r7, #4]
 8001b42:	681b      	ldr	r3, [r3, #0]
 8001b44:	685a      	ldr	r2, [r3, #4]
 8001b46:	687b      	ldr	r3, [r7, #4]
 8001b48:	681b      	ldr	r3, [r3, #0]
 8001b4a:	f022 020c 	bic.w	r2, r2, #12
 8001b4e:	605a      	str	r2, [r3, #4]

            /* Set ADC state */
            CLEAR_BIT(hadc->State, HAL_ADC_STATE_REG_BUSY);
 8001b50:	687b      	ldr	r3, [r7, #4]
 8001b52:	6ddb      	ldr	r3, [r3, #92]	@ 0x5c
 8001b54:	f423 7280 	bic.w	r2, r3, #256	@ 0x100
 8001b58:	687b      	ldr	r3, [r7, #4]
 8001b5a:	65da      	str	r2, [r3, #92]	@ 0x5c

            if ((hadc->State & HAL_ADC_STATE_INJ_BUSY) == 0UL)
 8001b5c:	687b      	ldr	r3, [r7, #4]
 8001b5e:	6ddb      	ldr	r3, [r3, #92]	@ 0x5c
 8001b60:	f403 5380 	and.w	r3, r3, #4096	@ 0x1000
 8001b64:	2b00      	cmp	r3, #0
 8001b66:	d112      	bne.n	8001b8e <HAL_ADC_IRQHandler+0x17a>
            {
              SET_BIT(hadc->State, HAL_ADC_STATE_READY);
 8001b68:	687b      	ldr	r3, [r7, #4]
 8001b6a:	6ddb      	ldr	r3, [r3, #92]	@ 0x5c
 8001b6c:	f043 0201 	orr.w	r2, r3, #1
 8001b70:	687b      	ldr	r3, [r7, #4]
 8001b72:	65da      	str	r2, [r3, #92]	@ 0x5c
 8001b74:	e00b      	b.n	8001b8e <HAL_ADC_IRQHandler+0x17a>
            }
          }
          else
          {
            /* Change ADC state to error state */
            SET_BIT(hadc->State, HAL_ADC_STATE_ERROR_INTERNAL);
 8001b76:	687b      	ldr	r3, [r7, #4]
 8001b78:	6ddb      	ldr	r3, [r3, #92]	@ 0x5c
 8001b7a:	f043 0210 	orr.w	r2, r3, #16
 8001b7e:	687b      	ldr	r3, [r7, #4]
 8001b80:	65da      	str	r2, [r3, #92]	@ 0x5c

            /* Set ADC error code to ADC peripheral internal error */
            SET_BIT(hadc->ErrorCode, HAL_ADC_ERROR_INTERNAL);
 8001b82:	687b      	ldr	r3, [r7, #4]
 8001b84:	6e1b      	ldr	r3, [r3, #96]	@ 0x60
 8001b86:	f043 0201 	orr.w	r2, r3, #1
 8001b8a:	687b      	ldr	r3, [r7, #4]
 8001b8c:	661a      	str	r2, [r3, #96]	@ 0x60
    /*       possibility to use:                                              */
    /*        " if ( __HAL_ADC_GET_FLAG(&hadc, ADC_FLAG_EOS)) "               */
#if (USE_HAL_ADC_REGISTER_CALLBACKS == 1)
    hadc->ConvCpltCallback(hadc);
#else
    HAL_ADC_ConvCpltCallback(hadc);
 8001b8e:	6878      	ldr	r0, [r7, #4]
 8001b90:	f7fe fda8 	bl	80006e4 <HAL_ADC_ConvCpltCallback>
    /* Clear regular group conversion flag */
    /* Note: in case of overrun set to ADC_OVR_DATA_PRESERVED, end of         */
    /*       conversion flags clear induces the release of the preserved data.*/
    /*       Therefore, if the preserved data value is needed, it must be     */
    /*       read preliminarily into HAL_ADC_ConvCpltCallback().              */
    __HAL_ADC_CLEAR_FLAG(hadc, (ADC_FLAG_EOC | ADC_FLAG_EOS));
 8001b94:	687b      	ldr	r3, [r7, #4]
 8001b96:	681b      	ldr	r3, [r3, #0]
 8001b98:	220c      	movs	r2, #12
 8001b9a:	601a      	str	r2, [r3, #0]
  }

  /* ====== Check ADC group injected end of unitary conversion sequence conversions ===== */
  if ((((tmp_isr & ADC_FLAG_JEOC) == ADC_FLAG_JEOC) && ((tmp_ier & ADC_IT_JEOC) == ADC_IT_JEOC)) ||
 8001b9c:	69fb      	ldr	r3, [r7, #28]
 8001b9e:	f003 0320 	and.w	r3, r3, #32
 8001ba2:	2b00      	cmp	r3, #0
 8001ba4:	d004      	beq.n	8001bb0 <HAL_ADC_IRQHandler+0x19c>
 8001ba6:	69bb      	ldr	r3, [r7, #24]
 8001ba8:	f003 0320 	and.w	r3, r3, #32
 8001bac:	2b00      	cmp	r3, #0
 8001bae:	d10b      	bne.n	8001bc8 <HAL_ADC_IRQHandler+0x1b4>
      (((tmp_isr & ADC_FLAG_JEOS) == ADC_FLAG_JEOS) && ((tmp_ier & ADC_IT_JEOS) == ADC_IT_JEOS)))
 8001bb0:	69fb      	ldr	r3, [r7, #28]
 8001bb2:	f003 0340 	and.w	r3, r3, #64	@ 0x40
  if ((((tmp_isr & ADC_FLAG_JEOC) == ADC_FLAG_JEOC) && ((tmp_ier & ADC_IT_JEOC) == ADC_IT_JEOC)) ||
 8001bb6:	2b00      	cmp	r3, #0
 8001bb8:	f000 809e 	beq.w	8001cf8 <HAL_ADC_IRQHandler+0x2e4>
      (((tmp_isr & ADC_FLAG_JEOS) == ADC_FLAG_JEOS) && ((tmp_ier & ADC_IT_JEOS) == ADC_IT_JEOS)))
 8001bbc:	69bb      	ldr	r3, [r7, #24]
 8001bbe:	f003 0340 	and.w	r3, r3, #64	@ 0x40
 8001bc2:	2b00      	cmp	r3, #0
 8001bc4:	f000 8098 	beq.w	8001cf8 <HAL_ADC_IRQHandler+0x2e4>
  {
    /* Update state machine on conversion status if not in error state */
    if ((hadc->State & HAL_ADC_STATE_ERROR_INTERNAL) == 0UL)
 8001bc8:	687b      	ldr	r3, [r7, #4]
 8001bca:	6ddb      	ldr	r3, [r3, #92]	@ 0x5c
 8001bcc:	f003 0310 	and.w	r3, r3, #16
 8001bd0:	2b00      	cmp	r3, #0
 8001bd2:	d105      	bne.n	8001be0 <HAL_ADC_IRQHandler+0x1cc>
    {
      /* Set ADC state */
      SET_BIT(hadc->State, HAL_ADC_STATE_INJ_EOC);
 8001bd4:	687b      	ldr	r3, [r7, #4]
 8001bd6:	6ddb      	ldr	r3, [r3, #92]	@ 0x5c
 8001bd8:	f443 5200 	orr.w	r2, r3, #8192	@ 0x2000
 8001bdc:	687b      	ldr	r3, [r7, #4]
 8001bde:	65da      	str	r2, [r3, #92]	@ 0x5c
    }

    /* Retrieve ADC configuration */
    tmp_adc_inj_is_trigger_source_sw_start = LL_ADC_INJ_IsTriggerSourceSWStart(hadc->Instance);
 8001be0:	687b      	ldr	r3, [r7, #4]
 8001be2:	681b      	ldr	r3, [r3, #0]
 8001be4:	4618      	mov	r0, r3
 8001be6:	f7ff fbae 	bl	8001346 <LL_ADC_INJ_IsTriggerSourceSWStart>
 8001bea:	60f8      	str	r0, [r7, #12]
    tmp_adc_reg_is_trigger_source_sw_start = LL_ADC_REG_IsTriggerSourceSWStart(hadc->Instance);
 8001bec:	687b      	ldr	r3, [r7, #4]
 8001bee:	681b      	ldr	r3, [r3, #0]
 8001bf0:	4618      	mov	r0, r3
 8001bf2:	f7ff fb69 	bl	80012c8 <LL_ADC_REG_IsTriggerSourceSWStart>
 8001bf6:	60b8      	str	r0, [r7, #8]
    /* Get relevant register CFGR in ADC instance of ADC master or slave  */
    /* in function of multimode state (for devices with multimode         */
    /* available).                                                        */
#if defined(ADC_MULTIMODE_SUPPORT)
    if ((__LL_ADC_MULTI_INSTANCE_MASTER(hadc->Instance) == hadc->Instance)
 8001bf8:	687b      	ldr	r3, [r7, #4]
 8001bfa:	681b      	ldr	r3, [r3, #0]
 8001bfc:	4a11      	ldr	r2, [pc, #68]	@ (8001c44 <HAL_ADC_IRQHandler+0x230>)
 8001bfe:	4293      	cmp	r3, r2
 8001c00:	d002      	beq.n	8001c08 <HAL_ADC_IRQHandler+0x1f4>
 8001c02:	687b      	ldr	r3, [r7, #4]
 8001c04:	681b      	ldr	r3, [r3, #0]
 8001c06:	e001      	b.n	8001c0c <HAL_ADC_IRQHandler+0x1f8>
 8001c08:	f04f 43a0 	mov.w	r3, #1342177280	@ 0x50000000
 8001c0c:	687a      	ldr	r2, [r7, #4]
 8001c0e:	6812      	ldr	r2, [r2, #0]
 8001c10:	4293      	cmp	r3, r2
 8001c12:	d008      	beq.n	8001c26 <HAL_ADC_IRQHandler+0x212>
        || (tmp_multimode_config == LL_ADC_MULTI_INDEPENDENT)
 8001c14:	697b      	ldr	r3, [r7, #20]
 8001c16:	2b00      	cmp	r3, #0
 8001c18:	d005      	beq.n	8001c26 <HAL_ADC_IRQHandler+0x212>
        || (tmp_multimode_config == LL_ADC_MULTI_DUAL_REG_SIMULT)
 8001c1a:	697b      	ldr	r3, [r7, #20]
 8001c1c:	2b06      	cmp	r3, #6
 8001c1e:	d002      	beq.n	8001c26 <HAL_ADC_IRQHandler+0x212>
        || (tmp_multimode_config == LL_ADC_MULTI_DUAL_REG_INTERL)
 8001c20:	697b      	ldr	r3, [r7, #20]
 8001c22:	2b07      	cmp	r3, #7
 8001c24:	d104      	bne.n	8001c30 <HAL_ADC_IRQHandler+0x21c>
       )
    {
      tmp_cfgr = READ_REG(hadc->Instance->CFGR);
 8001c26:	687b      	ldr	r3, [r7, #4]
 8001c28:	681b      	ldr	r3, [r3, #0]
 8001c2a:	68db      	ldr	r3, [r3, #12]
 8001c2c:	623b      	str	r3, [r7, #32]
 8001c2e:	e011      	b.n	8001c54 <HAL_ADC_IRQHandler+0x240>
    }
    else
    {
      tmpADC_Master = __LL_ADC_MULTI_INSTANCE_MASTER(hadc->Instance);
 8001c30:	687b      	ldr	r3, [r7, #4]
 8001c32:	681b      	ldr	r3, [r3, #0]
 8001c34:	4a03      	ldr	r2, [pc, #12]	@ (8001c44 <HAL_ADC_IRQHandler+0x230>)
 8001c36:	4293      	cmp	r3, r2
 8001c38:	d006      	beq.n	8001c48 <HAL_ADC_IRQHandler+0x234>
 8001c3a:	687b      	ldr	r3, [r7, #4]
 8001c3c:	681b      	ldr	r3, [r3, #0]
 8001c3e:	e005      	b.n	8001c4c <HAL_ADC_IRQHandler+0x238>
 8001c40:	50000300 	.word	0x50000300
 8001c44:	50000100 	.word	0x50000100
 8001c48:	f04f 43a0 	mov.w	r3, #1342177280	@ 0x50000000
 8001c4c:	613b      	str	r3, [r7, #16]
      tmp_cfgr = READ_REG(tmpADC_Master->CFGR);
 8001c4e:	693b      	ldr	r3, [r7, #16]
 8001c50:	68db      	ldr	r3, [r3, #12]
 8001c52:	623b      	str	r3, [r7, #32]
    /* Disable interruption if no further conversion upcoming by injected     */
    /* external trigger or by automatic injected conversion with regular      */
    /* group having no further conversion upcoming (same conditions as        */
    /* regular group interruption disabling above),                           */
    /* and if injected scan sequence is completed.                            */
    if (tmp_adc_inj_is_trigger_source_sw_start != 0UL)
 8001c54:	68fb      	ldr	r3, [r7, #12]
 8001c56:	2b00      	cmp	r3, #0
 8001c58:	d047      	beq.n	8001cea <HAL_ADC_IRQHandler+0x2d6>
    {
      if ((READ_BIT(tmp_cfgr, ADC_CFGR_JAUTO) == 0UL) ||
 8001c5a:	6a3b      	ldr	r3, [r7, #32]
 8001c5c:	f003 7300 	and.w	r3, r3, #33554432	@ 0x2000000
 8001c60:	2b00      	cmp	r3, #0
 8001c62:	d007      	beq.n	8001c74 <HAL_ADC_IRQHandler+0x260>
 8001c64:	68bb      	ldr	r3, [r7, #8]
 8001c66:	2b00      	cmp	r3, #0
 8001c68:	d03f      	beq.n	8001cea <HAL_ADC_IRQHandler+0x2d6>
          ((tmp_adc_reg_is_trigger_source_sw_start != 0UL) &&
           (READ_BIT(tmp_cfgr, ADC_CFGR_CONT) == 0UL)))
 8001c6a:	6a3b      	ldr	r3, [r7, #32]
 8001c6c:	f403 5300 	and.w	r3, r3, #8192	@ 0x2000
          ((tmp_adc_reg_is_trigger_source_sw_start != 0UL) &&
 8001c70:	2b00      	cmp	r3, #0
 8001c72:	d13a      	bne.n	8001cea <HAL_ADC_IRQHandler+0x2d6>
      {
        /* If End of Sequence is reached, disable interrupts */
        if (__HAL_ADC_GET_FLAG(hadc, ADC_FLAG_JEOS))
 8001c74:	687b      	ldr	r3, [r7, #4]
 8001c76:	681b      	ldr	r3, [r3, #0]
 8001c78:	681b      	ldr	r3, [r3, #0]
 8001c7a:	f003 0340 	and.w	r3, r3, #64	@ 0x40
 8001c7e:	2b40      	cmp	r3, #64	@ 0x40
 8001c80:	d133      	bne.n	8001cea <HAL_ADC_IRQHandler+0x2d6>
          /* when the last context has been fully processed, JSQR is reset      */
          /* by the hardware. Even if no injected conversion is planned to come */
          /* (queue empty, triggers are ignored), it can start again            */
          /* immediately after setting a new context (JADSTART is still set).   */
          /* Therefore, state of HAL ADC injected group is kept to busy.        */
          if (READ_BIT(tmp_cfgr, ADC_CFGR_JQM) == 0UL)
 8001c82:	6a3b      	ldr	r3, [r7, #32]
 8001c84:	f403 1300 	and.w	r3, r3, #2097152	@ 0x200000
 8001c88:	2b00      	cmp	r3, #0
 8001c8a:	d12e      	bne.n	8001cea <HAL_ADC_IRQHandler+0x2d6>
          {
            /* Allowed to modify bits ADC_IT_JEOC/ADC_IT_JEOS only if bit       */
            /* JADSTART==0 (no conversion on going)                             */
            if (LL_ADC_INJ_IsConversionOngoing(hadc->Instance) == 0UL)
 8001c8c:	687b      	ldr	r3, [r7, #4]
 8001c8e:	681b      	ldr	r3, [r3, #0]
 8001c90:	4618      	mov	r0, r3
 8001c92:	f7ff fc73 	bl	800157c <LL_ADC_INJ_IsConversionOngoing>
 8001c96:	4603      	mov	r3, r0
 8001c98:	2b00      	cmp	r3, #0
 8001c9a:	d11a      	bne.n	8001cd2 <HAL_ADC_IRQHandler+0x2be>
            {
              /* Disable ADC end of sequence conversion interrupt  */
              __HAL_ADC_DISABLE_IT(hadc, ADC_IT_JEOC | ADC_IT_JEOS);
 8001c9c:	687b      	ldr	r3, [r7, #4]
 8001c9e:	681b      	ldr	r3, [r3, #0]
 8001ca0:	685a      	ldr	r2, [r3, #4]
 8001ca2:	687b      	ldr	r3, [r7, #4]
 8001ca4:	681b      	ldr	r3, [r3, #0]
 8001ca6:	f022 0260 	bic.w	r2, r2, #96	@ 0x60
 8001caa:	605a      	str	r2, [r3, #4]

              /* Set ADC state */
              CLEAR_BIT(hadc->State, HAL_ADC_STATE_INJ_BUSY);
 8001cac:	687b      	ldr	r3, [r7, #4]
 8001cae:	6ddb      	ldr	r3, [r3, #92]	@ 0x5c
 8001cb0:	f423 5280 	bic.w	r2, r3, #4096	@ 0x1000
 8001cb4:	687b      	ldr	r3, [r7, #4]
 8001cb6:	65da      	str	r2, [r3, #92]	@ 0x5c

              if ((hadc->State & HAL_ADC_STATE_REG_BUSY) == 0UL)
 8001cb8:	687b      	ldr	r3, [r7, #4]
 8001cba:	6ddb      	ldr	r3, [r3, #92]	@ 0x5c
 8001cbc:	f403 7380 	and.w	r3, r3, #256	@ 0x100
 8001cc0:	2b00      	cmp	r3, #0
 8001cc2:	d112      	bne.n	8001cea <HAL_ADC_IRQHandler+0x2d6>
              {
                SET_BIT(hadc->State, HAL_ADC_STATE_READY);
 8001cc4:	687b      	ldr	r3, [r7, #4]
 8001cc6:	6ddb      	ldr	r3, [r3, #92]	@ 0x5c
 8001cc8:	f043 0201 	orr.w	r2, r3, #1
 8001ccc:	687b      	ldr	r3, [r7, #4]
 8001cce:	65da      	str	r2, [r3, #92]	@ 0x5c
 8001cd0:	e00b      	b.n	8001cea <HAL_ADC_IRQHandler+0x2d6>
              }
            }
            else
            {
              /* Update ADC state machine to error */
              SET_BIT(hadc->State, HAL_ADC_STATE_ERROR_INTERNAL);
 8001cd2:	687b      	ldr	r3, [r7, #4]
 8001cd4:	6ddb      	ldr	r3, [r3, #92]	@ 0x5c
 8001cd6:	f043 0210 	orr.w	r2, r3, #16
 8001cda:	687b      	ldr	r3, [r7, #4]
 8001cdc:	65da      	str	r2, [r3, #92]	@ 0x5c

              /* Set ADC error code to ADC peripheral internal error */
              SET_BIT(hadc->ErrorCode, HAL_ADC_ERROR_INTERNAL);
 8001cde:	687b      	ldr	r3, [r7, #4]
 8001ce0:	6e1b      	ldr	r3, [r3, #96]	@ 0x60
 8001ce2:	f043 0201 	orr.w	r2, r3, #1
 8001ce6:	687b      	ldr	r3, [r7, #4]
 8001ce8:	661a      	str	r2, [r3, #96]	@ 0x60
              interruption has been triggered by end of conversion or end of
              sequence.    */
#if (USE_HAL_ADC_REGISTER_CALLBACKS == 1)
    hadc->InjectedConvCpltCallback(hadc);
#else
    HAL_ADCEx_InjectedConvCpltCallback(hadc);
 8001cea:	6878      	ldr	r0, [r7, #4]
 8001cec:	f000 fdd4 	bl	8002898 <HAL_ADCEx_InjectedConvCpltCallback>
#endif /* USE_HAL_ADC_REGISTER_CALLBACKS */

    /* Clear injected group conversion flag */
    __HAL_ADC_CLEAR_FLAG(hadc, ADC_FLAG_JEOC | ADC_FLAG_JEOS);
 8001cf0:	687b      	ldr	r3, [r7, #4]
 8001cf2:	681b      	ldr	r3, [r3, #0]
 8001cf4:	2260      	movs	r2, #96	@ 0x60
 8001cf6:	601a      	str	r2, [r3, #0]
  }

  /* ========== Check Analog watchdog 1 flag ========== */
  if (((tmp_isr & ADC_FLAG_AWD1) == ADC_FLAG_AWD1) && ((tmp_ier & ADC_IT_AWD1) == ADC_IT_AWD1))
 8001cf8:	69fb      	ldr	r3, [r7, #28]
 8001cfa:	f003 0380 	and.w	r3, r3, #128	@ 0x80
 8001cfe:	2b00      	cmp	r3, #0
 8001d00:	d011      	beq.n	8001d26 <HAL_ADC_IRQHandler+0x312>
 8001d02:	69bb      	ldr	r3, [r7, #24]
 8001d04:	f003 0380 	and.w	r3, r3, #128	@ 0x80
 8001d08:	2b00      	cmp	r3, #0
 8001d0a:	d00c      	beq.n	8001d26 <HAL_ADC_IRQHandler+0x312>
  {
    /* Set ADC state */
    SET_BIT(hadc->State, HAL_ADC_STATE_AWD1);
 8001d0c:	687b      	ldr	r3, [r7, #4]
 8001d0e:	6ddb      	ldr	r3, [r3, #92]	@ 0x5c
 8001d10:	f443 3280 	orr.w	r2, r3, #65536	@ 0x10000
 8001d14:	687b      	ldr	r3, [r7, #4]
 8001d16:	65da      	str	r2, [r3, #92]	@ 0x5c

    /* Level out of window 1 callback */
#if (USE_HAL_ADC_REGISTER_CALLBACKS == 1)
    hadc->LevelOutOfWindowCallback(hadc);
#else
    HAL_ADC_LevelOutOfWindowCallback(hadc);
 8001d18:	6878      	ldr	r0, [r7, #4]
 8001d1a:	f000 f89f 	bl	8001e5c <HAL_ADC_LevelOutOfWindowCallback>
#endif /* USE_HAL_ADC_REGISTER_CALLBACKS */

    /* Clear ADC analog watchdog flag */
    __HAL_ADC_CLEAR_FLAG(hadc, ADC_FLAG_AWD1);
 8001d1e:	687b      	ldr	r3, [r7, #4]
 8001d20:	681b      	ldr	r3, [r3, #0]
 8001d22:	2280      	movs	r2, #128	@ 0x80
 8001d24:	601a      	str	r2, [r3, #0]
  }

  /* ========== Check analog watchdog 2 flag ========== */
  if (((tmp_isr & ADC_FLAG_AWD2) == ADC_FLAG_AWD2) && ((tmp_ier & ADC_IT_AWD2) == ADC_IT_AWD2))
 8001d26:	69fb      	ldr	r3, [r7, #28]
 8001d28:	f403 7380 	and.w	r3, r3, #256	@ 0x100
 8001d2c:	2b00      	cmp	r3, #0
 8001d2e:	d012      	beq.n	8001d56 <HAL_ADC_IRQHandler+0x342>
 8001d30:	69bb      	ldr	r3, [r7, #24]
 8001d32:	f403 7380 	and.w	r3, r3, #256	@ 0x100
 8001d36:	2b00      	cmp	r3, #0
 8001d38:	d00d      	beq.n	8001d56 <HAL_ADC_IRQHandler+0x342>
  {
    /* Set ADC state */
    SET_BIT(hadc->State, HAL_ADC_STATE_AWD2);
 8001d3a:	687b      	ldr	r3, [r7, #4]
 8001d3c:	6ddb      	ldr	r3, [r3, #92]	@ 0x5c
 8001d3e:	f443 3200 	orr.w	r2, r3, #131072	@ 0x20000
 8001d42:	687b      	ldr	r3, [r7, #4]
 8001d44:	65da      	str	r2, [r3, #92]	@ 0x5c

    /* Level out of window 2 callback */
#if (USE_HAL_ADC_REGISTER_CALLBACKS == 1)
    hadc->LevelOutOfWindow2Callback(hadc);
#else
    HAL_ADCEx_LevelOutOfWindow2Callback(hadc);
 8001d46:	6878      	ldr	r0, [r7, #4]
 8001d48:	f000 fdba 	bl	80028c0 <HAL_ADCEx_LevelOutOfWindow2Callback>
#endif /* USE_HAL_ADC_REGISTER_CALLBACKS */

    /* Clear ADC analog watchdog flag */
    __HAL_ADC_CLEAR_FLAG(hadc, ADC_FLAG_AWD2);
 8001d4c:	687b      	ldr	r3, [r7, #4]
 8001d4e:	681b      	ldr	r3, [r3, #0]
 8001d50:	f44f 7280 	mov.w	r2, #256	@ 0x100
 8001d54:	601a      	str	r2, [r3, #0]
  }

  /* ========== Check analog watchdog 3 flag ========== */
  if (((tmp_isr & ADC_FLAG_AWD3) == ADC_FLAG_AWD3) && ((tmp_ier & ADC_IT_AWD3) == ADC_IT_AWD3))
 8001d56:	69fb      	ldr	r3, [r7, #28]
 8001d58:	f403 7300 	and.w	r3, r3, #512	@ 0x200
 8001d5c:	2b00      	cmp	r3, #0
 8001d5e:	d012      	beq.n	8001d86 <HAL_ADC_IRQHandler+0x372>
 8001d60:	69bb      	ldr	r3, [r7, #24]
 8001d62:	f403 7300 	and.w	r3, r3, #512	@ 0x200
 8001d66:	2b00      	cmp	r3, #0
 8001d68:	d00d      	beq.n	8001d86 <HAL_ADC_IRQHandler+0x372>
  {
    /* Set ADC state */
    SET_BIT(hadc->State, HAL_ADC_STATE_AWD3);
 8001d6a:	687b      	ldr	r3, [r7, #4]
 8001d6c:	6ddb      	ldr	r3, [r3, #92]	@ 0x5c
 8001d6e:	f443 2280 	orr.w	r2, r3, #262144	@ 0x40000
 8001d72:	687b      	ldr	r3, [r7, #4]
 8001d74:	65da      	str	r2, [r3, #92]	@ 0x5c

    /* Level out of window 3 callback */
#if (USE_HAL_ADC_REGISTER_CALLBACKS == 1)
    hadc->LevelOutOfWindow3Callback(hadc);
#else
    HAL_ADCEx_LevelOutOfWindow3Callback(hadc);
 8001d76:	6878      	ldr	r0, [r7, #4]
 8001d78:	f000 fdac 	bl	80028d4 <HAL_ADCEx_LevelOutOfWindow3Callback>
#endif /* USE_HAL_ADC_REGISTER_CALLBACKS */

    /* Clear ADC analog watchdog flag */
    __HAL_ADC_CLEAR_FLAG(hadc, ADC_FLAG_AWD3);
 8001d7c:	687b      	ldr	r3, [r7, #4]
 8001d7e:	681b      	ldr	r3, [r3, #0]
 8001d80:	f44f 7200 	mov.w	r2, #512	@ 0x200
 8001d84:	601a      	str	r2, [r3, #0]
  }

  /* ========== Check Overrun flag ========== */
  if (((tmp_isr & ADC_FLAG_OVR) == ADC_FLAG_OVR) && ((tmp_ier & ADC_IT_OVR) == ADC_IT_OVR))
 8001d86:	69fb      	ldr	r3, [r7, #28]
 8001d88:	f003 0310 	and.w	r3, r3, #16
 8001d8c:	2b00      	cmp	r3, #0
 8001d8e:	d036      	beq.n	8001dfe <HAL_ADC_IRQHandler+0x3ea>
 8001d90:	69bb      	ldr	r3, [r7, #24]
 8001d92:	f003 0310 	and.w	r3, r3, #16
 8001d96:	2b00      	cmp	r3, #0
 8001d98:	d031      	beq.n	8001dfe <HAL_ADC_IRQHandler+0x3ea>
    /* overrun event is not considered as an error.                           */
    /* (cf ref manual "Managing conversions without using the DMA and without */
    /* overrun ")                                                             */
    /* Exception for usage with DMA overrun event always considered as an     */
    /* error.                                                                 */
    if (hadc->Init.Overrun == ADC_OVR_DATA_PRESERVED)
 8001d9a:	687b      	ldr	r3, [r7, #4]
 8001d9c:	6bdb      	ldr	r3, [r3, #60]	@ 0x3c
 8001d9e:	2b00      	cmp	r3, #0
 8001da0:	d102      	bne.n	8001da8 <HAL_ADC_IRQHandler+0x394>
    {
      overrun_error = 1UL;
 8001da2:	2301      	movs	r3, #1
 8001da4:	627b      	str	r3, [r7, #36]	@ 0x24
 8001da6:	e014      	b.n	8001dd2 <HAL_ADC_IRQHandler+0x3be>
    }
    else
    {
      /* Check DMA configuration */
#if defined(ADC_MULTIMODE_SUPPORT)
      if (tmp_multimode_config != LL_ADC_MULTI_INDEPENDENT)
 8001da8:	697b      	ldr	r3, [r7, #20]
 8001daa:	2b00      	cmp	r3, #0
 8001dac:	d008      	beq.n	8001dc0 <HAL_ADC_IRQHandler+0x3ac>
      {
        /* Multimode (when feature is available) is enabled,
           Common Control Register MDMA bits must be checked. */
        if (LL_ADC_GetMultiDMATransfer(__LL_ADC_COMMON_INSTANCE(hadc->Instance)) != LL_ADC_MULTI_REG_DMA_EACH_ADC)
 8001dae:	4825      	ldr	r0, [pc, #148]	@ (8001e44 <HAL_ADC_IRQHandler+0x430>)
 8001db0:	f7ff fb3a 	bl	8001428 <LL_ADC_GetMultiDMATransfer>
 8001db4:	4603      	mov	r3, r0
 8001db6:	2b00      	cmp	r3, #0
 8001db8:	d00b      	beq.n	8001dd2 <HAL_ADC_IRQHandler+0x3be>
        {
          overrun_error = 1UL;
 8001dba:	2301      	movs	r3, #1
 8001dbc:	627b      	str	r3, [r7, #36]	@ 0x24
 8001dbe:	e008      	b.n	8001dd2 <HAL_ADC_IRQHandler+0x3be>
      }
      else
#endif /* ADC_MULTIMODE_SUPPORT */
      {
        /* Multimode not set or feature not available or ADC independent */
        if ((hadc->Instance->CFGR & ADC_CFGR_DMAEN) != 0UL)
 8001dc0:	687b      	ldr	r3, [r7, #4]
 8001dc2:	681b      	ldr	r3, [r3, #0]
 8001dc4:	68db      	ldr	r3, [r3, #12]
 8001dc6:	f003 0301 	and.w	r3, r3, #1
 8001dca:	2b00      	cmp	r3, #0
 8001dcc:	d001      	beq.n	8001dd2 <HAL_ADC_IRQHandler+0x3be>
        {
          overrun_error = 1UL;
 8001dce:	2301      	movs	r3, #1
 8001dd0:	627b      	str	r3, [r7, #36]	@ 0x24
        }
      }
    }

    if (overrun_error == 1UL)
 8001dd2:	6a7b      	ldr	r3, [r7, #36]	@ 0x24
 8001dd4:	2b01      	cmp	r3, #1
 8001dd6:	d10e      	bne.n	8001df6 <HAL_ADC_IRQHandler+0x3e2>
    {
      /* Change ADC state to error state */
      SET_BIT(hadc->State, HAL_ADC_STATE_REG_OVR);
 8001dd8:	687b      	ldr	r3, [r7, #4]
 8001dda:	6ddb      	ldr	r3, [r3, #92]	@ 0x5c
 8001ddc:	f443 6280 	orr.w	r2, r3, #1024	@ 0x400
 8001de0:	687b      	ldr	r3, [r7, #4]
 8001de2:	65da      	str	r2, [r3, #92]	@ 0x5c

      /* Set ADC error code to overrun */
      SET_BIT(hadc->ErrorCode, HAL_ADC_ERROR_OVR);
 8001de4:	687b      	ldr	r3, [r7, #4]
 8001de6:	6e1b      	ldr	r3, [r3, #96]	@ 0x60
 8001de8:	f043 0202 	orr.w	r2, r3, #2
 8001dec:	687b      	ldr	r3, [r7, #4]
 8001dee:	661a      	str	r2, [r3, #96]	@ 0x60
      /*       Therefore, old ADC conversion data can be retrieved in         */
      /*       function "HAL_ADC_ErrorCallback()".                            */
#if (USE_HAL_ADC_REGISTER_CALLBACKS == 1)
      hadc->ErrorCallback(hadc);
#else
      HAL_ADC_ErrorCallback(hadc);
 8001df0:	6878      	ldr	r0, [r7, #4]
 8001df2:	f000 f83d 	bl	8001e70 <HAL_ADC_ErrorCallback>
#endif /* USE_HAL_ADC_REGISTER_CALLBACKS */
    }

    /* Clear ADC overrun flag */
    __HAL_ADC_CLEAR_FLAG(hadc, ADC_FLAG_OVR);
 8001df6:	687b      	ldr	r3, [r7, #4]
 8001df8:	681b      	ldr	r3, [r3, #0]
 8001dfa:	2210      	movs	r2, #16
 8001dfc:	601a      	str	r2, [r3, #0]
  }

  /* ========== Check Injected context queue overflow flag ========== */
  if (((tmp_isr & ADC_FLAG_JQOVF) == ADC_FLAG_JQOVF) && ((tmp_ier & ADC_IT_JQOVF) == ADC_IT_JQOVF))
 8001dfe:	69fb      	ldr	r3, [r7, #28]
 8001e00:	f403 6380 	and.w	r3, r3, #1024	@ 0x400
 8001e04:	2b00      	cmp	r3, #0
 8001e06:	d018      	beq.n	8001e3a <HAL_ADC_IRQHandler+0x426>
 8001e08:	69bb      	ldr	r3, [r7, #24]
 8001e0a:	f403 6380 	and.w	r3, r3, #1024	@ 0x400
 8001e0e:	2b00      	cmp	r3, #0
 8001e10:	d013      	beq.n	8001e3a <HAL_ADC_IRQHandler+0x426>
  {
    /* Change ADC state to overrun state */
    SET_BIT(hadc->State, HAL_ADC_STATE_INJ_JQOVF);
 8001e12:	687b      	ldr	r3, [r7, #4]
 8001e14:	6ddb      	ldr	r3, [r3, #92]	@ 0x5c
 8001e16:	f443 4280 	orr.w	r2, r3, #16384	@ 0x4000
 8001e1a:	687b      	ldr	r3, [r7, #4]
 8001e1c:	65da      	str	r2, [r3, #92]	@ 0x5c

    /* Set ADC error code to Injected context queue overflow */
    SET_BIT(hadc->ErrorCode, HAL_ADC_ERROR_JQOVF);
 8001e1e:	687b      	ldr	r3, [r7, #4]
 8001e20:	6e1b      	ldr	r3, [r3, #96]	@ 0x60
 8001e22:	f043 0208 	orr.w	r2, r3, #8
 8001e26:	687b      	ldr	r3, [r7, #4]
 8001e28:	661a      	str	r2, [r3, #96]	@ 0x60

    /* Clear the Injected context queue overflow flag */
    __HAL_ADC_CLEAR_FLAG(hadc, ADC_FLAG_JQOVF);
 8001e2a:	687b      	ldr	r3, [r7, #4]
 8001e2c:	681b      	ldr	r3, [r3, #0]
 8001e2e:	f44f 6280 	mov.w	r2, #1024	@ 0x400
 8001e32:	601a      	str	r2, [r3, #0]

    /* Injected context queue overflow callback */
#if (USE_HAL_ADC_REGISTER_CALLBACKS == 1)
    hadc->InjectedQueueOverflowCallback(hadc);
#else
    HAL_ADCEx_InjectedQueueOverflowCallback(hadc);
 8001e34:	6878      	ldr	r0, [r7, #4]
 8001e36:	f000 fd39 	bl	80028ac <HAL_ADCEx_InjectedQueueOverflowCallback>
#endif /* USE_HAL_ADC_REGISTER_CALLBACKS */
  }

}
 8001e3a:	bf00      	nop
 8001e3c:	3728      	adds	r7, #40	@ 0x28
 8001e3e:	46bd      	mov	sp, r7
 8001e40:	bd80      	pop	{r7, pc}
 8001e42:	bf00      	nop
 8001e44:	50000300 	.word	0x50000300

08001e48 <HAL_ADC_ConvHalfCpltCallback>:
  * @brief  Conversion DMA half-transfer callback in non-blocking mode.
  * @param hadc ADC handle
  * @retval None
  */
__weak void HAL_ADC_ConvHalfCpltCallback(ADC_HandleTypeDef *hadc)
{
 8001e48:	b480      	push	{r7}
 8001e4a:	b083      	sub	sp, #12
 8001e4c:	af00      	add	r7, sp, #0
 8001e4e:	6078      	str	r0, [r7, #4]
  UNUSED(hadc);

  /* NOTE : This function should not be modified. When the callback is needed,
            function HAL_ADC_ConvHalfCpltCallback must be implemented in the user file.
  */
}
 8001e50:	bf00      	nop
 8001e52:	370c      	adds	r7, #12
 8001e54:	46bd      	mov	sp, r7
 8001e56:	f85d 7b04 	ldr.w	r7, [sp], #4
 8001e5a:	4770      	bx	lr

08001e5c <HAL_ADC_LevelOutOfWindowCallback>:
  * @brief  Analog watchdog 1 callback in non-blocking mode.
  * @param hadc ADC handle
  * @retval None
  */
__weak void HAL_ADC_LevelOutOfWindowCallback(ADC_HandleTypeDef *hadc)
{
 8001e5c:	b480      	push	{r7}
 8001e5e:	b083      	sub	sp, #12
 8001e60:	af00      	add	r7, sp, #0
 8001e62:	6078      	str	r0, [r7, #4]
  UNUSED(hadc);

  /* NOTE : This function should not be modified. When the callback is needed,
            function HAL_ADC_LevelOutOfWindowCallback must be implemented in the user file.
  */
}
 8001e64:	bf00      	nop
 8001e66:	370c      	adds	r7, #12
 8001e68:	46bd      	mov	sp, r7
 8001e6a:	f85d 7b04 	ldr.w	r7, [sp], #4
 8001e6e:	4770      	bx	lr

08001e70 <HAL_ADC_ErrorCallback>:
  *           (this function is also clearing overrun flag)
  * @param hadc ADC handle
  * @retval None
  */
__weak void HAL_ADC_ErrorCallback(ADC_HandleTypeDef *hadc)
{
 8001e70:	b480      	push	{r7}
 8001e72:	b083      	sub	sp, #12
 8001e74:	af00      	add	r7, sp, #0
 8001e76:	6078      	str	r0, [r7, #4]
  UNUSED(hadc);

  /* NOTE : This function should not be modified. When the callback is needed,
            function HAL_ADC_ErrorCallback must be implemented in the user file.
  */
}
 8001e78:	bf00      	nop
 8001e7a:	370c      	adds	r7, #12
 8001e7c:	46bd      	mov	sp, r7
 8001e7e:	f85d 7b04 	ldr.w	r7, [sp], #4
 8001e82:	4770      	bx	lr

08001e84 <HAL_ADC_ConfigChannel>:
  * @param hadc ADC handle
  * @param pConfig Structure of ADC channel assigned to ADC group regular.
  * @retval HAL status
  */
HAL_StatusTypeDef HAL_ADC_ConfigChannel(ADC_HandleTypeDef *hadc, const ADC_ChannelConfTypeDef *pConfig)
{
 8001e84:	b580      	push	{r7, lr}
 8001e86:	b0b6      	sub	sp, #216	@ 0xd8
 8001e88:	af00      	add	r7, sp, #0
 8001e8a:	6078      	str	r0, [r7, #4]
 8001e8c:	6039      	str	r1, [r7, #0]
  HAL_StatusTypeDef tmp_hal_status = HAL_OK;
 8001e8e:	2300      	movs	r3, #0
 8001e90:	f887 30d7 	strb.w	r3, [r7, #215]	@ 0xd7
  uint32_t tmpOffsetShifted;
  uint32_t tmp_config_internal_channel;
  __IO uint32_t wait_loop_index = 0UL;
 8001e94:	2300      	movs	r3, #0
 8001e96:	60fb      	str	r3, [r7, #12]
  {
    assert_param(IS_ADC_DIFF_CHANNEL(hadc, pConfig->Channel));
  }

  /* Process locked */
  __HAL_LOCK(hadc);
 8001e98:	687b      	ldr	r3, [r7, #4]
 8001e9a:	f893 3058 	ldrb.w	r3, [r3, #88]	@ 0x58
 8001e9e:	2b01      	cmp	r3, #1
 8001ea0:	d101      	bne.n	8001ea6 <HAL_ADC_ConfigChannel+0x22>
 8001ea2:	2302      	movs	r3, #2
 8001ea4:	e3c8      	b.n	8002638 <HAL_ADC_ConfigChannel+0x7b4>
 8001ea6:	687b      	ldr	r3, [r7, #4]
 8001ea8:	2201      	movs	r2, #1
 8001eaa:	f883 2058 	strb.w	r2, [r3, #88]	@ 0x58
  /* Parameters update conditioned to ADC state:                              */
  /* Parameters that can be updated when ADC is disabled or enabled without   */
  /* conversion on going on regular group:                                    */
  /*  - Channel number                                                        */
  /*  - Channel rank                                                          */
  if (LL_ADC_REG_IsConversionOngoing(hadc->Instance) == 0UL)
 8001eae:	687b      	ldr	r3, [r7, #4]
 8001eb0:	681b      	ldr	r3, [r3, #0]
 8001eb2:	4618      	mov	r0, r3
 8001eb4:	f7ff fb4f 	bl	8001556 <LL_ADC_REG_IsConversionOngoing>
 8001eb8:	4603      	mov	r3, r0
 8001eba:	2b00      	cmp	r3, #0
 8001ebc:	f040 83ad 	bne.w	800261a <HAL_ADC_ConfigChannel+0x796>
  {
    /* Set ADC group regular sequence: channel on the selected scan sequence rank */
    LL_ADC_REG_SetSequencerRanks(hadc->Instance, pConfig->Rank, pConfig->Channel);
 8001ec0:	687b      	ldr	r3, [r7, #4]
 8001ec2:	6818      	ldr	r0, [r3, #0]
 8001ec4:	683b      	ldr	r3, [r7, #0]
 8001ec6:	6859      	ldr	r1, [r3, #4]
 8001ec8:	683b      	ldr	r3, [r7, #0]
 8001eca:	681b      	ldr	r3, [r3, #0]
 8001ecc:	461a      	mov	r2, r3
 8001ece:	f7ff fa0e 	bl	80012ee <LL_ADC_REG_SetSequencerRanks>
    /* Parameters update conditioned to ADC state:                              */
    /* Parameters that can be updated when ADC is disabled or enabled without   */
    /* conversion on going on regular group:                                    */
    /*  - Channel sampling time                                                 */
    /*  - Channel offset                                                        */
    tmp_adc_is_conversion_on_going_regular = LL_ADC_REG_IsConversionOngoing(hadc->Instance);
 8001ed2:	687b      	ldr	r3, [r7, #4]
 8001ed4:	681b      	ldr	r3, [r3, #0]
 8001ed6:	4618      	mov	r0, r3
 8001ed8:	f7ff fb3d 	bl	8001556 <LL_ADC_REG_IsConversionOngoing>
 8001edc:	f8c7 00d0 	str.w	r0, [r7, #208]	@ 0xd0
    tmp_adc_is_conversion_on_going_injected = LL_ADC_INJ_IsConversionOngoing(hadc->Instance);
 8001ee0:	687b      	ldr	r3, [r7, #4]
 8001ee2:	681b      	ldr	r3, [r3, #0]
 8001ee4:	4618      	mov	r0, r3
 8001ee6:	f7ff fb49 	bl	800157c <LL_ADC_INJ_IsConversionOngoing>
 8001eea:	f8c7 00cc 	str.w	r0, [r7, #204]	@ 0xcc
    if ((tmp_adc_is_conversion_on_going_regular == 0UL)
 8001eee:	f8d7 30d0 	ldr.w	r3, [r7, #208]	@ 0xd0
 8001ef2:	2b00      	cmp	r3, #0
 8001ef4:	f040 81d9 	bne.w	80022aa <HAL_ADC_ConfigChannel+0x426>
        && (tmp_adc_is_conversion_on_going_injected == 0UL)
 8001ef8:	f8d7 30cc 	ldr.w	r3, [r7, #204]	@ 0xcc
 8001efc:	2b00      	cmp	r3, #0
 8001efe:	f040 81d4 	bne.w	80022aa <HAL_ADC_ConfigChannel+0x426>
       )
    {
      /* Manage specific case of sampling time 3.5 cycles replacing 2.5 cyles */
      if (pConfig->SamplingTime == ADC_SAMPLETIME_3CYCLES_5)
 8001f02:	683b      	ldr	r3, [r7, #0]
 8001f04:	689b      	ldr	r3, [r3, #8]
 8001f06:	f1b3 4f00 	cmp.w	r3, #2147483648	@ 0x80000000
 8001f0a:	d10f      	bne.n	8001f2c <HAL_ADC_ConfigChannel+0xa8>
      {
        /* Set sampling time of the selected ADC channel */
        LL_ADC_SetChannelSamplingTime(hadc->Instance, pConfig->Channel, LL_ADC_SAMPLINGTIME_2CYCLES_5);
 8001f0c:	687b      	ldr	r3, [r7, #4]
 8001f0e:	6818      	ldr	r0, [r3, #0]
 8001f10:	683b      	ldr	r3, [r7, #0]
 8001f12:	681b      	ldr	r3, [r3, #0]
 8001f14:	2200      	movs	r2, #0
 8001f16:	4619      	mov	r1, r3
 8001f18:	f7ff fa28 	bl	800136c <LL_ADC_SetChannelSamplingTime>

        /* Set ADC sampling time common configuration */
        LL_ADC_SetSamplingTimeCommonConfig(hadc->Instance, LL_ADC_SAMPLINGTIME_COMMON_3C5_REPL_2C5);
 8001f1c:	687b      	ldr	r3, [r7, #4]
 8001f1e:	681b      	ldr	r3, [r3, #0]
 8001f20:	f04f 4100 	mov.w	r1, #2147483648	@ 0x80000000
 8001f24:	4618      	mov	r0, r3
 8001f26:	f7ff f9bc 	bl	80012a2 <LL_ADC_SetSamplingTimeCommonConfig>
 8001f2a:	e00e      	b.n	8001f4a <HAL_ADC_ConfigChannel+0xc6>
      }
      else
      {
        /* Set sampling time of the selected ADC channel */
        LL_ADC_SetChannelSamplingTime(hadc->Instance, pConfig->Channel, pConfig->SamplingTime);
 8001f2c:	687b      	ldr	r3, [r7, #4]
 8001f2e:	6818      	ldr	r0, [r3, #0]
 8001f30:	683b      	ldr	r3, [r7, #0]
 8001f32:	6819      	ldr	r1, [r3, #0]
 8001f34:	683b      	ldr	r3, [r7, #0]
 8001f36:	689b      	ldr	r3, [r3, #8]
 8001f38:	461a      	mov	r2, r3
 8001f3a:	f7ff fa17 	bl	800136c <LL_ADC_SetChannelSamplingTime>

        /* Set ADC sampling time common configuration */
        LL_ADC_SetSamplingTimeCommonConfig(hadc->Instance, LL_ADC_SAMPLINGTIME_COMMON_DEFAULT);
 8001f3e:	687b      	ldr	r3, [r7, #4]
 8001f40:	681b      	ldr	r3, [r3, #0]
 8001f42:	2100      	movs	r1, #0
 8001f44:	4618      	mov	r0, r3
 8001f46:	f7ff f9ac 	bl	80012a2 <LL_ADC_SetSamplingTimeCommonConfig>

      /* Configure the offset: offset enable/disable, channel, offset value */

      /* Shift the offset with respect to the selected ADC resolution. */
      /* Offset has to be left-aligned on bit 11, the LSB (right bits) are set to 0 */
      tmpOffsetShifted = ADC_OFFSET_SHIFT_RESOLUTION(hadc, (uint32_t)pConfig->Offset);
 8001f4a:	683b      	ldr	r3, [r7, #0]
 8001f4c:	695a      	ldr	r2, [r3, #20]
 8001f4e:	687b      	ldr	r3, [r7, #4]
 8001f50:	681b      	ldr	r3, [r3, #0]
 8001f52:	68db      	ldr	r3, [r3, #12]
 8001f54:	08db      	lsrs	r3, r3, #3
 8001f56:	f003 0303 	and.w	r3, r3, #3
 8001f5a:	005b      	lsls	r3, r3, #1
 8001f5c:	fa02 f303 	lsl.w	r3, r2, r3
 8001f60:	f8c7 30c8 	str.w	r3, [r7, #200]	@ 0xc8

      if (pConfig->OffsetNumber != ADC_OFFSET_NONE)
 8001f64:	683b      	ldr	r3, [r7, #0]
 8001f66:	691b      	ldr	r3, [r3, #16]
 8001f68:	2b04      	cmp	r3, #4
 8001f6a:	d022      	beq.n	8001fb2 <HAL_ADC_ConfigChannel+0x12e>
      {
        /* Set ADC selected offset number */
        LL_ADC_SetOffset(hadc->Instance, pConfig->OffsetNumber, pConfig->Channel, tmpOffsetShifted);
 8001f6c:	687b      	ldr	r3, [r7, #4]
 8001f6e:	6818      	ldr	r0, [r3, #0]
 8001f70:	683b      	ldr	r3, [r7, #0]
 8001f72:	6919      	ldr	r1, [r3, #16]
 8001f74:	683b      	ldr	r3, [r7, #0]
 8001f76:	681a      	ldr	r2, [r3, #0]
 8001f78:	f8d7 30c8 	ldr.w	r3, [r7, #200]	@ 0xc8
 8001f7c:	f7ff f906 	bl	800118c <LL_ADC_SetOffset>

        assert_param(IS_ADC_OFFSET_SIGN(pConfig->OffsetSign));
        assert_param(IS_FUNCTIONAL_STATE(pConfig->OffsetSaturation));
        /* Set ADC selected offset sign & saturation */
        LL_ADC_SetOffsetSign(hadc->Instance, pConfig->OffsetNumber, pConfig->OffsetSign);
 8001f80:	687b      	ldr	r3, [r7, #4]
 8001f82:	6818      	ldr	r0, [r3, #0]
 8001f84:	683b      	ldr	r3, [r7, #0]
 8001f86:	6919      	ldr	r1, [r3, #16]
 8001f88:	683b      	ldr	r3, [r7, #0]
 8001f8a:	699b      	ldr	r3, [r3, #24]
 8001f8c:	461a      	mov	r2, r3
 8001f8e:	f7ff f952 	bl	8001236 <LL_ADC_SetOffsetSign>
        LL_ADC_SetOffsetSaturation(hadc->Instance, pConfig->OffsetNumber,
 8001f92:	687b      	ldr	r3, [r7, #4]
 8001f94:	6818      	ldr	r0, [r3, #0]
 8001f96:	683b      	ldr	r3, [r7, #0]
 8001f98:	6919      	ldr	r1, [r3, #16]
                                   (pConfig->OffsetSaturation == ENABLE) ?
 8001f9a:	683b      	ldr	r3, [r7, #0]
 8001f9c:	7f1b      	ldrb	r3, [r3, #28]
        LL_ADC_SetOffsetSaturation(hadc->Instance, pConfig->OffsetNumber,
 8001f9e:	2b01      	cmp	r3, #1
 8001fa0:	d102      	bne.n	8001fa8 <HAL_ADC_ConfigChannel+0x124>
 8001fa2:	f04f 7300 	mov.w	r3, #33554432	@ 0x2000000
 8001fa6:	e000      	b.n	8001faa <HAL_ADC_ConfigChannel+0x126>
 8001fa8:	2300      	movs	r3, #0
 8001faa:	461a      	mov	r2, r3
 8001fac:	f7ff f95e 	bl	800126c <LL_ADC_SetOffsetSaturation>
 8001fb0:	e17b      	b.n	80022aa <HAL_ADC_ConfigChannel+0x426>
      }
      else
      {
        /* Scan each offset register to check if the selected channel is targeted. */
        /* If this is the case, the corresponding offset number is disabled.       */
        if (__LL_ADC_CHANNEL_TO_DECIMAL_NB(LL_ADC_GetOffsetChannel(hadc->Instance, LL_ADC_OFFSET_1))
 8001fb2:	687b      	ldr	r3, [r7, #4]
 8001fb4:	681b      	ldr	r3, [r3, #0]
 8001fb6:	2100      	movs	r1, #0
 8001fb8:	4618      	mov	r0, r3
 8001fba:	f7ff f90b 	bl	80011d4 <LL_ADC_GetOffsetChannel>
 8001fbe:	4603      	mov	r3, r0
 8001fc0:	f3c3 0312 	ubfx	r3, r3, #0, #19
 8001fc4:	2b00      	cmp	r3, #0
 8001fc6:	d10a      	bne.n	8001fde <HAL_ADC_ConfigChannel+0x15a>
 8001fc8:	687b      	ldr	r3, [r7, #4]
 8001fca:	681b      	ldr	r3, [r3, #0]
 8001fcc:	2100      	movs	r1, #0
 8001fce:	4618      	mov	r0, r3
 8001fd0:	f7ff f900 	bl	80011d4 <LL_ADC_GetOffsetChannel>
 8001fd4:	4603      	mov	r3, r0
 8001fd6:	0e9b      	lsrs	r3, r3, #26
 8001fd8:	f003 021f 	and.w	r2, r3, #31
 8001fdc:	e01e      	b.n	800201c <HAL_ADC_ConfigChannel+0x198>
 8001fde:	687b      	ldr	r3, [r7, #4]
 8001fe0:	681b      	ldr	r3, [r3, #0]
 8001fe2:	2100      	movs	r1, #0
 8001fe4:	4618      	mov	r0, r3
 8001fe6:	f7ff f8f5 	bl	80011d4 <LL_ADC_GetOffsetChannel>
 8001fea:	4603      	mov	r3, r0
 8001fec:	f8c7 30bc 	str.w	r3, [r7, #188]	@ 0xbc
  uint32_t result;

#if ((defined (__ARM_ARCH_7M__      ) && (__ARM_ARCH_7M__      == 1)) || \
     (defined (__ARM_ARCH_7EM__     ) && (__ARM_ARCH_7EM__     == 1)) || \
     (defined (__ARM_ARCH_8M_MAIN__ ) && (__ARM_ARCH_8M_MAIN__ == 1))    )
   __ASM volatile ("rbit %0, %1" : "=r" (result) : "r" (value) );
 8001ff0:	f8d7 30bc 	ldr.w	r3, [r7, #188]	@ 0xbc
 8001ff4:	fa93 f3a3 	rbit	r3, r3
 8001ff8:	f8c7 30c0 	str.w	r3, [r7, #192]	@ 0xc0
    result |= value & 1U;
    s--;
  }
  result <<= s;                        /* shift when v's highest bits are zero */
#endif
  return result;
 8001ffc:	f8d7 30c0 	ldr.w	r3, [r7, #192]	@ 0xc0
 8002000:	f8c7 30b8 	str.w	r3, [r7, #184]	@ 0xb8
     optimisations using the logic "value was passed to __builtin_clz, so it
     is non-zero".
     ARM GCC 7.3 and possibly earlier will optimise this test away, leaving a
     single CLZ instruction.
   */
  if (value == 0U)
 8002004:	f8d7 30b8 	ldr.w	r3, [r7, #184]	@ 0xb8
 8002008:	2b00      	cmp	r3, #0
 800200a:	d101      	bne.n	8002010 <HAL_ADC_ConfigChannel+0x18c>
  {
    return 32U;
 800200c:	2320      	movs	r3, #32
 800200e:	e004      	b.n	800201a <HAL_ADC_ConfigChannel+0x196>
  }
  return __builtin_clz(value);
 8002010:	f8d7 30b8 	ldr.w	r3, [r7, #184]	@ 0xb8
 8002014:	fab3 f383 	clz	r3, r3
 8002018:	b2db      	uxtb	r3, r3
 800201a:	461a      	mov	r2, r3
            == __LL_ADC_CHANNEL_TO_DECIMAL_NB(pConfig->Channel))
 800201c:	683b      	ldr	r3, [r7, #0]
 800201e:	681b      	ldr	r3, [r3, #0]
 8002020:	f3c3 0312 	ubfx	r3, r3, #0, #19
 8002024:	2b00      	cmp	r3, #0
 8002026:	d105      	bne.n	8002034 <HAL_ADC_ConfigChannel+0x1b0>
 8002028:	683b      	ldr	r3, [r7, #0]
 800202a:	681b      	ldr	r3, [r3, #0]
 800202c:	0e9b      	lsrs	r3, r3, #26
 800202e:	f003 031f 	and.w	r3, r3, #31
 8002032:	e018      	b.n	8002066 <HAL_ADC_ConfigChannel+0x1e2>
 8002034:	683b      	ldr	r3, [r7, #0]
 8002036:	681b      	ldr	r3, [r3, #0]
 8002038:	f8c7 30b0 	str.w	r3, [r7, #176]	@ 0xb0
   __ASM volatile ("rbit %0, %1" : "=r" (result) : "r" (value) );
 800203c:	f8d7 30b0 	ldr.w	r3, [r7, #176]	@ 0xb0
 8002040:	fa93 f3a3 	rbit	r3, r3
 8002044:	f8c7 30ac 	str.w	r3, [r7, #172]	@ 0xac
  return result;
 8002048:	f8d7 30ac 	ldr.w	r3, [r7, #172]	@ 0xac
 800204c:	f8c7 30b4 	str.w	r3, [r7, #180]	@ 0xb4
  if (value == 0U)
 8002050:	f8d7 30b4 	ldr.w	r3, [r7, #180]	@ 0xb4
 8002054:	2b00      	cmp	r3, #0
 8002056:	d101      	bne.n	800205c <HAL_ADC_ConfigChannel+0x1d8>
    return 32U;
 8002058:	2320      	movs	r3, #32
 800205a:	e004      	b.n	8002066 <HAL_ADC_ConfigChannel+0x1e2>
  return __builtin_clz(value);
 800205c:	f8d7 30b4 	ldr.w	r3, [r7, #180]	@ 0xb4
 8002060:	fab3 f383 	clz	r3, r3
 8002064:	b2db      	uxtb	r3, r3
        if (__LL_ADC_CHANNEL_TO_DECIMAL_NB(LL_ADC_GetOffsetChannel(hadc->Instance, LL_ADC_OFFSET_1))
 8002066:	429a      	cmp	r2, r3
 8002068:	d106      	bne.n	8002078 <HAL_ADC_ConfigChannel+0x1f4>
        {
          LL_ADC_SetOffsetState(hadc->Instance, LL_ADC_OFFSET_1, LL_ADC_OFFSET_DISABLE);
 800206a:	687b      	ldr	r3, [r7, #4]
 800206c:	681b      	ldr	r3, [r3, #0]
 800206e:	2200      	movs	r2, #0
 8002070:	2100      	movs	r1, #0
 8002072:	4618      	mov	r0, r3
 8002074:	f7ff f8c4 	bl	8001200 <LL_ADC_SetOffsetState>
        }
        if (__LL_ADC_CHANNEL_TO_DECIMAL_NB(LL_ADC_GetOffsetChannel(hadc->Instance, LL_ADC_OFFSET_2))
 8002078:	687b      	ldr	r3, [r7, #4]
 800207a:	681b      	ldr	r3, [r3, #0]
 800207c:	2101      	movs	r1, #1
 800207e:	4618      	mov	r0, r3
 8002080:	f7ff f8a8 	bl	80011d4 <LL_ADC_GetOffsetChannel>
 8002084:	4603      	mov	r3, r0
 8002086:	f3c3 0312 	ubfx	r3, r3, #0, #19
 800208a:	2b00      	cmp	r3, #0
 800208c:	d10a      	bne.n	80020a4 <HAL_ADC_ConfigChannel+0x220>
 800208e:	687b      	ldr	r3, [r7, #4]
 8002090:	681b      	ldr	r3, [r3, #0]
 8002092:	2101      	movs	r1, #1
 8002094:	4618      	mov	r0, r3
 8002096:	f7ff f89d 	bl	80011d4 <LL_ADC_GetOffsetChannel>
 800209a:	4603      	mov	r3, r0
 800209c:	0e9b      	lsrs	r3, r3, #26
 800209e:	f003 021f 	and.w	r2, r3, #31
 80020a2:	e01e      	b.n	80020e2 <HAL_ADC_ConfigChannel+0x25e>
 80020a4:	687b      	ldr	r3, [r7, #4]
 80020a6:	681b      	ldr	r3, [r3, #0]
 80020a8:	2101      	movs	r1, #1
 80020aa:	4618      	mov	r0, r3
 80020ac:	f7ff f892 	bl	80011d4 <LL_ADC_GetOffsetChannel>
 80020b0:	4603      	mov	r3, r0
 80020b2:	f8c7 30a4 	str.w	r3, [r7, #164]	@ 0xa4
   __ASM volatile ("rbit %0, %1" : "=r" (result) : "r" (value) );
 80020b6:	f8d7 30a4 	ldr.w	r3, [r7, #164]	@ 0xa4
 80020ba:	fa93 f3a3 	rbit	r3, r3
 80020be:	f8c7 30a0 	str.w	r3, [r7, #160]	@ 0xa0
  return result;
 80020c2:	f8d7 30a0 	ldr.w	r3, [r7, #160]	@ 0xa0
 80020c6:	f8c7 30a8 	str.w	r3, [r7, #168]	@ 0xa8
  if (value == 0U)
 80020ca:	f8d7 30a8 	ldr.w	r3, [r7, #168]	@ 0xa8
 80020ce:	2b00      	cmp	r3, #0
 80020d0:	d101      	bne.n	80020d6 <HAL_ADC_ConfigChannel+0x252>
    return 32U;
 80020d2:	2320      	movs	r3, #32
 80020d4:	e004      	b.n	80020e0 <HAL_ADC_ConfigChannel+0x25c>
  return __builtin_clz(value);
 80020d6:	f8d7 30a8 	ldr.w	r3, [r7, #168]	@ 0xa8
 80020da:	fab3 f383 	clz	r3, r3
 80020de:	b2db      	uxtb	r3, r3
 80020e0:	461a      	mov	r2, r3
            == __LL_ADC_CHANNEL_TO_DECIMAL_NB(pConfig->Channel))
 80020e2:	683b      	ldr	r3, [r7, #0]
 80020e4:	681b      	ldr	r3, [r3, #0]
 80020e6:	f3c3 0312 	ubfx	r3, r3, #0, #19
 80020ea:	2b00      	cmp	r3, #0
 80020ec:	d105      	bne.n	80020fa <HAL_ADC_ConfigChannel+0x276>
 80020ee:	683b      	ldr	r3, [r7, #0]
 80020f0:	681b      	ldr	r3, [r3, #0]
 80020f2:	0e9b      	lsrs	r3, r3, #26
 80020f4:	f003 031f 	and.w	r3, r3, #31
 80020f8:	e018      	b.n	800212c <HAL_ADC_ConfigChannel+0x2a8>
 80020fa:	683b      	ldr	r3, [r7, #0]
 80020fc:	681b      	ldr	r3, [r3, #0]
 80020fe:	f8c7 3098 	str.w	r3, [r7, #152]	@ 0x98
   __ASM volatile ("rbit %0, %1" : "=r" (result) : "r" (value) );
 8002102:	f8d7 3098 	ldr.w	r3, [r7, #152]	@ 0x98
 8002106:	fa93 f3a3 	rbit	r3, r3
 800210a:	f8c7 3094 	str.w	r3, [r7, #148]	@ 0x94
  return result;
 800210e:	f8d7 3094 	ldr.w	r3, [r7, #148]	@ 0x94
 8002112:	f8c7 309c 	str.w	r3, [r7, #156]	@ 0x9c
  if (value == 0U)
 8002116:	f8d7 309c 	ldr.w	r3, [r7, #156]	@ 0x9c
 800211a:	2b00      	cmp	r3, #0
 800211c:	d101      	bne.n	8002122 <HAL_ADC_ConfigChannel+0x29e>
    return 32U;
 800211e:	2320      	movs	r3, #32
 8002120:	e004      	b.n	800212c <HAL_ADC_ConfigChannel+0x2a8>
  return __builtin_clz(value);
 8002122:	f8d7 309c 	ldr.w	r3, [r7, #156]	@ 0x9c
 8002126:	fab3 f383 	clz	r3, r3
 800212a:	b2db      	uxtb	r3, r3
        if (__LL_ADC_CHANNEL_TO_DECIMAL_NB(LL_ADC_GetOffsetChannel(hadc->Instance, LL_ADC_OFFSET_2))
 800212c:	429a      	cmp	r2, r3
 800212e:	d106      	bne.n	800213e <HAL_ADC_ConfigChannel+0x2ba>
        {
          LL_ADC_SetOffsetState(hadc->Instance, LL_ADC_OFFSET_2, LL_ADC_OFFSET_DISABLE);
 8002130:	687b      	ldr	r3, [r7, #4]
 8002132:	681b      	ldr	r3, [r3, #0]
 8002134:	2200      	movs	r2, #0
 8002136:	2101      	movs	r1, #1
 8002138:	4618      	mov	r0, r3
 800213a:	f7ff f861 	bl	8001200 <LL_ADC_SetOffsetState>
        }
        if (__LL_ADC_CHANNEL_TO_DECIMAL_NB(LL_ADC_GetOffsetChannel(hadc->Instance, LL_ADC_OFFSET_3))
 800213e:	687b      	ldr	r3, [r7, #4]
 8002140:	681b      	ldr	r3, [r3, #0]
 8002142:	2102      	movs	r1, #2
 8002144:	4618      	mov	r0, r3
 8002146:	f7ff f845 	bl	80011d4 <LL_ADC_GetOffsetChannel>
 800214a:	4603      	mov	r3, r0
 800214c:	f3c3 0312 	ubfx	r3, r3, #0, #19
 8002150:	2b00      	cmp	r3, #0
 8002152:	d10a      	bne.n	800216a <HAL_ADC_ConfigChannel+0x2e6>
 8002154:	687b      	ldr	r3, [r7, #4]
 8002156:	681b      	ldr	r3, [r3, #0]
 8002158:	2102      	movs	r1, #2
 800215a:	4618      	mov	r0, r3
 800215c:	f7ff f83a 	bl	80011d4 <LL_ADC_GetOffsetChannel>
 8002160:	4603      	mov	r3, r0
 8002162:	0e9b      	lsrs	r3, r3, #26
 8002164:	f003 021f 	and.w	r2, r3, #31
 8002168:	e01e      	b.n	80021a8 <HAL_ADC_ConfigChannel+0x324>
 800216a:	687b      	ldr	r3, [r7, #4]
 800216c:	681b      	ldr	r3, [r3, #0]
 800216e:	2102      	movs	r1, #2
 8002170:	4618      	mov	r0, r3
 8002172:	f7ff f82f 	bl	80011d4 <LL_ADC_GetOffsetChannel>
 8002176:	4603      	mov	r3, r0
 8002178:	f8c7 308c 	str.w	r3, [r7, #140]	@ 0x8c
   __ASM volatile ("rbit %0, %1" : "=r" (result) : "r" (value) );
 800217c:	f8d7 308c 	ldr.w	r3, [r7, #140]	@ 0x8c
 8002180:	fa93 f3a3 	rbit	r3, r3
 8002184:	f8c7 3088 	str.w	r3, [r7, #136]	@ 0x88
  return result;
 8002188:	f8d7 3088 	ldr.w	r3, [r7, #136]	@ 0x88
 800218c:	f8c7 3090 	str.w	r3, [r7, #144]	@ 0x90
  if (value == 0U)
 8002190:	f8d7 3090 	ldr.w	r3, [r7, #144]	@ 0x90
 8002194:	2b00      	cmp	r3, #0
 8002196:	d101      	bne.n	800219c <HAL_ADC_ConfigChannel+0x318>
    return 32U;
 8002198:	2320      	movs	r3, #32
 800219a:	e004      	b.n	80021a6 <HAL_ADC_ConfigChannel+0x322>
  return __builtin_clz(value);
 800219c:	f8d7 3090 	ldr.w	r3, [r7, #144]	@ 0x90
 80021a0:	fab3 f383 	clz	r3, r3
 80021a4:	b2db      	uxtb	r3, r3
 80021a6:	461a      	mov	r2, r3
            == __LL_ADC_CHANNEL_TO_DECIMAL_NB(pConfig->Channel))
 80021a8:	683b      	ldr	r3, [r7, #0]
 80021aa:	681b      	ldr	r3, [r3, #0]
 80021ac:	f3c3 0312 	ubfx	r3, r3, #0, #19
 80021b0:	2b00      	cmp	r3, #0
 80021b2:	d105      	bne.n	80021c0 <HAL_ADC_ConfigChannel+0x33c>
 80021b4:	683b      	ldr	r3, [r7, #0]
 80021b6:	681b      	ldr	r3, [r3, #0]
 80021b8:	0e9b      	lsrs	r3, r3, #26
 80021ba:	f003 031f 	and.w	r3, r3, #31
 80021be:	e016      	b.n	80021ee <HAL_ADC_ConfigChannel+0x36a>
 80021c0:	683b      	ldr	r3, [r7, #0]
 80021c2:	681b      	ldr	r3, [r3, #0]
 80021c4:	f8c7 3080 	str.w	r3, [r7, #128]	@ 0x80
   __ASM volatile ("rbit %0, %1" : "=r" (result) : "r" (value) );
 80021c8:	f8d7 3080 	ldr.w	r3, [r7, #128]	@ 0x80
 80021cc:	fa93 f3a3 	rbit	r3, r3
 80021d0:	67fb      	str	r3, [r7, #124]	@ 0x7c
  return result;
 80021d2:	6ffb      	ldr	r3, [r7, #124]	@ 0x7c
 80021d4:	f8c7 3084 	str.w	r3, [r7, #132]	@ 0x84
  if (value == 0U)
 80021d8:	f8d7 3084 	ldr.w	r3, [r7, #132]	@ 0x84
 80021dc:	2b00      	cmp	r3, #0
 80021de:	d101      	bne.n	80021e4 <HAL_ADC_ConfigChannel+0x360>
    return 32U;
 80021e0:	2320      	movs	r3, #32
 80021e2:	e004      	b.n	80021ee <HAL_ADC_ConfigChannel+0x36a>
  return __builtin_clz(value);
 80021e4:	f8d7 3084 	ldr.w	r3, [r7, #132]	@ 0x84
 80021e8:	fab3 f383 	clz	r3, r3
 80021ec:	b2db      	uxtb	r3, r3
        if (__LL_ADC_CHANNEL_TO_DECIMAL_NB(LL_ADC_GetOffsetChannel(hadc->Instance, LL_ADC_OFFSET_3))
 80021ee:	429a      	cmp	r2, r3
 80021f0:	d106      	bne.n	8002200 <HAL_ADC_ConfigChannel+0x37c>
        {
          LL_ADC_SetOffsetState(hadc->Instance, LL_ADC_OFFSET_3, LL_ADC_OFFSET_DISABLE);
 80021f2:	687b      	ldr	r3, [r7, #4]
 80021f4:	681b      	ldr	r3, [r3, #0]
 80021f6:	2200      	movs	r2, #0
 80021f8:	2102      	movs	r1, #2
 80021fa:	4618      	mov	r0, r3
 80021fc:	f7ff f800 	bl	8001200 <LL_ADC_SetOffsetState>
        }
        if (__LL_ADC_CHANNEL_TO_DECIMAL_NB(LL_ADC_GetOffsetChannel(hadc->Instance, LL_ADC_OFFSET_4))
 8002200:	687b      	ldr	r3, [r7, #4]
 8002202:	681b      	ldr	r3, [r3, #0]
 8002204:	2103      	movs	r1, #3
 8002206:	4618      	mov	r0, r3
 8002208:	f7fe ffe4 	bl	80011d4 <LL_ADC_GetOffsetChannel>
 800220c:	4603      	mov	r3, r0
 800220e:	f3c3 0312 	ubfx	r3, r3, #0, #19
 8002212:	2b00      	cmp	r3, #0
 8002214:	d10a      	bne.n	800222c <HAL_ADC_ConfigChannel+0x3a8>
 8002216:	687b      	ldr	r3, [r7, #4]
 8002218:	681b      	ldr	r3, [r3, #0]
 800221a:	2103      	movs	r1, #3
 800221c:	4618      	mov	r0, r3
 800221e:	f7fe ffd9 	bl	80011d4 <LL_ADC_GetOffsetChannel>
 8002222:	4603      	mov	r3, r0
 8002224:	0e9b      	lsrs	r3, r3, #26
 8002226:	f003 021f 	and.w	r2, r3, #31
 800222a:	e017      	b.n	800225c <HAL_ADC_ConfigChannel+0x3d8>
 800222c:	687b      	ldr	r3, [r7, #4]
 800222e:	681b      	ldr	r3, [r3, #0]
 8002230:	2103      	movs	r1, #3
 8002232:	4618      	mov	r0, r3
 8002234:	f7fe ffce 	bl	80011d4 <LL_ADC_GetOffsetChannel>
 8002238:	4603      	mov	r3, r0
 800223a:	677b      	str	r3, [r7, #116]	@ 0x74
   __ASM volatile ("rbit %0, %1" : "=r" (result) : "r" (value) );
 800223c:	6f7b      	ldr	r3, [r7, #116]	@ 0x74
 800223e:	fa93 f3a3 	rbit	r3, r3
 8002242:	673b      	str	r3, [r7, #112]	@ 0x70
  return result;
 8002244:	6f3b      	ldr	r3, [r7, #112]	@ 0x70
 8002246:	67bb      	str	r3, [r7, #120]	@ 0x78
  if (value == 0U)
 8002248:	6fbb      	ldr	r3, [r7, #120]	@ 0x78
 800224a:	2b00      	cmp	r3, #0
 800224c:	d101      	bne.n	8002252 <HAL_ADC_ConfigChannel+0x3ce>
    return 32U;
 800224e:	2320      	movs	r3, #32
 8002250:	e003      	b.n	800225a <HAL_ADC_ConfigChannel+0x3d6>
  return __builtin_clz(value);
 8002252:	6fbb      	ldr	r3, [r7, #120]	@ 0x78
 8002254:	fab3 f383 	clz	r3, r3
 8002258:	b2db      	uxtb	r3, r3
 800225a:	461a      	mov	r2, r3
            == __LL_ADC_CHANNEL_TO_DECIMAL_NB(pConfig->Channel))
 800225c:	683b      	ldr	r3, [r7, #0]
 800225e:	681b      	ldr	r3, [r3, #0]
 8002260:	f3c3 0312 	ubfx	r3, r3, #0, #19
 8002264:	2b00      	cmp	r3, #0
 8002266:	d105      	bne.n	8002274 <HAL_ADC_ConfigChannel+0x3f0>
 8002268:	683b      	ldr	r3, [r7, #0]
 800226a:	681b      	ldr	r3, [r3, #0]
 800226c:	0e9b      	lsrs	r3, r3, #26
 800226e:	f003 031f 	and.w	r3, r3, #31
 8002272:	e011      	b.n	8002298 <HAL_ADC_ConfigChannel+0x414>
 8002274:	683b      	ldr	r3, [r7, #0]
 8002276:	681b      	ldr	r3, [r3, #0]
 8002278:	66bb      	str	r3, [r7, #104]	@ 0x68
   __ASM volatile ("rbit %0, %1" : "=r" (result) : "r" (value) );
 800227a:	6ebb      	ldr	r3, [r7, #104]	@ 0x68
 800227c:	fa93 f3a3 	rbit	r3, r3
 8002280:	667b      	str	r3, [r7, #100]	@ 0x64
  return result;
 8002282:	6e7b      	ldr	r3, [r7, #100]	@ 0x64
 8002284:	66fb      	str	r3, [r7, #108]	@ 0x6c
  if (value == 0U)
 8002286:	6efb      	ldr	r3, [r7, #108]	@ 0x6c
 8002288:	2b00      	cmp	r3, #0
 800228a:	d101      	bne.n	8002290 <HAL_ADC_ConfigChannel+0x40c>
    return 32U;
 800228c:	2320      	movs	r3, #32
 800228e:	e003      	b.n	8002298 <HAL_ADC_ConfigChannel+0x414>
  return __builtin_clz(value);
 8002290:	6efb      	ldr	r3, [r7, #108]	@ 0x6c
 8002292:	fab3 f383 	clz	r3, r3
 8002296:	b2db      	uxtb	r3, r3
        if (__LL_ADC_CHANNEL_TO_DECIMAL_NB(LL_ADC_GetOffsetChannel(hadc->Instance, LL_ADC_OFFSET_4))
 8002298:	429a      	cmp	r2, r3
 800229a:	d106      	bne.n	80022aa <HAL_ADC_ConfigChannel+0x426>
        {
          LL_ADC_SetOffsetState(hadc->Instance, LL_ADC_OFFSET_4, LL_ADC_OFFSET_DISABLE);
 800229c:	687b      	ldr	r3, [r7, #4]
 800229e:	681b      	ldr	r3, [r3, #0]
 80022a0:	2200      	movs	r2, #0
 80022a2:	2103      	movs	r1, #3
 80022a4:	4618      	mov	r0, r3
 80022a6:	f7fe ffab 	bl	8001200 <LL_ADC_SetOffsetState>
    }

    /* Parameters update conditioned to ADC state:                              */
    /* Parameters that can be updated only when ADC is disabled:                */
    /*  - Single or differential mode                                           */
    if (LL_ADC_IsEnabled(hadc->Instance) == 0UL)
 80022aa:	687b      	ldr	r3, [r7, #4]
 80022ac:	681b      	ldr	r3, [r3, #0]
 80022ae:	4618      	mov	r0, r3
 80022b0:	f7ff f92a 	bl	8001508 <LL_ADC_IsEnabled>
 80022b4:	4603      	mov	r3, r0
 80022b6:	2b00      	cmp	r3, #0
 80022b8:	f040 8140 	bne.w	800253c <HAL_ADC_ConfigChannel+0x6b8>
    {
      /* Set mode single-ended or differential input of the selected ADC channel */
      LL_ADC_SetChannelSingleDiff(hadc->Instance, pConfig->Channel, pConfig->SingleDiff);
 80022bc:	687b      	ldr	r3, [r7, #4]
 80022be:	6818      	ldr	r0, [r3, #0]
 80022c0:	683b      	ldr	r3, [r7, #0]
 80022c2:	6819      	ldr	r1, [r3, #0]
 80022c4:	683b      	ldr	r3, [r7, #0]
 80022c6:	68db      	ldr	r3, [r3, #12]
 80022c8:	461a      	mov	r2, r3
 80022ca:	f7ff f87b 	bl	80013c4 <LL_ADC_SetChannelSingleDiff>

      /* Configuration of differential mode */
      if (pConfig->SingleDiff == ADC_DIFFERENTIAL_ENDED)
 80022ce:	683b      	ldr	r3, [r7, #0]
 80022d0:	68db      	ldr	r3, [r3, #12]
 80022d2:	4a8f      	ldr	r2, [pc, #572]	@ (8002510 <HAL_ADC_ConfigChannel+0x68c>)
 80022d4:	4293      	cmp	r3, r2
 80022d6:	f040 8131 	bne.w	800253c <HAL_ADC_ConfigChannel+0x6b8>
      {
        /* Set sampling time of the selected ADC channel */
        /* Note: ADC channel number masked with value "0x1F" to ensure shift value within 32 bits range */
        LL_ADC_SetChannelSamplingTime(hadc->Instance,
 80022da:	687b      	ldr	r3, [r7, #4]
 80022dc:	6818      	ldr	r0, [r3, #0]
                                      (uint32_t)(__LL_ADC_DECIMAL_NB_TO_CHANNEL(
 80022de:	683b      	ldr	r3, [r7, #0]
 80022e0:	681b      	ldr	r3, [r3, #0]
 80022e2:	f3c3 0312 	ubfx	r3, r3, #0, #19
 80022e6:	2b00      	cmp	r3, #0
 80022e8:	d10b      	bne.n	8002302 <HAL_ADC_ConfigChannel+0x47e>
 80022ea:	683b      	ldr	r3, [r7, #0]
 80022ec:	681b      	ldr	r3, [r3, #0]
 80022ee:	0e9b      	lsrs	r3, r3, #26
 80022f0:	3301      	adds	r3, #1
 80022f2:	f003 031f 	and.w	r3, r3, #31
 80022f6:	2b09      	cmp	r3, #9
 80022f8:	bf94      	ite	ls
 80022fa:	2301      	movls	r3, #1
 80022fc:	2300      	movhi	r3, #0
 80022fe:	b2db      	uxtb	r3, r3
 8002300:	e019      	b.n	8002336 <HAL_ADC_ConfigChannel+0x4b2>
 8002302:	683b      	ldr	r3, [r7, #0]
 8002304:	681b      	ldr	r3, [r3, #0]
 8002306:	65fb      	str	r3, [r7, #92]	@ 0x5c
   __ASM volatile ("rbit %0, %1" : "=r" (result) : "r" (value) );
 8002308:	6dfb      	ldr	r3, [r7, #92]	@ 0x5c
 800230a:	fa93 f3a3 	rbit	r3, r3
 800230e:	65bb      	str	r3, [r7, #88]	@ 0x58
  return result;
 8002310:	6dbb      	ldr	r3, [r7, #88]	@ 0x58
 8002312:	663b      	str	r3, [r7, #96]	@ 0x60
  if (value == 0U)
 8002314:	6e3b      	ldr	r3, [r7, #96]	@ 0x60
 8002316:	2b00      	cmp	r3, #0
 8002318:	d101      	bne.n	800231e <HAL_ADC_ConfigChannel+0x49a>
    return 32U;
 800231a:	2320      	movs	r3, #32
 800231c:	e003      	b.n	8002326 <HAL_ADC_ConfigChannel+0x4a2>
  return __builtin_clz(value);
 800231e:	6e3b      	ldr	r3, [r7, #96]	@ 0x60
 8002320:	fab3 f383 	clz	r3, r3
 8002324:	b2db      	uxtb	r3, r3
 8002326:	3301      	adds	r3, #1
 8002328:	f003 031f 	and.w	r3, r3, #31
 800232c:	2b09      	cmp	r3, #9
 800232e:	bf94      	ite	ls
 8002330:	2301      	movls	r3, #1
 8002332:	2300      	movhi	r3, #0
 8002334:	b2db      	uxtb	r3, r3
        LL_ADC_SetChannelSamplingTime(hadc->Instance,
 8002336:	2b00      	cmp	r3, #0
 8002338:	d079      	beq.n	800242e <HAL_ADC_ConfigChannel+0x5aa>
                                      (uint32_t)(__LL_ADC_DECIMAL_NB_TO_CHANNEL(
 800233a:	683b      	ldr	r3, [r7, #0]
 800233c:	681b      	ldr	r3, [r3, #0]
 800233e:	f3c3 0312 	ubfx	r3, r3, #0, #19
 8002342:	2b00      	cmp	r3, #0
 8002344:	d107      	bne.n	8002356 <HAL_ADC_ConfigChannel+0x4d2>
 8002346:	683b      	ldr	r3, [r7, #0]
 8002348:	681b      	ldr	r3, [r3, #0]
 800234a:	0e9b      	lsrs	r3, r3, #26
 800234c:	3301      	adds	r3, #1
 800234e:	069b      	lsls	r3, r3, #26
 8002350:	f003 42f8 	and.w	r2, r3, #2080374784	@ 0x7c000000
 8002354:	e015      	b.n	8002382 <HAL_ADC_ConfigChannel+0x4fe>
 8002356:	683b      	ldr	r3, [r7, #0]
 8002358:	681b      	ldr	r3, [r3, #0]
 800235a:	653b      	str	r3, [r7, #80]	@ 0x50
   __ASM volatile ("rbit %0, %1" : "=r" (result) : "r" (value) );
 800235c:	6d3b      	ldr	r3, [r7, #80]	@ 0x50
 800235e:	fa93 f3a3 	rbit	r3, r3
 8002362:	64fb      	str	r3, [r7, #76]	@ 0x4c
  return result;
 8002364:	6cfb      	ldr	r3, [r7, #76]	@ 0x4c
 8002366:	657b      	str	r3, [r7, #84]	@ 0x54
  if (value == 0U)
 8002368:	6d7b      	ldr	r3, [r7, #84]	@ 0x54
 800236a:	2b00      	cmp	r3, #0
 800236c:	d101      	bne.n	8002372 <HAL_ADC_ConfigChannel+0x4ee>
    return 32U;
 800236e:	2320      	movs	r3, #32
 8002370:	e003      	b.n	800237a <HAL_ADC_ConfigChannel+0x4f6>
  return __builtin_clz(value);
 8002372:	6d7b      	ldr	r3, [r7, #84]	@ 0x54
 8002374:	fab3 f383 	clz	r3, r3
 8002378:	b2db      	uxtb	r3, r3
 800237a:	3301      	adds	r3, #1
 800237c:	069b      	lsls	r3, r3, #26
 800237e:	f003 42f8 	and.w	r2, r3, #2080374784	@ 0x7c000000
 8002382:	683b      	ldr	r3, [r7, #0]
 8002384:	681b      	ldr	r3, [r3, #0]
 8002386:	f3c3 0312 	ubfx	r3, r3, #0, #19
 800238a:	2b00      	cmp	r3, #0
 800238c:	d109      	bne.n	80023a2 <HAL_ADC_ConfigChannel+0x51e>
 800238e:	683b      	ldr	r3, [r7, #0]
 8002390:	681b      	ldr	r3, [r3, #0]
 8002392:	0e9b      	lsrs	r3, r3, #26
 8002394:	3301      	adds	r3, #1
 8002396:	f003 031f 	and.w	r3, r3, #31
 800239a:	2101      	movs	r1, #1
 800239c:	fa01 f303 	lsl.w	r3, r1, r3
 80023a0:	e017      	b.n	80023d2 <HAL_ADC_ConfigChannel+0x54e>
 80023a2:	683b      	ldr	r3, [r7, #0]
 80023a4:	681b      	ldr	r3, [r3, #0]
 80023a6:	647b      	str	r3, [r7, #68]	@ 0x44
   __ASM volatile ("rbit %0, %1" : "=r" (result) : "r" (value) );
 80023a8:	6c7b      	ldr	r3, [r7, #68]	@ 0x44
 80023aa:	fa93 f3a3 	rbit	r3, r3
 80023ae:	643b      	str	r3, [r7, #64]	@ 0x40
  return result;
 80023b0:	6c3b      	ldr	r3, [r7, #64]	@ 0x40
 80023b2:	64bb      	str	r3, [r7, #72]	@ 0x48
  if (value == 0U)
 80023b4:	6cbb      	ldr	r3, [r7, #72]	@ 0x48
 80023b6:	2b00      	cmp	r3, #0
 80023b8:	d101      	bne.n	80023be <HAL_ADC_ConfigChannel+0x53a>
    return 32U;
 80023ba:	2320      	movs	r3, #32
 80023bc:	e003      	b.n	80023c6 <HAL_ADC_ConfigChannel+0x542>
  return __builtin_clz(value);
 80023be:	6cbb      	ldr	r3, [r7, #72]	@ 0x48
 80023c0:	fab3 f383 	clz	r3, r3
 80023c4:	b2db      	uxtb	r3, r3
 80023c6:	3301      	adds	r3, #1
 80023c8:	f003 031f 	and.w	r3, r3, #31
 80023cc:	2101      	movs	r1, #1
 80023ce:	fa01 f303 	lsl.w	r3, r1, r3
 80023d2:	ea42 0103 	orr.w	r1, r2, r3
 80023d6:	683b      	ldr	r3, [r7, #0]
 80023d8:	681b      	ldr	r3, [r3, #0]
 80023da:	f3c3 0312 	ubfx	r3, r3, #0, #19
 80023de:	2b00      	cmp	r3, #0
 80023e0:	d10a      	bne.n	80023f8 <HAL_ADC_ConfigChannel+0x574>
 80023e2:	683b      	ldr	r3, [r7, #0]
 80023e4:	681b      	ldr	r3, [r3, #0]
 80023e6:	0e9b      	lsrs	r3, r3, #26
 80023e8:	3301      	adds	r3, #1
 80023ea:	f003 021f 	and.w	r2, r3, #31
 80023ee:	4613      	mov	r3, r2
 80023f0:	005b      	lsls	r3, r3, #1
 80023f2:	4413      	add	r3, r2
 80023f4:	051b      	lsls	r3, r3, #20
 80023f6:	e018      	b.n	800242a <HAL_ADC_ConfigChannel+0x5a6>
 80023f8:	683b      	ldr	r3, [r7, #0]
 80023fa:	681b      	ldr	r3, [r3, #0]
 80023fc:	63bb      	str	r3, [r7, #56]	@ 0x38
   __ASM volatile ("rbit %0, %1" : "=r" (result) : "r" (value) );
 80023fe:	6bbb      	ldr	r3, [r7, #56]	@ 0x38
 8002400:	fa93 f3a3 	rbit	r3, r3
 8002404:	637b      	str	r3, [r7, #52]	@ 0x34
  return result;
 8002406:	6b7b      	ldr	r3, [r7, #52]	@ 0x34
 8002408:	63fb      	str	r3, [r7, #60]	@ 0x3c
  if (value == 0U)
 800240a:	6bfb      	ldr	r3, [r7, #60]	@ 0x3c
 800240c:	2b00      	cmp	r3, #0
 800240e:	d101      	bne.n	8002414 <HAL_ADC_ConfigChannel+0x590>
    return 32U;
 8002410:	2320      	movs	r3, #32
 8002412:	e003      	b.n	800241c <HAL_ADC_ConfigChannel+0x598>
  return __builtin_clz(value);
 8002414:	6bfb      	ldr	r3, [r7, #60]	@ 0x3c
 8002416:	fab3 f383 	clz	r3, r3
 800241a:	b2db      	uxtb	r3, r3
 800241c:	3301      	adds	r3, #1
 800241e:	f003 021f 	and.w	r2, r3, #31
 8002422:	4613      	mov	r3, r2
 8002424:	005b      	lsls	r3, r3, #1
 8002426:	4413      	add	r3, r2
 8002428:	051b      	lsls	r3, r3, #20
        LL_ADC_SetChannelSamplingTime(hadc->Instance,
 800242a:	430b      	orrs	r3, r1
 800242c:	e081      	b.n	8002532 <HAL_ADC_ConfigChannel+0x6ae>
                                      (uint32_t)(__LL_ADC_DECIMAL_NB_TO_CHANNEL(
 800242e:	683b      	ldr	r3, [r7, #0]
 8002430:	681b      	ldr	r3, [r3, #0]
 8002432:	f3c3 0312 	ubfx	r3, r3, #0, #19
 8002436:	2b00      	cmp	r3, #0
 8002438:	d107      	bne.n	800244a <HAL_ADC_ConfigChannel+0x5c6>
 800243a:	683b      	ldr	r3, [r7, #0]
 800243c:	681b      	ldr	r3, [r3, #0]
 800243e:	0e9b      	lsrs	r3, r3, #26
 8002440:	3301      	adds	r3, #1
 8002442:	069b      	lsls	r3, r3, #26
 8002444:	f003 42f8 	and.w	r2, r3, #2080374784	@ 0x7c000000
 8002448:	e015      	b.n	8002476 <HAL_ADC_ConfigChannel+0x5f2>
 800244a:	683b      	ldr	r3, [r7, #0]
 800244c:	681b      	ldr	r3, [r3, #0]
 800244e:	62fb      	str	r3, [r7, #44]	@ 0x2c
   __ASM volatile ("rbit %0, %1" : "=r" (result) : "r" (value) );
 8002450:	6afb      	ldr	r3, [r7, #44]	@ 0x2c
 8002452:	fa93 f3a3 	rbit	r3, r3
 8002456:	62bb      	str	r3, [r7, #40]	@ 0x28
  return result;
 8002458:	6abb      	ldr	r3, [r7, #40]	@ 0x28
 800245a:	633b      	str	r3, [r7, #48]	@ 0x30
  if (value == 0U)
 800245c:	6b3b      	ldr	r3, [r7, #48]	@ 0x30
 800245e:	2b00      	cmp	r3, #0
 8002460:	d101      	bne.n	8002466 <HAL_ADC_ConfigChannel+0x5e2>
    return 32U;
 8002462:	2320      	movs	r3, #32
 8002464:	e003      	b.n	800246e <HAL_ADC_ConfigChannel+0x5ea>
  return __builtin_clz(value);
 8002466:	6b3b      	ldr	r3, [r7, #48]	@ 0x30
 8002468:	fab3 f383 	clz	r3, r3
 800246c:	b2db      	uxtb	r3, r3
 800246e:	3301      	adds	r3, #1
 8002470:	069b      	lsls	r3, r3, #26
 8002472:	f003 42f8 	and.w	r2, r3, #2080374784	@ 0x7c000000
 8002476:	683b      	ldr	r3, [r7, #0]
 8002478:	681b      	ldr	r3, [r3, #0]
 800247a:	f3c3 0312 	ubfx	r3, r3, #0, #19
 800247e:	2b00      	cmp	r3, #0
 8002480:	d109      	bne.n	8002496 <HAL_ADC_ConfigChannel+0x612>
 8002482:	683b      	ldr	r3, [r7, #0]
 8002484:	681b      	ldr	r3, [r3, #0]
 8002486:	0e9b      	lsrs	r3, r3, #26
 8002488:	3301      	adds	r3, #1
 800248a:	f003 031f 	and.w	r3, r3, #31
 800248e:	2101      	movs	r1, #1
 8002490:	fa01 f303 	lsl.w	r3, r1, r3
 8002494:	e017      	b.n	80024c6 <HAL_ADC_ConfigChannel+0x642>
 8002496:	683b      	ldr	r3, [r7, #0]
 8002498:	681b      	ldr	r3, [r3, #0]
 800249a:	623b      	str	r3, [r7, #32]
   __ASM volatile ("rbit %0, %1" : "=r" (result) : "r" (value) );
 800249c:	6a3b      	ldr	r3, [r7, #32]
 800249e:	fa93 f3a3 	rbit	r3, r3
 80024a2:	61fb      	str	r3, [r7, #28]
  return result;
 80024a4:	69fb      	ldr	r3, [r7, #28]
 80024a6:	627b      	str	r3, [r7, #36]	@ 0x24
  if (value == 0U)
 80024a8:	6a7b      	ldr	r3, [r7, #36]	@ 0x24
 80024aa:	2b00      	cmp	r3, #0
 80024ac:	d101      	bne.n	80024b2 <HAL_ADC_ConfigChannel+0x62e>
    return 32U;
 80024ae:	2320      	movs	r3, #32
 80024b0:	e003      	b.n	80024ba <HAL_ADC_ConfigChannel+0x636>
  return __builtin_clz(value);
 80024b2:	6a7b      	ldr	r3, [r7, #36]	@ 0x24
 80024b4:	fab3 f383 	clz	r3, r3
 80024b8:	b2db      	uxtb	r3, r3
 80024ba:	3301      	adds	r3, #1
 80024bc:	f003 031f 	and.w	r3, r3, #31
 80024c0:	2101      	movs	r1, #1
 80024c2:	fa01 f303 	lsl.w	r3, r1, r3
 80024c6:	ea42 0103 	orr.w	r1, r2, r3
 80024ca:	683b      	ldr	r3, [r7, #0]
 80024cc:	681b      	ldr	r3, [r3, #0]
 80024ce:	f3c3 0312 	ubfx	r3, r3, #0, #19
 80024d2:	2b00      	cmp	r3, #0
 80024d4:	d10d      	bne.n	80024f2 <HAL_ADC_ConfigChannel+0x66e>
 80024d6:	683b      	ldr	r3, [r7, #0]
 80024d8:	681b      	ldr	r3, [r3, #0]
 80024da:	0e9b      	lsrs	r3, r3, #26
 80024dc:	3301      	adds	r3, #1
 80024de:	f003 021f 	and.w	r2, r3, #31
 80024e2:	4613      	mov	r3, r2
 80024e4:	005b      	lsls	r3, r3, #1
 80024e6:	4413      	add	r3, r2
 80024e8:	3b1e      	subs	r3, #30
 80024ea:	051b      	lsls	r3, r3, #20
 80024ec:	f043 7300 	orr.w	r3, r3, #33554432	@ 0x2000000
 80024f0:	e01e      	b.n	8002530 <HAL_ADC_ConfigChannel+0x6ac>
 80024f2:	683b      	ldr	r3, [r7, #0]
 80024f4:	681b      	ldr	r3, [r3, #0]
 80024f6:	617b      	str	r3, [r7, #20]
   __ASM volatile ("rbit %0, %1" : "=r" (result) : "r" (value) );
 80024f8:	697b      	ldr	r3, [r7, #20]
 80024fa:	fa93 f3a3 	rbit	r3, r3
 80024fe:	613b      	str	r3, [r7, #16]
  return result;
 8002500:	693b      	ldr	r3, [r7, #16]
 8002502:	61bb      	str	r3, [r7, #24]
  if (value == 0U)
 8002504:	69bb      	ldr	r3, [r7, #24]
 8002506:	2b00      	cmp	r3, #0
 8002508:	d104      	bne.n	8002514 <HAL_ADC_ConfigChannel+0x690>
    return 32U;
 800250a:	2320      	movs	r3, #32
 800250c:	e006      	b.n	800251c <HAL_ADC_ConfigChannel+0x698>
 800250e:	bf00      	nop
 8002510:	407f0000 	.word	0x407f0000
  return __builtin_clz(value);
 8002514:	69bb      	ldr	r3, [r7, #24]
 8002516:	fab3 f383 	clz	r3, r3
 800251a:	b2db      	uxtb	r3, r3
 800251c:	3301      	adds	r3, #1
 800251e:	f003 021f 	and.w	r2, r3, #31
 8002522:	4613      	mov	r3, r2
 8002524:	005b      	lsls	r3, r3, #1
 8002526:	4413      	add	r3, r2
 8002528:	3b1e      	subs	r3, #30
 800252a:	051b      	lsls	r3, r3, #20
 800252c:	f043 7300 	orr.w	r3, r3, #33554432	@ 0x2000000
        LL_ADC_SetChannelSamplingTime(hadc->Instance,
 8002530:	430b      	orrs	r3, r1
                                                   (__LL_ADC_CHANNEL_TO_DECIMAL_NB((uint32_t)pConfig->Channel)
                                                    + 1UL) & 0x1FUL)),
                                      pConfig->SamplingTime);
 8002532:	683a      	ldr	r2, [r7, #0]
 8002534:	6892      	ldr	r2, [r2, #8]
        LL_ADC_SetChannelSamplingTime(hadc->Instance,
 8002536:	4619      	mov	r1, r3
 8002538:	f7fe ff18 	bl	800136c <LL_ADC_SetChannelSamplingTime>
    /* If internal channel selected, enable dedicated internal buffers and    */
    /* paths.                                                                 */
    /* Note: these internal measurement paths can be disabled using           */
    /* HAL_ADC_DeInit().                                                      */

    if (__LL_ADC_IS_CHANNEL_INTERNAL(pConfig->Channel))
 800253c:	683b      	ldr	r3, [r7, #0]
 800253e:	681a      	ldr	r2, [r3, #0]
 8002540:	4b3f      	ldr	r3, [pc, #252]	@ (8002640 <HAL_ADC_ConfigChannel+0x7bc>)
 8002542:	4013      	ands	r3, r2
 8002544:	2b00      	cmp	r3, #0
 8002546:	d071      	beq.n	800262c <HAL_ADC_ConfigChannel+0x7a8>
    {
      tmp_config_internal_channel = LL_ADC_GetCommonPathInternalCh(__LL_ADC_COMMON_INSTANCE(hadc->Instance));
 8002548:	483e      	ldr	r0, [pc, #248]	@ (8002644 <HAL_ADC_ConfigChannel+0x7c0>)
 800254a:	f7fe fe11 	bl	8001170 <LL_ADC_GetCommonPathInternalCh>
 800254e:	f8c7 00c4 	str.w	r0, [r7, #196]	@ 0xc4

      /* If the requested internal measurement path has already been enabled, */
      /* bypass the configuration processing.                                 */
      if (((pConfig->Channel == ADC_CHANNEL_TEMPSENSOR_ADC1) || (pConfig->Channel == ADC_CHANNEL_TEMPSENSOR_ADC5))
 8002552:	683b      	ldr	r3, [r7, #0]
 8002554:	681b      	ldr	r3, [r3, #0]
 8002556:	4a3c      	ldr	r2, [pc, #240]	@ (8002648 <HAL_ADC_ConfigChannel+0x7c4>)
 8002558:	4293      	cmp	r3, r2
 800255a:	d004      	beq.n	8002566 <HAL_ADC_ConfigChannel+0x6e2>
 800255c:	683b      	ldr	r3, [r7, #0]
 800255e:	681b      	ldr	r3, [r3, #0]
 8002560:	4a3a      	ldr	r2, [pc, #232]	@ (800264c <HAL_ADC_ConfigChannel+0x7c8>)
 8002562:	4293      	cmp	r3, r2
 8002564:	d127      	bne.n	80025b6 <HAL_ADC_ConfigChannel+0x732>
          && ((tmp_config_internal_channel & LL_ADC_PATH_INTERNAL_TEMPSENSOR) == 0UL))
 8002566:	f8d7 30c4 	ldr.w	r3, [r7, #196]	@ 0xc4
 800256a:	f403 0300 	and.w	r3, r3, #8388608	@ 0x800000
 800256e:	2b00      	cmp	r3, #0
 8002570:	d121      	bne.n	80025b6 <HAL_ADC_ConfigChannel+0x732>
      {
        if (ADC_TEMPERATURE_SENSOR_INSTANCE(hadc))
 8002572:	687b      	ldr	r3, [r7, #4]
 8002574:	681b      	ldr	r3, [r3, #0]
 8002576:	f1b3 4fa0 	cmp.w	r3, #1342177280	@ 0x50000000
 800257a:	d157      	bne.n	800262c <HAL_ADC_ConfigChannel+0x7a8>
        {
          LL_ADC_SetCommonPathInternalCh(__LL_ADC_COMMON_INSTANCE(hadc->Instance),
 800257c:	f8d7 30c4 	ldr.w	r3, [r7, #196]	@ 0xc4
 8002580:	f443 0300 	orr.w	r3, r3, #8388608	@ 0x800000
 8002584:	4619      	mov	r1, r3
 8002586:	482f      	ldr	r0, [pc, #188]	@ (8002644 <HAL_ADC_ConfigChannel+0x7c0>)
 8002588:	f7fe fddf 	bl	800114a <LL_ADC_SetCommonPathInternalCh>
          /* Delay for temperature sensor stabilization time */
          /* Wait loop initialization and execution */
          /* Note: Variable divided by 2 to compensate partially              */
          /*       CPU processing cycles, scaling in us split to not          */
          /*       exceed 32 bits register capacity and handle low frequency. */
          wait_loop_index = ((LL_ADC_DELAY_TEMPSENSOR_STAB_US / 10UL) * ((SystemCoreClock / (100000UL * 2UL)) + 1UL));
 800258c:	4b30      	ldr	r3, [pc, #192]	@ (8002650 <HAL_ADC_ConfigChannel+0x7cc>)
 800258e:	681b      	ldr	r3, [r3, #0]
 8002590:	099b      	lsrs	r3, r3, #6
 8002592:	4a30      	ldr	r2, [pc, #192]	@ (8002654 <HAL_ADC_ConfigChannel+0x7d0>)
 8002594:	fba2 2303 	umull	r2, r3, r2, r3
 8002598:	099b      	lsrs	r3, r3, #6
 800259a:	1c5a      	adds	r2, r3, #1
 800259c:	4613      	mov	r3, r2
 800259e:	005b      	lsls	r3, r3, #1
 80025a0:	4413      	add	r3, r2
 80025a2:	009b      	lsls	r3, r3, #2
 80025a4:	60fb      	str	r3, [r7, #12]
          while (wait_loop_index != 0UL)
 80025a6:	e002      	b.n	80025ae <HAL_ADC_ConfigChannel+0x72a>
          {
            wait_loop_index--;
 80025a8:	68fb      	ldr	r3, [r7, #12]
 80025aa:	3b01      	subs	r3, #1
 80025ac:	60fb      	str	r3, [r7, #12]
          while (wait_loop_index != 0UL)
 80025ae:	68fb      	ldr	r3, [r7, #12]
 80025b0:	2b00      	cmp	r3, #0
 80025b2:	d1f9      	bne.n	80025a8 <HAL_ADC_ConfigChannel+0x724>
        if (ADC_TEMPERATURE_SENSOR_INSTANCE(hadc))
 80025b4:	e03a      	b.n	800262c <HAL_ADC_ConfigChannel+0x7a8>
          }
        }
      }
      else if ((pConfig->Channel == ADC_CHANNEL_VBAT)
 80025b6:	683b      	ldr	r3, [r7, #0]
 80025b8:	681b      	ldr	r3, [r3, #0]
 80025ba:	4a27      	ldr	r2, [pc, #156]	@ (8002658 <HAL_ADC_ConfigChannel+0x7d4>)
 80025bc:	4293      	cmp	r3, r2
 80025be:	d113      	bne.n	80025e8 <HAL_ADC_ConfigChannel+0x764>
               && ((tmp_config_internal_channel & LL_ADC_PATH_INTERNAL_VBAT) == 0UL))
 80025c0:	f8d7 30c4 	ldr.w	r3, [r7, #196]	@ 0xc4
 80025c4:	f003 7380 	and.w	r3, r3, #16777216	@ 0x1000000
 80025c8:	2b00      	cmp	r3, #0
 80025ca:	d10d      	bne.n	80025e8 <HAL_ADC_ConfigChannel+0x764>
      {
        if (ADC_BATTERY_VOLTAGE_INSTANCE(hadc))
 80025cc:	687b      	ldr	r3, [r7, #4]
 80025ce:	681b      	ldr	r3, [r3, #0]
 80025d0:	4a22      	ldr	r2, [pc, #136]	@ (800265c <HAL_ADC_ConfigChannel+0x7d8>)
 80025d2:	4293      	cmp	r3, r2
 80025d4:	d02a      	beq.n	800262c <HAL_ADC_ConfigChannel+0x7a8>
        {
          LL_ADC_SetCommonPathInternalCh(__LL_ADC_COMMON_INSTANCE(hadc->Instance),
 80025d6:	f8d7 30c4 	ldr.w	r3, [r7, #196]	@ 0xc4
 80025da:	f043 7380 	orr.w	r3, r3, #16777216	@ 0x1000000
 80025de:	4619      	mov	r1, r3
 80025e0:	4818      	ldr	r0, [pc, #96]	@ (8002644 <HAL_ADC_ConfigChannel+0x7c0>)
 80025e2:	f7fe fdb2 	bl	800114a <LL_ADC_SetCommonPathInternalCh>
        if (ADC_BATTERY_VOLTAGE_INSTANCE(hadc))
 80025e6:	e021      	b.n	800262c <HAL_ADC_ConfigChannel+0x7a8>
                                         LL_ADC_PATH_INTERNAL_VBAT | tmp_config_internal_channel);
        }
      }
      else if ((pConfig->Channel == ADC_CHANNEL_VREFINT)
 80025e8:	683b      	ldr	r3, [r7, #0]
 80025ea:	681b      	ldr	r3, [r3, #0]
 80025ec:	4a1c      	ldr	r2, [pc, #112]	@ (8002660 <HAL_ADC_ConfigChannel+0x7dc>)
 80025ee:	4293      	cmp	r3, r2
 80025f0:	d11c      	bne.n	800262c <HAL_ADC_ConfigChannel+0x7a8>
               && ((tmp_config_internal_channel & LL_ADC_PATH_INTERNAL_VREFINT) == 0UL))
 80025f2:	f8d7 30c4 	ldr.w	r3, [r7, #196]	@ 0xc4
 80025f6:	f403 0380 	and.w	r3, r3, #4194304	@ 0x400000
 80025fa:	2b00      	cmp	r3, #0
 80025fc:	d116      	bne.n	800262c <HAL_ADC_ConfigChannel+0x7a8>
      {
        if (ADC_VREFINT_INSTANCE(hadc))
 80025fe:	687b      	ldr	r3, [r7, #4]
 8002600:	681b      	ldr	r3, [r3, #0]
 8002602:	4a16      	ldr	r2, [pc, #88]	@ (800265c <HAL_ADC_ConfigChannel+0x7d8>)
 8002604:	4293      	cmp	r3, r2
 8002606:	d011      	beq.n	800262c <HAL_ADC_ConfigChannel+0x7a8>
        {
          LL_ADC_SetCommonPathInternalCh(__LL_ADC_COMMON_INSTANCE(hadc->Instance),
 8002608:	f8d7 30c4 	ldr.w	r3, [r7, #196]	@ 0xc4
 800260c:	f443 0380 	orr.w	r3, r3, #4194304	@ 0x400000
 8002610:	4619      	mov	r1, r3
 8002612:	480c      	ldr	r0, [pc, #48]	@ (8002644 <HAL_ADC_ConfigChannel+0x7c0>)
 8002614:	f7fe fd99 	bl	800114a <LL_ADC_SetCommonPathInternalCh>
 8002618:	e008      	b.n	800262c <HAL_ADC_ConfigChannel+0x7a8>
  /* channel could be done on neither of the channel configuration structure  */
  /* parameters.                                                              */
  else
  {
    /* Update ADC state machine to error */
    SET_BIT(hadc->State, HAL_ADC_STATE_ERROR_CONFIG);
 800261a:	687b      	ldr	r3, [r7, #4]
 800261c:	6ddb      	ldr	r3, [r3, #92]	@ 0x5c
 800261e:	f043 0220 	orr.w	r2, r3, #32
 8002622:	687b      	ldr	r3, [r7, #4]
 8002624:	65da      	str	r2, [r3, #92]	@ 0x5c

    tmp_hal_status = HAL_ERROR;
 8002626:	2301      	movs	r3, #1
 8002628:	f887 30d7 	strb.w	r3, [r7, #215]	@ 0xd7
  }

  /* Process unlocked */
  __HAL_UNLOCK(hadc);
 800262c:	687b      	ldr	r3, [r7, #4]
 800262e:	2200      	movs	r2, #0
 8002630:	f883 2058 	strb.w	r2, [r3, #88]	@ 0x58

  /* Return function status */
  return tmp_hal_status;
 8002634:	f897 30d7 	ldrb.w	r3, [r7, #215]	@ 0xd7
}
 8002638:	4618      	mov	r0, r3
 800263a:	37d8      	adds	r7, #216	@ 0xd8
 800263c:	46bd      	mov	sp, r7
 800263e:	bd80      	pop	{r7, pc}
 8002640:	80080000 	.word	0x80080000
 8002644:	50000300 	.word	0x50000300
 8002648:	c3210000 	.word	0xc3210000
 800264c:	90c00010 	.word	0x90c00010
 8002650:	20000000 	.word	0x20000000
 8002654:	053e2d63 	.word	0x053e2d63
 8002658:	c7520000 	.word	0xc7520000
 800265c:	50000100 	.word	0x50000100
 8002660:	cb840000 	.word	0xcb840000

08002664 <ADC_Enable>:
  *         and voltage regulator must be enabled (done into HAL_ADC_Init()).
  * @param hadc ADC handle
  * @retval HAL status.
  */
HAL_StatusTypeDef ADC_Enable(ADC_HandleTypeDef *hadc)
{
 8002664:	b580      	push	{r7, lr}
 8002666:	b084      	sub	sp, #16
 8002668:	af00      	add	r7, sp, #0
 800266a:	6078      	str	r0, [r7, #4]
  uint32_t tickstart;
  __IO uint32_t wait_loop_index = 0UL;
 800266c:	2300      	movs	r3, #0
 800266e:	60bb      	str	r3, [r7, #8]

  /* ADC enable and wait for ADC ready (in case of ADC is disabled or         */
  /* enabling phase not yet completed: flag ADC ready not yet set).           */
  /* Timeout implemented to not be stuck if ADC cannot be enabled (possible   */
  /* causes: ADC clock not running, ...).                                     */
  if (LL_ADC_IsEnabled(hadc->Instance) == 0UL)
 8002670:	687b      	ldr	r3, [r7, #4]
 8002672:	681b      	ldr	r3, [r3, #0]
 8002674:	4618      	mov	r0, r3
 8002676:	f7fe ff47 	bl	8001508 <LL_ADC_IsEnabled>
 800267a:	4603      	mov	r3, r0
 800267c:	2b00      	cmp	r3, #0
 800267e:	d169      	bne.n	8002754 <ADC_Enable+0xf0>
  {
    /* Check if conditions to enable the ADC are fulfilled */
    if ((hadc->Instance->CR & (ADC_CR_ADCAL | ADC_CR_JADSTP | ADC_CR_ADSTP | ADC_CR_JADSTART | ADC_CR_ADSTART
 8002680:	687b      	ldr	r3, [r7, #4]
 8002682:	681b      	ldr	r3, [r3, #0]
 8002684:	689a      	ldr	r2, [r3, #8]
 8002686:	4b36      	ldr	r3, [pc, #216]	@ (8002760 <ADC_Enable+0xfc>)
 8002688:	4013      	ands	r3, r2
 800268a:	2b00      	cmp	r3, #0
 800268c:	d00d      	beq.n	80026aa <ADC_Enable+0x46>
                               | ADC_CR_ADDIS | ADC_CR_ADEN)) != 0UL)
    {
      /* Update ADC state machine to error */
      SET_BIT(hadc->State, HAL_ADC_STATE_ERROR_INTERNAL);
 800268e:	687b      	ldr	r3, [r7, #4]
 8002690:	6ddb      	ldr	r3, [r3, #92]	@ 0x5c
 8002692:	f043 0210 	orr.w	r2, r3, #16
 8002696:	687b      	ldr	r3, [r7, #4]
 8002698:	65da      	str	r2, [r3, #92]	@ 0x5c

      /* Set ADC error code to ADC peripheral internal error */
      SET_BIT(hadc->ErrorCode, HAL_ADC_ERROR_INTERNAL);
 800269a:	687b      	ldr	r3, [r7, #4]
 800269c:	6e1b      	ldr	r3, [r3, #96]	@ 0x60
 800269e:	f043 0201 	orr.w	r2, r3, #1
 80026a2:	687b      	ldr	r3, [r7, #4]
 80026a4:	661a      	str	r2, [r3, #96]	@ 0x60

      return HAL_ERROR;
 80026a6:	2301      	movs	r3, #1
 80026a8:	e055      	b.n	8002756 <ADC_Enable+0xf2>
    }

    /* Enable the ADC peripheral */
    LL_ADC_Enable(hadc->Instance);
 80026aa:	687b      	ldr	r3, [r7, #4]
 80026ac:	681b      	ldr	r3, [r3, #0]
 80026ae:	4618      	mov	r0, r3
 80026b0:	f7fe ff16 	bl	80014e0 <LL_ADC_Enable>

    if ((LL_ADC_GetCommonPathInternalCh(__LL_ADC_COMMON_INSTANCE(hadc->Instance))
 80026b4:	482b      	ldr	r0, [pc, #172]	@ (8002764 <ADC_Enable+0x100>)
 80026b6:	f7fe fd5b 	bl	8001170 <LL_ADC_GetCommonPathInternalCh>
 80026ba:	4603      	mov	r3, r0
         & LL_ADC_PATH_INTERNAL_TEMPSENSOR) != 0UL)
 80026bc:	f403 0300 	and.w	r3, r3, #8388608	@ 0x800000
    if ((LL_ADC_GetCommonPathInternalCh(__LL_ADC_COMMON_INSTANCE(hadc->Instance))
 80026c0:	2b00      	cmp	r3, #0
 80026c2:	d013      	beq.n	80026ec <ADC_Enable+0x88>

      /* Wait loop initialization and execution */
      /* Note: Variable divided by 2 to compensate partially              */
      /*       CPU processing cycles, scaling in us split to not          */
      /*       exceed 32 bits register capacity and handle low frequency. */
      wait_loop_index = ((LL_ADC_DELAY_TEMPSENSOR_STAB_US / 10UL) * ((SystemCoreClock / (100000UL * 2UL)) + 1UL));
 80026c4:	4b28      	ldr	r3, [pc, #160]	@ (8002768 <ADC_Enable+0x104>)
 80026c6:	681b      	ldr	r3, [r3, #0]
 80026c8:	099b      	lsrs	r3, r3, #6
 80026ca:	4a28      	ldr	r2, [pc, #160]	@ (800276c <ADC_Enable+0x108>)
 80026cc:	fba2 2303 	umull	r2, r3, r2, r3
 80026d0:	099b      	lsrs	r3, r3, #6
 80026d2:	1c5a      	adds	r2, r3, #1
 80026d4:	4613      	mov	r3, r2
 80026d6:	005b      	lsls	r3, r3, #1
 80026d8:	4413      	add	r3, r2
 80026da:	009b      	lsls	r3, r3, #2
 80026dc:	60bb      	str	r3, [r7, #8]
      while (wait_loop_index != 0UL)
 80026de:	e002      	b.n	80026e6 <ADC_Enable+0x82>
      {
        wait_loop_index--;
 80026e0:	68bb      	ldr	r3, [r7, #8]
 80026e2:	3b01      	subs	r3, #1
 80026e4:	60bb      	str	r3, [r7, #8]
      while (wait_loop_index != 0UL)
 80026e6:	68bb      	ldr	r3, [r7, #8]
 80026e8:	2b00      	cmp	r3, #0
 80026ea:	d1f9      	bne.n	80026e0 <ADC_Enable+0x7c>
      }
    }

    /* Wait for ADC effectively enabled */
    tickstart = HAL_GetTick();
 80026ec:	f7fe fd0e 	bl	800110c <HAL_GetTick>
 80026f0:	60f8      	str	r0, [r7, #12]

    while (__HAL_ADC_GET_FLAG(hadc, ADC_FLAG_RDY) == 0UL)
 80026f2:	e028      	b.n	8002746 <ADC_Enable+0xe2>
          The workaround is to continue setting ADEN until ADRDY is becomes 1.
          Additionally, ADC_ENABLE_TIMEOUT is defined to encompass this
          4 ADC clock cycle duration */
      /* Note: Test of ADC enabled required due to hardware constraint to     */
      /*       not enable ADC if already enabled.                             */
      if (LL_ADC_IsEnabled(hadc->Instance) == 0UL)
 80026f4:	687b      	ldr	r3, [r7, #4]
 80026f6:	681b      	ldr	r3, [r3, #0]
 80026f8:	4618      	mov	r0, r3
 80026fa:	f7fe ff05 	bl	8001508 <LL_ADC_IsEnabled>
 80026fe:	4603      	mov	r3, r0
 8002700:	2b00      	cmp	r3, #0
 8002702:	d104      	bne.n	800270e <ADC_Enable+0xaa>
      {
        LL_ADC_Enable(hadc->Instance);
 8002704:	687b      	ldr	r3, [r7, #4]
 8002706:	681b      	ldr	r3, [r3, #0]
 8002708:	4618      	mov	r0, r3
 800270a:	f7fe fee9 	bl	80014e0 <LL_ADC_Enable>
      }

      if ((HAL_GetTick() - tickstart) > ADC_ENABLE_TIMEOUT)
 800270e:	f7fe fcfd 	bl	800110c <HAL_GetTick>
 8002712:	4602      	mov	r2, r0
 8002714:	68fb      	ldr	r3, [r7, #12]
 8002716:	1ad3      	subs	r3, r2, r3
 8002718:	2b02      	cmp	r3, #2
 800271a:	d914      	bls.n	8002746 <ADC_Enable+0xe2>
      {
        /* New check to avoid false timeout detection in case of preemption */
        if (__HAL_ADC_GET_FLAG(hadc, ADC_FLAG_RDY) == 0UL)
 800271c:	687b      	ldr	r3, [r7, #4]
 800271e:	681b      	ldr	r3, [r3, #0]
 8002720:	681b      	ldr	r3, [r3, #0]
 8002722:	f003 0301 	and.w	r3, r3, #1
 8002726:	2b01      	cmp	r3, #1
 8002728:	d00d      	beq.n	8002746 <ADC_Enable+0xe2>
        {
          /* Update ADC state machine to error */
          SET_BIT(hadc->State, HAL_ADC_STATE_ERROR_INTERNAL);
 800272a:	687b      	ldr	r3, [r7, #4]
 800272c:	6ddb      	ldr	r3, [r3, #92]	@ 0x5c
 800272e:	f043 0210 	orr.w	r2, r3, #16
 8002732:	687b      	ldr	r3, [r7, #4]
 8002734:	65da      	str	r2, [r3, #92]	@ 0x5c

          /* Set ADC error code to ADC peripheral internal error */
          SET_BIT(hadc->ErrorCode, HAL_ADC_ERROR_INTERNAL);
 8002736:	687b      	ldr	r3, [r7, #4]
 8002738:	6e1b      	ldr	r3, [r3, #96]	@ 0x60
 800273a:	f043 0201 	orr.w	r2, r3, #1
 800273e:	687b      	ldr	r3, [r7, #4]
 8002740:	661a      	str	r2, [r3, #96]	@ 0x60

          return HAL_ERROR;
 8002742:	2301      	movs	r3, #1
 8002744:	e007      	b.n	8002756 <ADC_Enable+0xf2>
    while (__HAL_ADC_GET_FLAG(hadc, ADC_FLAG_RDY) == 0UL)
 8002746:	687b      	ldr	r3, [r7, #4]
 8002748:	681b      	ldr	r3, [r3, #0]
 800274a:	681b      	ldr	r3, [r3, #0]
 800274c:	f003 0301 	and.w	r3, r3, #1
 8002750:	2b01      	cmp	r3, #1
 8002752:	d1cf      	bne.n	80026f4 <ADC_Enable+0x90>
      }
    }
  }

  /* Return HAL status */
  return HAL_OK;
 8002754:	2300      	movs	r3, #0
}
 8002756:	4618      	mov	r0, r3
 8002758:	3710      	adds	r7, #16
 800275a:	46bd      	mov	sp, r7
 800275c:	bd80      	pop	{r7, pc}
 800275e:	bf00      	nop
 8002760:	8000003f 	.word	0x8000003f
 8002764:	50000300 	.word	0x50000300
 8002768:	20000000 	.word	0x20000000
 800276c:	053e2d63 	.word	0x053e2d63

08002770 <ADC_DMAConvCplt>:
  * @brief  DMA transfer complete callback.
  * @param hdma pointer to DMA handle.
  * @retval None
  */
void ADC_DMAConvCplt(DMA_HandleTypeDef *hdma)
{
 8002770:	b580      	push	{r7, lr}
 8002772:	b084      	sub	sp, #16
 8002774:	af00      	add	r7, sp, #0
 8002776:	6078      	str	r0, [r7, #4]
  /* Retrieve ADC handle corresponding to current DMA handle */
  ADC_HandleTypeDef *hadc = (ADC_HandleTypeDef *)((DMA_HandleTypeDef *)hdma)->Parent;
 8002778:	687b      	ldr	r3, [r7, #4]
 800277a:	6a9b      	ldr	r3, [r3, #40]	@ 0x28
 800277c:	60fb      	str	r3, [r7, #12]

  /* Update state machine on conversion status if not in error state */
  if ((hadc->State & (HAL_ADC_STATE_ERROR_INTERNAL | HAL_ADC_STATE_ERROR_DMA)) == 0UL)
 800277e:	68fb      	ldr	r3, [r7, #12]
 8002780:	6ddb      	ldr	r3, [r3, #92]	@ 0x5c
 8002782:	f003 0350 	and.w	r3, r3, #80	@ 0x50
 8002786:	2b00      	cmp	r3, #0
 8002788:	d14b      	bne.n	8002822 <ADC_DMAConvCplt+0xb2>
  {
    /* Set ADC state */
    SET_BIT(hadc->State, HAL_ADC_STATE_REG_EOC);
 800278a:	68fb      	ldr	r3, [r7, #12]
 800278c:	6ddb      	ldr	r3, [r3, #92]	@ 0x5c
 800278e:	f443 7200 	orr.w	r2, r3, #512	@ 0x200
 8002792:	68fb      	ldr	r3, [r7, #12]
 8002794:	65da      	str	r2, [r3, #92]	@ 0x5c

    /* Determine whether any further conversion upcoming on group regular     */
    /* by external trigger, continuous mode or scan sequence on going         */
    /* to disable interruption.                                               */
    /* Is it the end of the regular sequence ? */
    if ((hadc->Instance->ISR & ADC_FLAG_EOS) != 0UL)
 8002796:	68fb      	ldr	r3, [r7, #12]
 8002798:	681b      	ldr	r3, [r3, #0]
 800279a:	681b      	ldr	r3, [r3, #0]
 800279c:	f003 0308 	and.w	r3, r3, #8
 80027a0:	2b00      	cmp	r3, #0
 80027a2:	d021      	beq.n	80027e8 <ADC_DMAConvCplt+0x78>
    {
      /* Are conversions software-triggered ? */
      if (LL_ADC_REG_IsTriggerSourceSWStart(hadc->Instance) != 0UL)
 80027a4:	68fb      	ldr	r3, [r7, #12]
 80027a6:	681b      	ldr	r3, [r3, #0]
 80027a8:	4618      	mov	r0, r3
 80027aa:	f7fe fd8d 	bl	80012c8 <LL_ADC_REG_IsTriggerSourceSWStart>
 80027ae:	4603      	mov	r3, r0
 80027b0:	2b00      	cmp	r3, #0
 80027b2:	d032      	beq.n	800281a <ADC_DMAConvCplt+0xaa>
      {
        /* Is CONT bit set ? */
        if (READ_BIT(hadc->Instance->CFGR, ADC_CFGR_CONT) == 0UL)
 80027b4:	68fb      	ldr	r3, [r7, #12]
 80027b6:	681b      	ldr	r3, [r3, #0]
 80027b8:	68db      	ldr	r3, [r3, #12]
 80027ba:	f403 5300 	and.w	r3, r3, #8192	@ 0x2000
 80027be:	2b00      	cmp	r3, #0
 80027c0:	d12b      	bne.n	800281a <ADC_DMAConvCplt+0xaa>
        {
          /* CONT bit is not set, no more conversions expected */
          CLEAR_BIT(hadc->State, HAL_ADC_STATE_REG_BUSY);
 80027c2:	68fb      	ldr	r3, [r7, #12]
 80027c4:	6ddb      	ldr	r3, [r3, #92]	@ 0x5c
 80027c6:	f423 7280 	bic.w	r2, r3, #256	@ 0x100
 80027ca:	68fb      	ldr	r3, [r7, #12]
 80027cc:	65da      	str	r2, [r3, #92]	@ 0x5c
          if ((hadc->State & HAL_ADC_STATE_INJ_BUSY) == 0UL)
 80027ce:	68fb      	ldr	r3, [r7, #12]
 80027d0:	6ddb      	ldr	r3, [r3, #92]	@ 0x5c
 80027d2:	f403 5380 	and.w	r3, r3, #4096	@ 0x1000
 80027d6:	2b00      	cmp	r3, #0
 80027d8:	d11f      	bne.n	800281a <ADC_DMAConvCplt+0xaa>
          {
            SET_BIT(hadc->State, HAL_ADC_STATE_READY);
 80027da:	68fb      	ldr	r3, [r7, #12]
 80027dc:	6ddb      	ldr	r3, [r3, #92]	@ 0x5c
 80027de:	f043 0201 	orr.w	r2, r3, #1
 80027e2:	68fb      	ldr	r3, [r7, #12]
 80027e4:	65da      	str	r2, [r3, #92]	@ 0x5c
 80027e6:	e018      	b.n	800281a <ADC_DMAConvCplt+0xaa>
    }
    else
    {
      /* DMA End of Transfer interrupt was triggered but conversions sequence
         is not over. If DMACFG is set to 0, conversions are stopped. */
      if (READ_BIT(hadc->Instance->CFGR, ADC_CFGR_DMACFG) == 0UL)
 80027e8:	68fb      	ldr	r3, [r7, #12]
 80027ea:	681b      	ldr	r3, [r3, #0]
 80027ec:	68db      	ldr	r3, [r3, #12]
 80027ee:	f003 0302 	and.w	r3, r3, #2
 80027f2:	2b00      	cmp	r3, #0
 80027f4:	d111      	bne.n	800281a <ADC_DMAConvCplt+0xaa>
      {
        /* DMACFG bit is not set, conversions are stopped. */
        CLEAR_BIT(hadc->State, HAL_ADC_STATE_REG_BUSY);
 80027f6:	68fb      	ldr	r3, [r7, #12]
 80027f8:	6ddb      	ldr	r3, [r3, #92]	@ 0x5c
 80027fa:	f423 7280 	bic.w	r2, r3, #256	@ 0x100
 80027fe:	68fb      	ldr	r3, [r7, #12]
 8002800:	65da      	str	r2, [r3, #92]	@ 0x5c
        if ((hadc->State & HAL_ADC_STATE_INJ_BUSY) == 0UL)
 8002802:	68fb      	ldr	r3, [r7, #12]
 8002804:	6ddb      	ldr	r3, [r3, #92]	@ 0x5c
 8002806:	f403 5380 	and.w	r3, r3, #4096	@ 0x1000
 800280a:	2b00      	cmp	r3, #0
 800280c:	d105      	bne.n	800281a <ADC_DMAConvCplt+0xaa>
        {
          SET_BIT(hadc->State, HAL_ADC_STATE_READY);
 800280e:	68fb      	ldr	r3, [r7, #12]
 8002810:	6ddb      	ldr	r3, [r3, #92]	@ 0x5c
 8002812:	f043 0201 	orr.w	r2, r3, #1
 8002816:	68fb      	ldr	r3, [r7, #12]
 8002818:	65da      	str	r2, [r3, #92]	@ 0x5c

    /* Conversion complete callback */
#if (USE_HAL_ADC_REGISTER_CALLBACKS == 1)
    hadc->ConvCpltCallback(hadc);
#else
    HAL_ADC_ConvCpltCallback(hadc);
 800281a:	68f8      	ldr	r0, [r7, #12]
 800281c:	f7fd ff62 	bl	80006e4 <HAL_ADC_ConvCpltCallback>
    {
      /* Call ADC DMA error callback */
      hadc->DMA_Handle->XferErrorCallback(hdma);
    }
  }
}
 8002820:	e00e      	b.n	8002840 <ADC_DMAConvCplt+0xd0>
    if ((hadc->State & HAL_ADC_STATE_ERROR_INTERNAL) != 0UL)
 8002822:	68fb      	ldr	r3, [r7, #12]
 8002824:	6ddb      	ldr	r3, [r3, #92]	@ 0x5c
 8002826:	f003 0310 	and.w	r3, r3, #16
 800282a:	2b00      	cmp	r3, #0
 800282c:	d003      	beq.n	8002836 <ADC_DMAConvCplt+0xc6>
      HAL_ADC_ErrorCallback(hadc);
 800282e:	68f8      	ldr	r0, [r7, #12]
 8002830:	f7ff fb1e 	bl	8001e70 <HAL_ADC_ErrorCallback>
}
 8002834:	e004      	b.n	8002840 <ADC_DMAConvCplt+0xd0>
      hadc->DMA_Handle->XferErrorCallback(hdma);
 8002836:	68fb      	ldr	r3, [r7, #12]
 8002838:	6d5b      	ldr	r3, [r3, #84]	@ 0x54
 800283a:	6b5b      	ldr	r3, [r3, #52]	@ 0x34
 800283c:	6878      	ldr	r0, [r7, #4]
 800283e:	4798      	blx	r3
}
 8002840:	bf00      	nop
 8002842:	3710      	adds	r7, #16
 8002844:	46bd      	mov	sp, r7
 8002846:	bd80      	pop	{r7, pc}

08002848 <ADC_DMAHalfConvCplt>:
  * @brief  DMA half transfer complete callback.
  * @param hdma pointer to DMA handle.
  * @retval None
  */
void ADC_DMAHalfConvCplt(DMA_HandleTypeDef *hdma)
{
 8002848:	b580      	push	{r7, lr}
 800284a:	b084      	sub	sp, #16
 800284c:	af00      	add	r7, sp, #0
 800284e:	6078      	str	r0, [r7, #4]
  /* Retrieve ADC handle corresponding to current DMA handle */
  ADC_HandleTypeDef *hadc = (ADC_HandleTypeDef *)((DMA_HandleTypeDef *)hdma)->Parent;
 8002850:	687b      	ldr	r3, [r7, #4]
 8002852:	6a9b      	ldr	r3, [r3, #40]	@ 0x28
 8002854:	60fb      	str	r3, [r7, #12]

  /* Half conversion callback */
#if (USE_HAL_ADC_REGISTER_CALLBACKS == 1)
  hadc->ConvHalfCpltCallback(hadc);
#else
  HAL_ADC_ConvHalfCpltCallback(hadc);
 8002856:	68f8      	ldr	r0, [r7, #12]
 8002858:	f7ff faf6 	bl	8001e48 <HAL_ADC_ConvHalfCpltCallback>
#endif /* USE_HAL_ADC_REGISTER_CALLBACKS */
}
 800285c:	bf00      	nop
 800285e:	3710      	adds	r7, #16
 8002860:	46bd      	mov	sp, r7
 8002862:	bd80      	pop	{r7, pc}

08002864 <ADC_DMAError>:
  * @brief  DMA error callback.
  * @param hdma pointer to DMA handle.
  * @retval None
  */
void ADC_DMAError(DMA_HandleTypeDef *hdma)
{
 8002864:	b580      	push	{r7, lr}
 8002866:	b084      	sub	sp, #16
 8002868:	af00      	add	r7, sp, #0
 800286a:	6078      	str	r0, [r7, #4]
  /* Retrieve ADC handle corresponding to current DMA handle */
  ADC_HandleTypeDef *hadc = (ADC_HandleTypeDef *)((DMA_HandleTypeDef *)hdma)->Parent;
 800286c:	687b      	ldr	r3, [r7, #4]
 800286e:	6a9b      	ldr	r3, [r3, #40]	@ 0x28
 8002870:	60fb      	str	r3, [r7, #12]

  /* Set ADC state */
  SET_BIT(hadc->State, HAL_ADC_STATE_ERROR_DMA);
 8002872:	68fb      	ldr	r3, [r7, #12]
 8002874:	6ddb      	ldr	r3, [r3, #92]	@ 0x5c
 8002876:	f043 0240 	orr.w	r2, r3, #64	@ 0x40
 800287a:	68fb      	ldr	r3, [r7, #12]
 800287c:	65da      	str	r2, [r3, #92]	@ 0x5c

  /* Set ADC error code to DMA error */
  SET_BIT(hadc->ErrorCode, HAL_ADC_ERROR_DMA);
 800287e:	68fb      	ldr	r3, [r7, #12]
 8002880:	6e1b      	ldr	r3, [r3, #96]	@ 0x60
 8002882:	f043 0204 	orr.w	r2, r3, #4
 8002886:	68fb      	ldr	r3, [r7, #12]
 8002888:	661a      	str	r2, [r3, #96]	@ 0x60

  /* Error callback */
#if (USE_HAL_ADC_REGISTER_CALLBACKS == 1)
  hadc->ErrorCallback(hadc);
#else
  HAL_ADC_ErrorCallback(hadc);
 800288a:	68f8      	ldr	r0, [r7, #12]
 800288c:	f7ff faf0 	bl	8001e70 <HAL_ADC_ErrorCallback>
#endif /* USE_HAL_ADC_REGISTER_CALLBACKS */
}
 8002890:	bf00      	nop
 8002892:	3710      	adds	r7, #16
 8002894:	46bd      	mov	sp, r7
 8002896:	bd80      	pop	{r7, pc}

08002898 <HAL_ADCEx_InjectedConvCpltCallback>:
  * @brief  Injected conversion complete callback in non-blocking mode.
  * @param hadc ADC handle
  * @retval None
  */
__weak void HAL_ADCEx_InjectedConvCpltCallback(ADC_HandleTypeDef *hadc)
{
 8002898:	b480      	push	{r7}
 800289a:	b083      	sub	sp, #12
 800289c:	af00      	add	r7, sp, #0
 800289e:	6078      	str	r0, [r7, #4]
  UNUSED(hadc);

  /* NOTE : This function should not be modified. When the callback is needed,
            function HAL_ADCEx_InjectedConvCpltCallback must be implemented in the user file.
  */
}
 80028a0:	bf00      	nop
 80028a2:	370c      	adds	r7, #12
 80028a4:	46bd      	mov	sp, r7
 80028a6:	f85d 7b04 	ldr.w	r7, [sp], #4
 80028aa:	4770      	bx	lr

080028ac <HAL_ADCEx_InjectedQueueOverflowCallback>:
            contexts).
  * @param hadc ADC handle
  * @retval None
  */
__weak void HAL_ADCEx_InjectedQueueOverflowCallback(ADC_HandleTypeDef *hadc)
{
 80028ac:	b480      	push	{r7}
 80028ae:	b083      	sub	sp, #12
 80028b0:	af00      	add	r7, sp, #0
 80028b2:	6078      	str	r0, [r7, #4]
  UNUSED(hadc);

  /* NOTE : This function should not be modified. When the callback is needed,
            function HAL_ADCEx_InjectedQueueOverflowCallback must be implemented in the user file.
  */
}
 80028b4:	bf00      	nop
 80028b6:	370c      	adds	r7, #12
 80028b8:	46bd      	mov	sp, r7
 80028ba:	f85d 7b04 	ldr.w	r7, [sp], #4
 80028be:	4770      	bx	lr

080028c0 <HAL_ADCEx_LevelOutOfWindow2Callback>:
  * @brief  Analog watchdog 2 callback in non-blocking mode.
  * @param hadc ADC handle
  * @retval None
  */
__weak void HAL_ADCEx_LevelOutOfWindow2Callback(ADC_HandleTypeDef *hadc)
{
 80028c0:	b480      	push	{r7}
 80028c2:	b083      	sub	sp, #12
 80028c4:	af00      	add	r7, sp, #0
 80028c6:	6078      	str	r0, [r7, #4]
  UNUSED(hadc);

  /* NOTE : This function should not be modified. When the callback is needed,
            function HAL_ADCEx_LevelOutOfWindow2Callback must be implemented in the user file.
  */
}
 80028c8:	bf00      	nop
 80028ca:	370c      	adds	r7, #12
 80028cc:	46bd      	mov	sp, r7
 80028ce:	f85d 7b04 	ldr.w	r7, [sp], #4
 80028d2:	4770      	bx	lr

080028d4 <HAL_ADCEx_LevelOutOfWindow3Callback>:
  * @brief  Analog watchdog 3 callback in non-blocking mode.
  * @param hadc ADC handle
  * @retval None
  */
__weak void HAL_ADCEx_LevelOutOfWindow3Callback(ADC_HandleTypeDef *hadc)
{
 80028d4:	b480      	push	{r7}
 80028d6:	b083      	sub	sp, #12
 80028d8:	af00      	add	r7, sp, #0
 80028da:	6078      	str	r0, [r7, #4]
  UNUSED(hadc);

  /* NOTE : This function should not be modified. When the callback is needed,
            function HAL_ADCEx_LevelOutOfWindow3Callback must be implemented in the user file.
  */
}
 80028dc:	bf00      	nop
 80028de:	370c      	adds	r7, #12
 80028e0:	46bd      	mov	sp, r7
 80028e2:	f85d 7b04 	ldr.w	r7, [sp], #4
 80028e6:	4770      	bx	lr

080028e8 <HAL_ADCEx_EndOfSamplingCallback>:
  * @brief  End Of Sampling callback in non-blocking mode.
  * @param hadc ADC handle
  * @retval None
  */
__weak void HAL_ADCEx_EndOfSamplingCallback(ADC_HandleTypeDef *hadc)
{
 80028e8:	b480      	push	{r7}
 80028ea:	b083      	sub	sp, #12
 80028ec:	af00      	add	r7, sp, #0
 80028ee:	6078      	str	r0, [r7, #4]
  UNUSED(hadc);

  /* NOTE : This function should not be modified. When the callback is needed,
            function HAL_ADCEx_EndOfSamplingCallback must be implemented in the user file.
  */
}
 80028f0:	bf00      	nop
 80028f2:	370c      	adds	r7, #12
 80028f4:	46bd      	mov	sp, r7
 80028f6:	f85d 7b04 	ldr.w	r7, [sp], #4
 80028fa:	4770      	bx	lr

080028fc <__NVIC_SetPriorityGrouping>:
           In case of a conflict between priority grouping and available
           priority bits (__NVIC_PRIO_BITS), the smallest possible priority group is set.
  \param [in]      PriorityGroup  Priority grouping field.
 */
__STATIC_INLINE void __NVIC_SetPriorityGrouping(uint32_t PriorityGroup)
{
 80028fc:	b480      	push	{r7}
 80028fe:	b085      	sub	sp, #20
 8002900:	af00      	add	r7, sp, #0
 8002902:	6078      	str	r0, [r7, #4]
  uint32_t reg_value;
  uint32_t PriorityGroupTmp = (PriorityGroup & (uint32_t)0x07UL);             /* only values 0..7 are used          */
 8002904:	687b      	ldr	r3, [r7, #4]
 8002906:	f003 0307 	and.w	r3, r3, #7
 800290a:	60fb      	str	r3, [r7, #12]

  reg_value  =  SCB->AIRCR;                                                   /* read old register configuration    */
 800290c:	4b0c      	ldr	r3, [pc, #48]	@ (8002940 <__NVIC_SetPriorityGrouping+0x44>)
 800290e:	68db      	ldr	r3, [r3, #12]
 8002910:	60bb      	str	r3, [r7, #8]
  reg_value &= ~((uint32_t)(SCB_AIRCR_VECTKEY_Msk | SCB_AIRCR_PRIGROUP_Msk)); /* clear bits to change               */
 8002912:	68ba      	ldr	r2, [r7, #8]
 8002914:	f64f 03ff 	movw	r3, #63743	@ 0xf8ff
 8002918:	4013      	ands	r3, r2
 800291a:	60bb      	str	r3, [r7, #8]
  reg_value  =  (reg_value                                   |
                ((uint32_t)0x5FAUL << SCB_AIRCR_VECTKEY_Pos) |
                (PriorityGroupTmp << SCB_AIRCR_PRIGROUP_Pos)  );              /* Insert write key and priority group */
 800291c:	68fb      	ldr	r3, [r7, #12]
 800291e:	021a      	lsls	r2, r3, #8
                ((uint32_t)0x5FAUL << SCB_AIRCR_VECTKEY_Pos) |
 8002920:	68bb      	ldr	r3, [r7, #8]
 8002922:	4313      	orrs	r3, r2
  reg_value  =  (reg_value                                   |
 8002924:	f043 63bf 	orr.w	r3, r3, #100139008	@ 0x5f80000
 8002928:	f443 3300 	orr.w	r3, r3, #131072	@ 0x20000
 800292c:	60bb      	str	r3, [r7, #8]
  SCB->AIRCR =  reg_value;
 800292e:	4a04      	ldr	r2, [pc, #16]	@ (8002940 <__NVIC_SetPriorityGrouping+0x44>)
 8002930:	68bb      	ldr	r3, [r7, #8]
 8002932:	60d3      	str	r3, [r2, #12]
}
 8002934:	bf00      	nop
 8002936:	3714      	adds	r7, #20
 8002938:	46bd      	mov	sp, r7
 800293a:	f85d 7b04 	ldr.w	r7, [sp], #4
 800293e:	4770      	bx	lr
 8002940:	e000ed00 	.word	0xe000ed00

08002944 <__NVIC_GetPriorityGrouping>:
  \brief   Get Priority Grouping
  \details Reads the priority grouping field from the NVIC Interrupt Controller.
  \return                Priority grouping field (SCB->AIRCR [10:8] PRIGROUP field).
 */
__STATIC_INLINE uint32_t __NVIC_GetPriorityGrouping(void)
{
 8002944:	b480      	push	{r7}
 8002946:	af00      	add	r7, sp, #0
  return ((uint32_t)((SCB->AIRCR & SCB_AIRCR_PRIGROUP_Msk) >> SCB_AIRCR_PRIGROUP_Pos));
 8002948:	4b04      	ldr	r3, [pc, #16]	@ (800295c <__NVIC_GetPriorityGrouping+0x18>)
 800294a:	68db      	ldr	r3, [r3, #12]
 800294c:	0a1b      	lsrs	r3, r3, #8
 800294e:	f003 0307 	and.w	r3, r3, #7
}
 8002952:	4618      	mov	r0, r3
 8002954:	46bd      	mov	sp, r7
 8002956:	f85d 7b04 	ldr.w	r7, [sp], #4
 800295a:	4770      	bx	lr
 800295c:	e000ed00 	.word	0xe000ed00

08002960 <__NVIC_EnableIRQ>:
  \details Enables a device specific interrupt in the NVIC interrupt controller.
  \param [in]      IRQn  Device specific interrupt number.
  \note    IRQn must not be negative.
 */
__STATIC_INLINE void __NVIC_EnableIRQ(IRQn_Type IRQn)
{
 8002960:	b480      	push	{r7}
 8002962:	b083      	sub	sp, #12
 8002964:	af00      	add	r7, sp, #0
 8002966:	4603      	mov	r3, r0
 8002968:	71fb      	strb	r3, [r7, #7]
  if ((int32_t)(IRQn) >= 0)
 800296a:	f997 3007 	ldrsb.w	r3, [r7, #7]
 800296e:	2b00      	cmp	r3, #0
 8002970:	db0b      	blt.n	800298a <__NVIC_EnableIRQ+0x2a>
  {
    __COMPILER_BARRIER();
    NVIC->ISER[(((uint32_t)IRQn) >> 5UL)] = (uint32_t)(1UL << (((uint32_t)IRQn) & 0x1FUL));
 8002972:	79fb      	ldrb	r3, [r7, #7]
 8002974:	f003 021f 	and.w	r2, r3, #31
 8002978:	4907      	ldr	r1, [pc, #28]	@ (8002998 <__NVIC_EnableIRQ+0x38>)
 800297a:	f997 3007 	ldrsb.w	r3, [r7, #7]
 800297e:	095b      	lsrs	r3, r3, #5
 8002980:	2001      	movs	r0, #1
 8002982:	fa00 f202 	lsl.w	r2, r0, r2
 8002986:	f841 2023 	str.w	r2, [r1, r3, lsl #2]
    __COMPILER_BARRIER();
  }
}
 800298a:	bf00      	nop
 800298c:	370c      	adds	r7, #12
 800298e:	46bd      	mov	sp, r7
 8002990:	f85d 7b04 	ldr.w	r7, [sp], #4
 8002994:	4770      	bx	lr
 8002996:	bf00      	nop
 8002998:	e000e100 	.word	0xe000e100

0800299c <__NVIC_SetPriority>:
  \param [in]      IRQn  Interrupt number.
  \param [in]  priority  Priority to set.
  \note    The priority cannot be set for every processor exception.
 */
__STATIC_INLINE void __NVIC_SetPriority(IRQn_Type IRQn, uint32_t priority)
{
 800299c:	b480      	push	{r7}
 800299e:	b083      	sub	sp, #12
 80029a0:	af00      	add	r7, sp, #0
 80029a2:	4603      	mov	r3, r0
 80029a4:	6039      	str	r1, [r7, #0]
 80029a6:	71fb      	strb	r3, [r7, #7]
  if ((int32_t)(IRQn) >= 0)
 80029a8:	f997 3007 	ldrsb.w	r3, [r7, #7]
 80029ac:	2b00      	cmp	r3, #0
 80029ae:	db0a      	blt.n	80029c6 <__NVIC_SetPriority+0x2a>
  {
    NVIC->IP[((uint32_t)IRQn)]               = (uint8_t)((priority << (8U - __NVIC_PRIO_BITS)) & (uint32_t)0xFFUL);
 80029b0:	683b      	ldr	r3, [r7, #0]
 80029b2:	b2da      	uxtb	r2, r3
 80029b4:	490c      	ldr	r1, [pc, #48]	@ (80029e8 <__NVIC_SetPriority+0x4c>)
 80029b6:	f997 3007 	ldrsb.w	r3, [r7, #7]
 80029ba:	0112      	lsls	r2, r2, #4
 80029bc:	b2d2      	uxtb	r2, r2
 80029be:	440b      	add	r3, r1
 80029c0:	f883 2300 	strb.w	r2, [r3, #768]	@ 0x300
  }
  else
  {
    SCB->SHP[(((uint32_t)IRQn) & 0xFUL)-4UL] = (uint8_t)((priority << (8U - __NVIC_PRIO_BITS)) & (uint32_t)0xFFUL);
  }
}
 80029c4:	e00a      	b.n	80029dc <__NVIC_SetPriority+0x40>
    SCB->SHP[(((uint32_t)IRQn) & 0xFUL)-4UL] = (uint8_t)((priority << (8U - __NVIC_PRIO_BITS)) & (uint32_t)0xFFUL);
 80029c6:	683b      	ldr	r3, [r7, #0]
 80029c8:	b2da      	uxtb	r2, r3
 80029ca:	4908      	ldr	r1, [pc, #32]	@ (80029ec <__NVIC_SetPriority+0x50>)
 80029cc:	79fb      	ldrb	r3, [r7, #7]
 80029ce:	f003 030f 	and.w	r3, r3, #15
 80029d2:	3b04      	subs	r3, #4
 80029d4:	0112      	lsls	r2, r2, #4
 80029d6:	b2d2      	uxtb	r2, r2
 80029d8:	440b      	add	r3, r1
 80029da:	761a      	strb	r2, [r3, #24]
}
 80029dc:	bf00      	nop
 80029de:	370c      	adds	r7, #12
 80029e0:	46bd      	mov	sp, r7
 80029e2:	f85d 7b04 	ldr.w	r7, [sp], #4
 80029e6:	4770      	bx	lr
 80029e8:	e000e100 	.word	0xe000e100
 80029ec:	e000ed00 	.word	0xe000ed00

080029f0 <NVIC_EncodePriority>:
  \param [in]   PreemptPriority  Preemptive priority value (starting from 0).
  \param [in]       SubPriority  Subpriority value (starting from 0).
  \return                        Encoded priority. Value can be used in the function \ref NVIC_SetPriority().
 */
__STATIC_INLINE uint32_t NVIC_EncodePriority (uint32_t PriorityGroup, uint32_t PreemptPriority, uint32_t SubPriority)
{
 80029f0:	b480      	push	{r7}
 80029f2:	b089      	sub	sp, #36	@ 0x24
 80029f4:	af00      	add	r7, sp, #0
 80029f6:	60f8      	str	r0, [r7, #12]
 80029f8:	60b9      	str	r1, [r7, #8]
 80029fa:	607a      	str	r2, [r7, #4]
  uint32_t PriorityGroupTmp = (PriorityGroup & (uint32_t)0x07UL);   /* only values 0..7 are used          */
 80029fc:	68fb      	ldr	r3, [r7, #12]
 80029fe:	f003 0307 	and.w	r3, r3, #7
 8002a02:	61fb      	str	r3, [r7, #28]
  uint32_t PreemptPriorityBits;
  uint32_t SubPriorityBits;

  PreemptPriorityBits = ((7UL - PriorityGroupTmp) > (uint32_t)(__NVIC_PRIO_BITS)) ? (uint32_t)(__NVIC_PRIO_BITS) : (uint32_t)(7UL - PriorityGroupTmp);
 8002a04:	69fb      	ldr	r3, [r7, #28]
 8002a06:	f1c3 0307 	rsb	r3, r3, #7
 8002a0a:	2b04      	cmp	r3, #4
 8002a0c:	bf28      	it	cs
 8002a0e:	2304      	movcs	r3, #4
 8002a10:	61bb      	str	r3, [r7, #24]
  SubPriorityBits     = ((PriorityGroupTmp + (uint32_t)(__NVIC_PRIO_BITS)) < (uint32_t)7UL) ? (uint32_t)0UL : (uint32_t)((PriorityGroupTmp - 7UL) + (uint32_t)(__NVIC_PRIO_BITS));
 8002a12:	69fb      	ldr	r3, [r7, #28]
 8002a14:	3304      	adds	r3, #4
 8002a16:	2b06      	cmp	r3, #6
 8002a18:	d902      	bls.n	8002a20 <NVIC_EncodePriority+0x30>
 8002a1a:	69fb      	ldr	r3, [r7, #28]
 8002a1c:	3b03      	subs	r3, #3
 8002a1e:	e000      	b.n	8002a22 <NVIC_EncodePriority+0x32>
 8002a20:	2300      	movs	r3, #0
 8002a22:	617b      	str	r3, [r7, #20]

  return (
           ((PreemptPriority & (uint32_t)((1UL << (PreemptPriorityBits)) - 1UL)) << SubPriorityBits) |
 8002a24:	f04f 32ff 	mov.w	r2, #4294967295	@ 0xffffffff
 8002a28:	69bb      	ldr	r3, [r7, #24]
 8002a2a:	fa02 f303 	lsl.w	r3, r2, r3
 8002a2e:	43da      	mvns	r2, r3
 8002a30:	68bb      	ldr	r3, [r7, #8]
 8002a32:	401a      	ands	r2, r3
 8002a34:	697b      	ldr	r3, [r7, #20]
 8002a36:	409a      	lsls	r2, r3
           ((SubPriority     & (uint32_t)((1UL << (SubPriorityBits    )) - 1UL)))
 8002a38:	f04f 31ff 	mov.w	r1, #4294967295	@ 0xffffffff
 8002a3c:	697b      	ldr	r3, [r7, #20]
 8002a3e:	fa01 f303 	lsl.w	r3, r1, r3
 8002a42:	43d9      	mvns	r1, r3
 8002a44:	687b      	ldr	r3, [r7, #4]
 8002a46:	400b      	ands	r3, r1
           ((PreemptPriority & (uint32_t)((1UL << (PreemptPriorityBits)) - 1UL)) << SubPriorityBits) |
 8002a48:	4313      	orrs	r3, r2
         );
}
 8002a4a:	4618      	mov	r0, r3
 8002a4c:	3724      	adds	r7, #36	@ 0x24
 8002a4e:	46bd      	mov	sp, r7
 8002a50:	f85d 7b04 	ldr.w	r7, [sp], #4
 8002a54:	4770      	bx	lr
	...

08002a58 <SysTick_Config>:
  \note    When the variable <b>__Vendor_SysTickConfig</b> is set to 1, then the
           function <b>SysTick_Config</b> is not included. In this case, the file <b><i>device</i>.h</b>
           must contain a vendor-specific implementation of this function.
 */
__STATIC_INLINE uint32_t SysTick_Config(uint32_t ticks)
{
 8002a58:	b580      	push	{r7, lr}
 8002a5a:	b082      	sub	sp, #8
 8002a5c:	af00      	add	r7, sp, #0
 8002a5e:	6078      	str	r0, [r7, #4]
  if ((ticks - 1UL) > SysTick_LOAD_RELOAD_Msk)
 8002a60:	687b      	ldr	r3, [r7, #4]
 8002a62:	3b01      	subs	r3, #1
 8002a64:	f1b3 7f80 	cmp.w	r3, #16777216	@ 0x1000000
 8002a68:	d301      	bcc.n	8002a6e <SysTick_Config+0x16>
  {
    return (1UL);                                                   /* Reload value impossible */
 8002a6a:	2301      	movs	r3, #1
 8002a6c:	e00f      	b.n	8002a8e <SysTick_Config+0x36>
  }

  SysTick->LOAD  = (uint32_t)(ticks - 1UL);                         /* set reload register */
 8002a6e:	4a0a      	ldr	r2, [pc, #40]	@ (8002a98 <SysTick_Config+0x40>)
 8002a70:	687b      	ldr	r3, [r7, #4]
 8002a72:	3b01      	subs	r3, #1
 8002a74:	6053      	str	r3, [r2, #4]
  NVIC_SetPriority (SysTick_IRQn, (1UL << __NVIC_PRIO_BITS) - 1UL); /* set Priority for Systick Interrupt */
 8002a76:	210f      	movs	r1, #15
 8002a78:	f04f 30ff 	mov.w	r0, #4294967295	@ 0xffffffff
 8002a7c:	f7ff ff8e 	bl	800299c <__NVIC_SetPriority>
  SysTick->VAL   = 0UL;                                             /* Load the SysTick Counter Value */
 8002a80:	4b05      	ldr	r3, [pc, #20]	@ (8002a98 <SysTick_Config+0x40>)
 8002a82:	2200      	movs	r2, #0
 8002a84:	609a      	str	r2, [r3, #8]
  SysTick->CTRL  = SysTick_CTRL_CLKSOURCE_Msk |
 8002a86:	4b04      	ldr	r3, [pc, #16]	@ (8002a98 <SysTick_Config+0x40>)
 8002a88:	2207      	movs	r2, #7
 8002a8a:	601a      	str	r2, [r3, #0]
                   SysTick_CTRL_TICKINT_Msk   |
                   SysTick_CTRL_ENABLE_Msk;                         /* Enable SysTick IRQ and SysTick Timer */
  return (0UL);                                                     /* Function successful */
 8002a8c:	2300      	movs	r3, #0
}
 8002a8e:	4618      	mov	r0, r3
 8002a90:	3708      	adds	r7, #8
 8002a92:	46bd      	mov	sp, r7
 8002a94:	bd80      	pop	{r7, pc}
 8002a96:	bf00      	nop
 8002a98:	e000e010 	.word	0xe000e010

08002a9c <HAL_NVIC_SetPriorityGrouping>:
  * @note   When the NVIC_PriorityGroup_0 is selected, IRQ pre-emption is no more possible.
  *         The pending IRQ priority will be managed only by the subpriority.
  * @retval None
  */
void HAL_NVIC_SetPriorityGrouping(uint32_t PriorityGroup)
{
 8002a9c:	b580      	push	{r7, lr}
 8002a9e:	b082      	sub	sp, #8
 8002aa0:	af00      	add	r7, sp, #0
 8002aa2:	6078      	str	r0, [r7, #4]
  /* Check the parameters */
  assert_param(IS_NVIC_PRIORITY_GROUP(PriorityGroup));

  /* Set the PRIGROUP[10:8] bits according to the PriorityGroup parameter value */
  NVIC_SetPriorityGrouping(PriorityGroup);
 8002aa4:	6878      	ldr	r0, [r7, #4]
 8002aa6:	f7ff ff29 	bl	80028fc <__NVIC_SetPriorityGrouping>
}
 8002aaa:	bf00      	nop
 8002aac:	3708      	adds	r7, #8
 8002aae:	46bd      	mov	sp, r7
 8002ab0:	bd80      	pop	{r7, pc}

08002ab2 <HAL_NVIC_SetPriority>:
  *         This parameter can be a value between 0 and 15
  *         A lower priority value indicates a higher priority.
  * @retval None
  */
void HAL_NVIC_SetPriority(IRQn_Type IRQn, uint32_t PreemptPriority, uint32_t SubPriority)
{
 8002ab2:	b580      	push	{r7, lr}
 8002ab4:	b086      	sub	sp, #24
 8002ab6:	af00      	add	r7, sp, #0
 8002ab8:	4603      	mov	r3, r0
 8002aba:	60b9      	str	r1, [r7, #8]
 8002abc:	607a      	str	r2, [r7, #4]
 8002abe:	73fb      	strb	r3, [r7, #15]

  /* Check the parameters */
  assert_param(IS_NVIC_SUB_PRIORITY(SubPriority));
  assert_param(IS_NVIC_PREEMPTION_PRIORITY(PreemptPriority));

  prioritygroup = NVIC_GetPriorityGrouping();
 8002ac0:	f7ff ff40 	bl	8002944 <__NVIC_GetPriorityGrouping>
 8002ac4:	6178      	str	r0, [r7, #20]

  NVIC_SetPriority(IRQn, NVIC_EncodePriority(prioritygroup, PreemptPriority, SubPriority));
 8002ac6:	687a      	ldr	r2, [r7, #4]
 8002ac8:	68b9      	ldr	r1, [r7, #8]
 8002aca:	6978      	ldr	r0, [r7, #20]
 8002acc:	f7ff ff90 	bl	80029f0 <NVIC_EncodePriority>
 8002ad0:	4602      	mov	r2, r0
 8002ad2:	f997 300f 	ldrsb.w	r3, [r7, #15]
 8002ad6:	4611      	mov	r1, r2
 8002ad8:	4618      	mov	r0, r3
 8002ada:	f7ff ff5f 	bl	800299c <__NVIC_SetPriority>
}
 8002ade:	bf00      	nop
 8002ae0:	3718      	adds	r7, #24
 8002ae2:	46bd      	mov	sp, r7
 8002ae4:	bd80      	pop	{r7, pc}

08002ae6 <HAL_NVIC_EnableIRQ>:
  *         This parameter can be an enumerator of IRQn_Type enumeration
  *         (For the complete STM32 Devices IRQ Channels list, please refer to the appropriate CMSIS device file (stm32g4xxxx.h))
  * @retval None
  */
void HAL_NVIC_EnableIRQ(IRQn_Type IRQn)
{
 8002ae6:	b580      	push	{r7, lr}
 8002ae8:	b082      	sub	sp, #8
 8002aea:	af00      	add	r7, sp, #0
 8002aec:	4603      	mov	r3, r0
 8002aee:	71fb      	strb	r3, [r7, #7]
  /* Check the parameters */
  assert_param(IS_NVIC_DEVICE_IRQ(IRQn));
  
  /* Enable interrupt */
  NVIC_EnableIRQ(IRQn);
 8002af0:	f997 3007 	ldrsb.w	r3, [r7, #7]
 8002af4:	4618      	mov	r0, r3
 8002af6:	f7ff ff33 	bl	8002960 <__NVIC_EnableIRQ>
}
 8002afa:	bf00      	nop
 8002afc:	3708      	adds	r7, #8
 8002afe:	46bd      	mov	sp, r7
 8002b00:	bd80      	pop	{r7, pc}

08002b02 <HAL_SYSTICK_Config>:
  * @param  TicksNumb: Specifies the ticks Number of ticks between two interrupts.
  * @retval status:  - 0  Function succeeded.
  *                  - 1  Function failed.
  */
uint32_t HAL_SYSTICK_Config(uint32_t TicksNumb)
{
 8002b02:	b580      	push	{r7, lr}
 8002b04:	b082      	sub	sp, #8
 8002b06:	af00      	add	r7, sp, #0
 8002b08:	6078      	str	r0, [r7, #4]
   return SysTick_Config(TicksNumb);
 8002b0a:	6878      	ldr	r0, [r7, #4]
 8002b0c:	f7ff ffa4 	bl	8002a58 <SysTick_Config>
 8002b10:	4603      	mov	r3, r0
}
 8002b12:	4618      	mov	r0, r3
 8002b14:	3708      	adds	r7, #8
 8002b16:	46bd      	mov	sp, r7
 8002b18:	bd80      	pop	{r7, pc}
	...

08002b1c <HAL_DMA_Init>:
  * @param  hdma Pointer to a DMA_HandleTypeDef structure that contains
  *               the configuration information for the specified DMA Channel.
  * @retval HAL status
  */
HAL_StatusTypeDef HAL_DMA_Init(DMA_HandleTypeDef *hdma)
{
 8002b1c:	b580      	push	{r7, lr}
 8002b1e:	b084      	sub	sp, #16
 8002b20:	af00      	add	r7, sp, #0
 8002b22:	6078      	str	r0, [r7, #4]
  uint32_t tmp;

  /* Check the DMA handle allocation */
  if (hdma == NULL)
 8002b24:	687b      	ldr	r3, [r7, #4]
 8002b26:	2b00      	cmp	r3, #0
 8002b28:	d101      	bne.n	8002b2e <HAL_DMA_Init+0x12>
  {
    return HAL_ERROR;
 8002b2a:	2301      	movs	r3, #1
 8002b2c:	e08d      	b.n	8002c4a <HAL_DMA_Init+0x12e>
  assert_param(IS_DMA_PRIORITY(hdma->Init.Priority));

  assert_param(IS_DMA_ALL_REQUEST(hdma->Init.Request));

  /* Compute the channel index */
  if ((uint32_t)(hdma->Instance) < (uint32_t)(DMA2_Channel1))
 8002b2e:	687b      	ldr	r3, [r7, #4]
 8002b30:	681b      	ldr	r3, [r3, #0]
 8002b32:	461a      	mov	r2, r3
 8002b34:	4b47      	ldr	r3, [pc, #284]	@ (8002c54 <HAL_DMA_Init+0x138>)
 8002b36:	429a      	cmp	r2, r3
 8002b38:	d80f      	bhi.n	8002b5a <HAL_DMA_Init+0x3e>
  {
    /* DMA1 */
    hdma->ChannelIndex = (((uint32_t)hdma->Instance - (uint32_t)DMA1_Channel1) / ((uint32_t)DMA1_Channel2 - (uint32_t)DMA1_Channel1)) << 2;
 8002b3a:	687b      	ldr	r3, [r7, #4]
 8002b3c:	681b      	ldr	r3, [r3, #0]
 8002b3e:	461a      	mov	r2, r3
 8002b40:	4b45      	ldr	r3, [pc, #276]	@ (8002c58 <HAL_DMA_Init+0x13c>)
 8002b42:	4413      	add	r3, r2
 8002b44:	4a45      	ldr	r2, [pc, #276]	@ (8002c5c <HAL_DMA_Init+0x140>)
 8002b46:	fba2 2303 	umull	r2, r3, r2, r3
 8002b4a:	091b      	lsrs	r3, r3, #4
 8002b4c:	009a      	lsls	r2, r3, #2
 8002b4e:	687b      	ldr	r3, [r7, #4]
 8002b50:	645a      	str	r2, [r3, #68]	@ 0x44
    hdma->DmaBaseAddress = DMA1;
 8002b52:	687b      	ldr	r3, [r7, #4]
 8002b54:	4a42      	ldr	r2, [pc, #264]	@ (8002c60 <HAL_DMA_Init+0x144>)
 8002b56:	641a      	str	r2, [r3, #64]	@ 0x40
 8002b58:	e00e      	b.n	8002b78 <HAL_DMA_Init+0x5c>
  }
  else
  {
    /* DMA2 */
    hdma->ChannelIndex = (((uint32_t)hdma->Instance - (uint32_t)DMA2_Channel1) / ((uint32_t)DMA2_Channel2 - (uint32_t)DMA2_Channel1)) << 2;
 8002b5a:	687b      	ldr	r3, [r7, #4]
 8002b5c:	681b      	ldr	r3, [r3, #0]
 8002b5e:	461a      	mov	r2, r3
 8002b60:	4b40      	ldr	r3, [pc, #256]	@ (8002c64 <HAL_DMA_Init+0x148>)
 8002b62:	4413      	add	r3, r2
 8002b64:	4a3d      	ldr	r2, [pc, #244]	@ (8002c5c <HAL_DMA_Init+0x140>)
 8002b66:	fba2 2303 	umull	r2, r3, r2, r3
 8002b6a:	091b      	lsrs	r3, r3, #4
 8002b6c:	009a      	lsls	r2, r3, #2
 8002b6e:	687b      	ldr	r3, [r7, #4]
 8002b70:	645a      	str	r2, [r3, #68]	@ 0x44
    hdma->DmaBaseAddress = DMA2;
 8002b72:	687b      	ldr	r3, [r7, #4]
 8002b74:	4a3c      	ldr	r2, [pc, #240]	@ (8002c68 <HAL_DMA_Init+0x14c>)
 8002b76:	641a      	str	r2, [r3, #64]	@ 0x40
  }

  /* Change DMA peripheral state */
  hdma->State = HAL_DMA_STATE_BUSY;
 8002b78:	687b      	ldr	r3, [r7, #4]
 8002b7a:	2202      	movs	r2, #2
 8002b7c:	f883 2025 	strb.w	r2, [r3, #37]	@ 0x25

  /* Get the CR register value */
  tmp = hdma->Instance->CCR;
 8002b80:	687b      	ldr	r3, [r7, #4]
 8002b82:	681b      	ldr	r3, [r3, #0]
 8002b84:	681b      	ldr	r3, [r3, #0]
 8002b86:	60fb      	str	r3, [r7, #12]

  /* Clear PL, MSIZE, PSIZE, MINC, PINC, CIRC, DIR and MEM2MEM bits */
  tmp &= ((uint32_t)~(DMA_CCR_PL    | DMA_CCR_MSIZE  | DMA_CCR_PSIZE  |
 8002b88:	68fb      	ldr	r3, [r7, #12]
 8002b8a:	f423 43ff 	bic.w	r3, r3, #32640	@ 0x7f80
 8002b8e:	f023 0370 	bic.w	r3, r3, #112	@ 0x70
 8002b92:	60fb      	str	r3, [r7, #12]
                      DMA_CCR_MINC  | DMA_CCR_PINC   | DMA_CCR_CIRC   |
                      DMA_CCR_DIR   | DMA_CCR_MEM2MEM));

  /* Prepare the DMA Channel configuration */
  tmp |=  hdma->Init.Direction        |
 8002b94:	687b      	ldr	r3, [r7, #4]
 8002b96:	689a      	ldr	r2, [r3, #8]
          hdma->Init.PeriphInc           | hdma->Init.MemInc           |
 8002b98:	687b      	ldr	r3, [r7, #4]
 8002b9a:	68db      	ldr	r3, [r3, #12]
  tmp |=  hdma->Init.Direction        |
 8002b9c:	431a      	orrs	r2, r3
          hdma->Init.PeriphInc           | hdma->Init.MemInc           |
 8002b9e:	687b      	ldr	r3, [r7, #4]
 8002ba0:	691b      	ldr	r3, [r3, #16]
 8002ba2:	431a      	orrs	r2, r3
          hdma->Init.PeriphDataAlignment | hdma->Init.MemDataAlignment |
 8002ba4:	687b      	ldr	r3, [r7, #4]
 8002ba6:	695b      	ldr	r3, [r3, #20]
          hdma->Init.PeriphInc           | hdma->Init.MemInc           |
 8002ba8:	431a      	orrs	r2, r3
          hdma->Init.PeriphDataAlignment | hdma->Init.MemDataAlignment |
 8002baa:	687b      	ldr	r3, [r7, #4]
 8002bac:	699b      	ldr	r3, [r3, #24]
 8002bae:	431a      	orrs	r2, r3
          hdma->Init.Mode                | hdma->Init.Priority;
 8002bb0:	687b      	ldr	r3, [r7, #4]
 8002bb2:	69db      	ldr	r3, [r3, #28]
          hdma->Init.PeriphDataAlignment | hdma->Init.MemDataAlignment |
 8002bb4:	431a      	orrs	r2, r3
          hdma->Init.Mode                | hdma->Init.Priority;
 8002bb6:	687b      	ldr	r3, [r7, #4]
 8002bb8:	6a1b      	ldr	r3, [r3, #32]
 8002bba:	4313      	orrs	r3, r2
  tmp |=  hdma->Init.Direction        |
 8002bbc:	68fa      	ldr	r2, [r7, #12]
 8002bbe:	4313      	orrs	r3, r2
 8002bc0:	60fb      	str	r3, [r7, #12]

  /* Write to DMA Channel CR register */
  hdma->Instance->CCR = tmp;
 8002bc2:	687b      	ldr	r3, [r7, #4]
 8002bc4:	681b      	ldr	r3, [r3, #0]
 8002bc6:	68fa      	ldr	r2, [r7, #12]
 8002bc8:	601a      	str	r2, [r3, #0]

  /* Initialize parameters for DMAMUX channel :
     DMAmuxChannel, DMAmuxChannelStatus and DMAmuxChannelStatusMask
  */
  DMA_CalcDMAMUXChannelBaseAndMask(hdma);
 8002bca:	6878      	ldr	r0, [r7, #4]
 8002bcc:	f000 f9b6 	bl	8002f3c <DMA_CalcDMAMUXChannelBaseAndMask>

  if (hdma->Init.Direction == DMA_MEMORY_TO_MEMORY)
 8002bd0:	687b      	ldr	r3, [r7, #4]
 8002bd2:	689b      	ldr	r3, [r3, #8]
 8002bd4:	f5b3 4f80 	cmp.w	r3, #16384	@ 0x4000
 8002bd8:	d102      	bne.n	8002be0 <HAL_DMA_Init+0xc4>
  {
    /* if memory to memory force the request to 0*/
    hdma->Init.Request = DMA_REQUEST_MEM2MEM;
 8002bda:	687b      	ldr	r3, [r7, #4]
 8002bdc:	2200      	movs	r2, #0
 8002bde:	605a      	str	r2, [r3, #4]
  }

  /* Set peripheral request  to DMAMUX channel */
  hdma->DMAmuxChannel->CCR = (hdma->Init.Request & DMAMUX_CxCR_DMAREQ_ID);
 8002be0:	687b      	ldr	r3, [r7, #4]
 8002be2:	685a      	ldr	r2, [r3, #4]
 8002be4:	687b      	ldr	r3, [r7, #4]
 8002be6:	6c9b      	ldr	r3, [r3, #72]	@ 0x48
 8002be8:	b2d2      	uxtb	r2, r2
 8002bea:	601a      	str	r2, [r3, #0]

  /* Clear the DMAMUX synchro overrun flag */
  hdma->DMAmuxChannelStatus->CFR = hdma->DMAmuxChannelStatusMask;
 8002bec:	687b      	ldr	r3, [r7, #4]
 8002bee:	6cdb      	ldr	r3, [r3, #76]	@ 0x4c
 8002bf0:	687a      	ldr	r2, [r7, #4]
 8002bf2:	6d12      	ldr	r2, [r2, #80]	@ 0x50
 8002bf4:	605a      	str	r2, [r3, #4]

  if (((hdma->Init.Request >  0U) && (hdma->Init.Request <= DMA_REQUEST_GENERATOR3)))
 8002bf6:	687b      	ldr	r3, [r7, #4]
 8002bf8:	685b      	ldr	r3, [r3, #4]
 8002bfa:	2b00      	cmp	r3, #0
 8002bfc:	d010      	beq.n	8002c20 <HAL_DMA_Init+0x104>
 8002bfe:	687b      	ldr	r3, [r7, #4]
 8002c00:	685b      	ldr	r3, [r3, #4]
 8002c02:	2b04      	cmp	r3, #4
 8002c04:	d80c      	bhi.n	8002c20 <HAL_DMA_Init+0x104>
  {
    /* Initialize parameters for DMAMUX request generator :
       DMAmuxRequestGen, DMAmuxRequestGenStatus and DMAmuxRequestGenStatusMask
    */
    DMA_CalcDMAMUXRequestGenBaseAndMask(hdma);
 8002c06:	6878      	ldr	r0, [r7, #4]
 8002c08:	f000 f9d6 	bl	8002fb8 <DMA_CalcDMAMUXRequestGenBaseAndMask>

    /* Reset the DMAMUX request generator register*/
    hdma->DMAmuxRequestGen->RGCR = 0U;
 8002c0c:	687b      	ldr	r3, [r7, #4]
 8002c0e:	6d5b      	ldr	r3, [r3, #84]	@ 0x54
 8002c10:	2200      	movs	r2, #0
 8002c12:	601a      	str	r2, [r3, #0]

    /* Clear the DMAMUX request generator overrun flag */
    hdma->DMAmuxRequestGenStatus->RGCFR = hdma->DMAmuxRequestGenStatusMask;
 8002c14:	687b      	ldr	r3, [r7, #4]
 8002c16:	6d9b      	ldr	r3, [r3, #88]	@ 0x58
 8002c18:	687a      	ldr	r2, [r7, #4]
 8002c1a:	6dd2      	ldr	r2, [r2, #92]	@ 0x5c
 8002c1c:	605a      	str	r2, [r3, #4]
 8002c1e:	e008      	b.n	8002c32 <HAL_DMA_Init+0x116>
  }
  else
  {
    hdma->DMAmuxRequestGen = 0U;
 8002c20:	687b      	ldr	r3, [r7, #4]
 8002c22:	2200      	movs	r2, #0
 8002c24:	655a      	str	r2, [r3, #84]	@ 0x54
    hdma->DMAmuxRequestGenStatus = 0U;
 8002c26:	687b      	ldr	r3, [r7, #4]
 8002c28:	2200      	movs	r2, #0
 8002c2a:	659a      	str	r2, [r3, #88]	@ 0x58
    hdma->DMAmuxRequestGenStatusMask = 0U;
 8002c2c:	687b      	ldr	r3, [r7, #4]
 8002c2e:	2200      	movs	r2, #0
 8002c30:	65da      	str	r2, [r3, #92]	@ 0x5c
  }

  /* Initialize the error code */
  hdma->ErrorCode = HAL_DMA_ERROR_NONE;
 8002c32:	687b      	ldr	r3, [r7, #4]
 8002c34:	2200      	movs	r2, #0
 8002c36:	63da      	str	r2, [r3, #60]	@ 0x3c

  /* Initialize the DMA state*/
  hdma->State  = HAL_DMA_STATE_READY;
 8002c38:	687b      	ldr	r3, [r7, #4]
 8002c3a:	2201      	movs	r2, #1
 8002c3c:	f883 2025 	strb.w	r2, [r3, #37]	@ 0x25

  /* Allocate lock resource and initialize it */
  hdma->Lock = HAL_UNLOCKED;
 8002c40:	687b      	ldr	r3, [r7, #4]
 8002c42:	2200      	movs	r2, #0
 8002c44:	f883 2024 	strb.w	r2, [r3, #36]	@ 0x24

  return HAL_OK;
 8002c48:	2300      	movs	r3, #0
}
 8002c4a:	4618      	mov	r0, r3
 8002c4c:	3710      	adds	r7, #16
 8002c4e:	46bd      	mov	sp, r7
 8002c50:	bd80      	pop	{r7, pc}
 8002c52:	bf00      	nop
 8002c54:	40020407 	.word	0x40020407
 8002c58:	bffdfff8 	.word	0xbffdfff8
 8002c5c:	cccccccd 	.word	0xcccccccd
 8002c60:	40020000 	.word	0x40020000
 8002c64:	bffdfbf8 	.word	0xbffdfbf8
 8002c68:	40020400 	.word	0x40020400

08002c6c <HAL_DMA_Start_IT>:
  * @param  DataLength The length of data to be transferred from source to destination (up to 256Kbytes-1)
  * @retval HAL status
  */
HAL_StatusTypeDef HAL_DMA_Start_IT(DMA_HandleTypeDef *hdma, uint32_t SrcAddress, uint32_t DstAddress,
                                   uint32_t DataLength)
{
 8002c6c:	b580      	push	{r7, lr}
 8002c6e:	b086      	sub	sp, #24
 8002c70:	af00      	add	r7, sp, #0
 8002c72:	60f8      	str	r0, [r7, #12]
 8002c74:	60b9      	str	r1, [r7, #8]
 8002c76:	607a      	str	r2, [r7, #4]
 8002c78:	603b      	str	r3, [r7, #0]
  HAL_StatusTypeDef status = HAL_OK;
 8002c7a:	2300      	movs	r3, #0
 8002c7c:	75fb      	strb	r3, [r7, #23]

  /* Check the parameters */
  assert_param(IS_DMA_BUFFER_SIZE(DataLength));

  /* Process locked */
  __HAL_LOCK(hdma);
 8002c7e:	68fb      	ldr	r3, [r7, #12]
 8002c80:	f893 3024 	ldrb.w	r3, [r3, #36]	@ 0x24
 8002c84:	2b01      	cmp	r3, #1
 8002c86:	d101      	bne.n	8002c8c <HAL_DMA_Start_IT+0x20>
 8002c88:	2302      	movs	r3, #2
 8002c8a:	e066      	b.n	8002d5a <HAL_DMA_Start_IT+0xee>
 8002c8c:	68fb      	ldr	r3, [r7, #12]
 8002c8e:	2201      	movs	r2, #1
 8002c90:	f883 2024 	strb.w	r2, [r3, #36]	@ 0x24

  if (HAL_DMA_STATE_READY == hdma->State)
 8002c94:	68fb      	ldr	r3, [r7, #12]
 8002c96:	f893 3025 	ldrb.w	r3, [r3, #37]	@ 0x25
 8002c9a:	b2db      	uxtb	r3, r3
 8002c9c:	2b01      	cmp	r3, #1
 8002c9e:	d155      	bne.n	8002d4c <HAL_DMA_Start_IT+0xe0>
  {
    /* Change DMA peripheral state */
    hdma->State = HAL_DMA_STATE_BUSY;
 8002ca0:	68fb      	ldr	r3, [r7, #12]
 8002ca2:	2202      	movs	r2, #2
 8002ca4:	f883 2025 	strb.w	r2, [r3, #37]	@ 0x25
    hdma->ErrorCode = HAL_DMA_ERROR_NONE;
 8002ca8:	68fb      	ldr	r3, [r7, #12]
 8002caa:	2200      	movs	r2, #0
 8002cac:	63da      	str	r2, [r3, #60]	@ 0x3c

    /* Disable the peripheral */
    __HAL_DMA_DISABLE(hdma);
 8002cae:	68fb      	ldr	r3, [r7, #12]
 8002cb0:	681b      	ldr	r3, [r3, #0]
 8002cb2:	681a      	ldr	r2, [r3, #0]
 8002cb4:	68fb      	ldr	r3, [r7, #12]
 8002cb6:	681b      	ldr	r3, [r3, #0]
 8002cb8:	f022 0201 	bic.w	r2, r2, #1
 8002cbc:	601a      	str	r2, [r3, #0]

    /* Configure the source, destination address and the data length & clear flags*/
    DMA_SetConfig(hdma, SrcAddress, DstAddress, DataLength);
 8002cbe:	683b      	ldr	r3, [r7, #0]
 8002cc0:	687a      	ldr	r2, [r7, #4]
 8002cc2:	68b9      	ldr	r1, [r7, #8]
 8002cc4:	68f8      	ldr	r0, [r7, #12]
 8002cc6:	f000 f8fb 	bl	8002ec0 <DMA_SetConfig>

    /* Enable the transfer complete interrupt */
    /* Enable the transfer Error interrupt */
    if (NULL != hdma->XferHalfCpltCallback)
 8002cca:	68fb      	ldr	r3, [r7, #12]
 8002ccc:	6b1b      	ldr	r3, [r3, #48]	@ 0x30
 8002cce:	2b00      	cmp	r3, #0
 8002cd0:	d008      	beq.n	8002ce4 <HAL_DMA_Start_IT+0x78>
    {
      /* Enable the Half transfer complete interrupt as well */
      __HAL_DMA_ENABLE_IT(hdma, (DMA_IT_TC | DMA_IT_HT | DMA_IT_TE));
 8002cd2:	68fb      	ldr	r3, [r7, #12]
 8002cd4:	681b      	ldr	r3, [r3, #0]
 8002cd6:	681a      	ldr	r2, [r3, #0]
 8002cd8:	68fb      	ldr	r3, [r7, #12]
 8002cda:	681b      	ldr	r3, [r3, #0]
 8002cdc:	f042 020e 	orr.w	r2, r2, #14
 8002ce0:	601a      	str	r2, [r3, #0]
 8002ce2:	e00f      	b.n	8002d04 <HAL_DMA_Start_IT+0x98>
    }
    else
    {
      __HAL_DMA_DISABLE_IT(hdma, DMA_IT_HT);
 8002ce4:	68fb      	ldr	r3, [r7, #12]
 8002ce6:	681b      	ldr	r3, [r3, #0]
 8002ce8:	681a      	ldr	r2, [r3, #0]
 8002cea:	68fb      	ldr	r3, [r7, #12]
 8002cec:	681b      	ldr	r3, [r3, #0]
 8002cee:	f022 0204 	bic.w	r2, r2, #4
 8002cf2:	601a      	str	r2, [r3, #0]
      __HAL_DMA_ENABLE_IT(hdma, (DMA_IT_TC | DMA_IT_TE));
 8002cf4:	68fb      	ldr	r3, [r7, #12]
 8002cf6:	681b      	ldr	r3, [r3, #0]
 8002cf8:	681a      	ldr	r2, [r3, #0]
 8002cfa:	68fb      	ldr	r3, [r7, #12]
 8002cfc:	681b      	ldr	r3, [r3, #0]
 8002cfe:	f042 020a 	orr.w	r2, r2, #10
 8002d02:	601a      	str	r2, [r3, #0]
    }

    /* Check if DMAMUX Synchronization is enabled*/
    if ((hdma->DMAmuxChannel->CCR & DMAMUX_CxCR_SE) != 0U)
 8002d04:	68fb      	ldr	r3, [r7, #12]
 8002d06:	6c9b      	ldr	r3, [r3, #72]	@ 0x48
 8002d08:	681b      	ldr	r3, [r3, #0]
 8002d0a:	f403 3380 	and.w	r3, r3, #65536	@ 0x10000
 8002d0e:	2b00      	cmp	r3, #0
 8002d10:	d007      	beq.n	8002d22 <HAL_DMA_Start_IT+0xb6>
    {
      /* Enable DMAMUX sync overrun IT*/
      hdma->DMAmuxChannel->CCR |= DMAMUX_CxCR_SOIE;
 8002d12:	68fb      	ldr	r3, [r7, #12]
 8002d14:	6c9b      	ldr	r3, [r3, #72]	@ 0x48
 8002d16:	681a      	ldr	r2, [r3, #0]
 8002d18:	68fb      	ldr	r3, [r7, #12]
 8002d1a:	6c9b      	ldr	r3, [r3, #72]	@ 0x48
 8002d1c:	f442 7280 	orr.w	r2, r2, #256	@ 0x100
 8002d20:	601a      	str	r2, [r3, #0]
    }

    if (hdma->DMAmuxRequestGen != 0U)
 8002d22:	68fb      	ldr	r3, [r7, #12]
 8002d24:	6d5b      	ldr	r3, [r3, #84]	@ 0x54
 8002d26:	2b00      	cmp	r3, #0
 8002d28:	d007      	beq.n	8002d3a <HAL_DMA_Start_IT+0xce>
    {
      /* if using DMAMUX request generator, enable the DMAMUX request generator overrun IT*/
      /* enable the request gen overrun IT*/
      hdma->DMAmuxRequestGen->RGCR |= DMAMUX_RGxCR_OIE;
 8002d2a:	68fb      	ldr	r3, [r7, #12]
 8002d2c:	6d5b      	ldr	r3, [r3, #84]	@ 0x54
 8002d2e:	681a      	ldr	r2, [r3, #0]
 8002d30:	68fb      	ldr	r3, [r7, #12]
 8002d32:	6d5b      	ldr	r3, [r3, #84]	@ 0x54
 8002d34:	f442 7280 	orr.w	r2, r2, #256	@ 0x100
 8002d38:	601a      	str	r2, [r3, #0]
    }

    /* Enable the Peripheral */
    __HAL_DMA_ENABLE(hdma);
 8002d3a:	68fb      	ldr	r3, [r7, #12]
 8002d3c:	681b      	ldr	r3, [r3, #0]
 8002d3e:	681a      	ldr	r2, [r3, #0]
 8002d40:	68fb      	ldr	r3, [r7, #12]
 8002d42:	681b      	ldr	r3, [r3, #0]
 8002d44:	f042 0201 	orr.w	r2, r2, #1
 8002d48:	601a      	str	r2, [r3, #0]
 8002d4a:	e005      	b.n	8002d58 <HAL_DMA_Start_IT+0xec>
  }
  else
  {
    /* Process Unlocked */
    __HAL_UNLOCK(hdma);
 8002d4c:	68fb      	ldr	r3, [r7, #12]
 8002d4e:	2200      	movs	r2, #0
 8002d50:	f883 2024 	strb.w	r2, [r3, #36]	@ 0x24

    /* Remain BUSY */
    status = HAL_BUSY;
 8002d54:	2302      	movs	r3, #2
 8002d56:	75fb      	strb	r3, [r7, #23]
  }
  return status;
 8002d58:	7dfb      	ldrb	r3, [r7, #23]
}
 8002d5a:	4618      	mov	r0, r3
 8002d5c:	3718      	adds	r7, #24
 8002d5e:	46bd      	mov	sp, r7
 8002d60:	bd80      	pop	{r7, pc}

08002d62 <HAL_DMA_IRQHandler>:
  * @param  hdma pointer to a DMA_HandleTypeDef structure that contains
  *               the configuration information for the specified DMA Channel.
  * @retval None
  */
void HAL_DMA_IRQHandler(DMA_HandleTypeDef *hdma)
{
 8002d62:	b580      	push	{r7, lr}
 8002d64:	b084      	sub	sp, #16
 8002d66:	af00      	add	r7, sp, #0
 8002d68:	6078      	str	r0, [r7, #4]
  uint32_t flag_it = hdma->DmaBaseAddress->ISR;
 8002d6a:	687b      	ldr	r3, [r7, #4]
 8002d6c:	6c1b      	ldr	r3, [r3, #64]	@ 0x40
 8002d6e:	681b      	ldr	r3, [r3, #0]
 8002d70:	60fb      	str	r3, [r7, #12]
  uint32_t source_it = hdma->Instance->CCR;
 8002d72:	687b      	ldr	r3, [r7, #4]
 8002d74:	681b      	ldr	r3, [r3, #0]
 8002d76:	681b      	ldr	r3, [r3, #0]
 8002d78:	60bb      	str	r3, [r7, #8]

  /* Half Transfer Complete Interrupt management ******************************/
  if ((0U != (flag_it & ((uint32_t)DMA_FLAG_HT1 << (hdma->ChannelIndex & 0x1FU)))) && (0U != (source_it & DMA_IT_HT)))
 8002d7a:	687b      	ldr	r3, [r7, #4]
 8002d7c:	6c5b      	ldr	r3, [r3, #68]	@ 0x44
 8002d7e:	f003 031f 	and.w	r3, r3, #31
 8002d82:	2204      	movs	r2, #4
 8002d84:	409a      	lsls	r2, r3
 8002d86:	68fb      	ldr	r3, [r7, #12]
 8002d88:	4013      	ands	r3, r2
 8002d8a:	2b00      	cmp	r3, #0
 8002d8c:	d026      	beq.n	8002ddc <HAL_DMA_IRQHandler+0x7a>
 8002d8e:	68bb      	ldr	r3, [r7, #8]
 8002d90:	f003 0304 	and.w	r3, r3, #4
 8002d94:	2b00      	cmp	r3, #0
 8002d96:	d021      	beq.n	8002ddc <HAL_DMA_IRQHandler+0x7a>
  {
    /* Disable the half transfer interrupt if the DMA mode is not CIRCULAR */
    if ((hdma->Instance->CCR & DMA_CCR_CIRC) == 0U)
 8002d98:	687b      	ldr	r3, [r7, #4]
 8002d9a:	681b      	ldr	r3, [r3, #0]
 8002d9c:	681b      	ldr	r3, [r3, #0]
 8002d9e:	f003 0320 	and.w	r3, r3, #32
 8002da2:	2b00      	cmp	r3, #0
 8002da4:	d107      	bne.n	8002db6 <HAL_DMA_IRQHandler+0x54>
    {
      /* Disable the half transfer interrupt */
      __HAL_DMA_DISABLE_IT(hdma, DMA_IT_HT);
 8002da6:	687b      	ldr	r3, [r7, #4]
 8002da8:	681b      	ldr	r3, [r3, #0]
 8002daa:	681a      	ldr	r2, [r3, #0]
 8002dac:	687b      	ldr	r3, [r7, #4]
 8002dae:	681b      	ldr	r3, [r3, #0]
 8002db0:	f022 0204 	bic.w	r2, r2, #4
 8002db4:	601a      	str	r2, [r3, #0]
    }
    /* Clear the half transfer complete flag */
    hdma->DmaBaseAddress->IFCR = ((uint32_t)DMA_ISR_HTIF1 << (hdma->ChannelIndex & 0x1FU));
 8002db6:	687b      	ldr	r3, [r7, #4]
 8002db8:	6c5b      	ldr	r3, [r3, #68]	@ 0x44
 8002dba:	f003 021f 	and.w	r2, r3, #31
 8002dbe:	687b      	ldr	r3, [r7, #4]
 8002dc0:	6c1b      	ldr	r3, [r3, #64]	@ 0x40
 8002dc2:	2104      	movs	r1, #4
 8002dc4:	fa01 f202 	lsl.w	r2, r1, r2
 8002dc8:	605a      	str	r2, [r3, #4]

    /* DMA peripheral state is not updated in Half Transfer */
    /* but in Transfer Complete case */

    if (hdma->XferHalfCpltCallback != NULL)
 8002dca:	687b      	ldr	r3, [r7, #4]
 8002dcc:	6b1b      	ldr	r3, [r3, #48]	@ 0x30
 8002dce:	2b00      	cmp	r3, #0
 8002dd0:	d071      	beq.n	8002eb6 <HAL_DMA_IRQHandler+0x154>
    {
      /* Half transfer callback */
      hdma->XferHalfCpltCallback(hdma);
 8002dd2:	687b      	ldr	r3, [r7, #4]
 8002dd4:	6b1b      	ldr	r3, [r3, #48]	@ 0x30
 8002dd6:	6878      	ldr	r0, [r7, #4]
 8002dd8:	4798      	blx	r3
    if (hdma->XferHalfCpltCallback != NULL)
 8002dda:	e06c      	b.n	8002eb6 <HAL_DMA_IRQHandler+0x154>
    }
  }
  /* Transfer Complete Interrupt management ***********************************/
  else if ((0U != (flag_it & ((uint32_t)DMA_FLAG_TC1 << (hdma->ChannelIndex & 0x1FU))))
 8002ddc:	687b      	ldr	r3, [r7, #4]
 8002dde:	6c5b      	ldr	r3, [r3, #68]	@ 0x44
 8002de0:	f003 031f 	and.w	r3, r3, #31
 8002de4:	2202      	movs	r2, #2
 8002de6:	409a      	lsls	r2, r3
 8002de8:	68fb      	ldr	r3, [r7, #12]
 8002dea:	4013      	ands	r3, r2
 8002dec:	2b00      	cmp	r3, #0
 8002dee:	d02e      	beq.n	8002e4e <HAL_DMA_IRQHandler+0xec>
           && (0U != (source_it & DMA_IT_TC)))
 8002df0:	68bb      	ldr	r3, [r7, #8]
 8002df2:	f003 0302 	and.w	r3, r3, #2
 8002df6:	2b00      	cmp	r3, #0
 8002df8:	d029      	beq.n	8002e4e <HAL_DMA_IRQHandler+0xec>
  {
    if ((hdma->Instance->CCR & DMA_CCR_CIRC) == 0U)
 8002dfa:	687b      	ldr	r3, [r7, #4]
 8002dfc:	681b      	ldr	r3, [r3, #0]
 8002dfe:	681b      	ldr	r3, [r3, #0]
 8002e00:	f003 0320 	and.w	r3, r3, #32
 8002e04:	2b00      	cmp	r3, #0
 8002e06:	d10b      	bne.n	8002e20 <HAL_DMA_IRQHandler+0xbe>
    {
      /* Disable the transfer complete and error interrupt */
      __HAL_DMA_DISABLE_IT(hdma, DMA_IT_TE | DMA_IT_TC);
 8002e08:	687b      	ldr	r3, [r7, #4]
 8002e0a:	681b      	ldr	r3, [r3, #0]
 8002e0c:	681a      	ldr	r2, [r3, #0]
 8002e0e:	687b      	ldr	r3, [r7, #4]
 8002e10:	681b      	ldr	r3, [r3, #0]
 8002e12:	f022 020a 	bic.w	r2, r2, #10
 8002e16:	601a      	str	r2, [r3, #0]

      /* Change the DMA state */
      hdma->State = HAL_DMA_STATE_READY;
 8002e18:	687b      	ldr	r3, [r7, #4]
 8002e1a:	2201      	movs	r2, #1
 8002e1c:	f883 2025 	strb.w	r2, [r3, #37]	@ 0x25
    }
    /* Clear the transfer complete flag */
    hdma->DmaBaseAddress->IFCR = ((uint32_t)DMA_ISR_TCIF1 << (hdma->ChannelIndex & 0x1FU));
 8002e20:	687b      	ldr	r3, [r7, #4]
 8002e22:	6c5b      	ldr	r3, [r3, #68]	@ 0x44
 8002e24:	f003 021f 	and.w	r2, r3, #31
 8002e28:	687b      	ldr	r3, [r7, #4]
 8002e2a:	6c1b      	ldr	r3, [r3, #64]	@ 0x40
 8002e2c:	2102      	movs	r1, #2
 8002e2e:	fa01 f202 	lsl.w	r2, r1, r2
 8002e32:	605a      	str	r2, [r3, #4]

    /* Process Unlocked */
    __HAL_UNLOCK(hdma);
 8002e34:	687b      	ldr	r3, [r7, #4]
 8002e36:	2200      	movs	r2, #0
 8002e38:	f883 2024 	strb.w	r2, [r3, #36]	@ 0x24

    if (hdma->XferCpltCallback != NULL)
 8002e3c:	687b      	ldr	r3, [r7, #4]
 8002e3e:	6adb      	ldr	r3, [r3, #44]	@ 0x2c
 8002e40:	2b00      	cmp	r3, #0
 8002e42:	d038      	beq.n	8002eb6 <HAL_DMA_IRQHandler+0x154>
    {
      /* Transfer complete callback */
      hdma->XferCpltCallback(hdma);
 8002e44:	687b      	ldr	r3, [r7, #4]
 8002e46:	6adb      	ldr	r3, [r3, #44]	@ 0x2c
 8002e48:	6878      	ldr	r0, [r7, #4]
 8002e4a:	4798      	blx	r3
    if (hdma->XferCpltCallback != NULL)
 8002e4c:	e033      	b.n	8002eb6 <HAL_DMA_IRQHandler+0x154>
    }
  }
  /* Transfer Error Interrupt management **************************************/
  else if ((0U != (flag_it & ((uint32_t)DMA_FLAG_TE1 << (hdma->ChannelIndex & 0x1FU))))
 8002e4e:	687b      	ldr	r3, [r7, #4]
 8002e50:	6c5b      	ldr	r3, [r3, #68]	@ 0x44
 8002e52:	f003 031f 	and.w	r3, r3, #31
 8002e56:	2208      	movs	r2, #8
 8002e58:	409a      	lsls	r2, r3
 8002e5a:	68fb      	ldr	r3, [r7, #12]
 8002e5c:	4013      	ands	r3, r2
 8002e5e:	2b00      	cmp	r3, #0
 8002e60:	d02a      	beq.n	8002eb8 <HAL_DMA_IRQHandler+0x156>
           && (0U != (source_it & DMA_IT_TE)))
 8002e62:	68bb      	ldr	r3, [r7, #8]
 8002e64:	f003 0308 	and.w	r3, r3, #8
 8002e68:	2b00      	cmp	r3, #0
 8002e6a:	d025      	beq.n	8002eb8 <HAL_DMA_IRQHandler+0x156>
  {
    /* When a DMA transfer error occurs */
    /* A hardware clear of its EN bits is performed */
    /* Disable ALL DMA IT */
    __HAL_DMA_DISABLE_IT(hdma, (DMA_IT_TC | DMA_IT_HT | DMA_IT_TE));
 8002e6c:	687b      	ldr	r3, [r7, #4]
 8002e6e:	681b      	ldr	r3, [r3, #0]
 8002e70:	681a      	ldr	r2, [r3, #0]
 8002e72:	687b      	ldr	r3, [r7, #4]
 8002e74:	681b      	ldr	r3, [r3, #0]
 8002e76:	f022 020e 	bic.w	r2, r2, #14
 8002e7a:	601a      	str	r2, [r3, #0]

    /* Clear all flags */
    hdma->DmaBaseAddress->IFCR = ((uint32_t)DMA_ISR_GIF1 << (hdma->ChannelIndex & 0x1FU));
 8002e7c:	687b      	ldr	r3, [r7, #4]
 8002e7e:	6c5b      	ldr	r3, [r3, #68]	@ 0x44
 8002e80:	f003 021f 	and.w	r2, r3, #31
 8002e84:	687b      	ldr	r3, [r7, #4]
 8002e86:	6c1b      	ldr	r3, [r3, #64]	@ 0x40
 8002e88:	2101      	movs	r1, #1
 8002e8a:	fa01 f202 	lsl.w	r2, r1, r2
 8002e8e:	605a      	str	r2, [r3, #4]

    /* Update error code */
    hdma->ErrorCode = HAL_DMA_ERROR_TE;
 8002e90:	687b      	ldr	r3, [r7, #4]
 8002e92:	2201      	movs	r2, #1
 8002e94:	63da      	str	r2, [r3, #60]	@ 0x3c

    /* Change the DMA state */
    hdma->State = HAL_DMA_STATE_READY;
 8002e96:	687b      	ldr	r3, [r7, #4]
 8002e98:	2201      	movs	r2, #1
 8002e9a:	f883 2025 	strb.w	r2, [r3, #37]	@ 0x25

    /* Process Unlocked */
    __HAL_UNLOCK(hdma);
 8002e9e:	687b      	ldr	r3, [r7, #4]
 8002ea0:	2200      	movs	r2, #0
 8002ea2:	f883 2024 	strb.w	r2, [r3, #36]	@ 0x24

    if (hdma->XferErrorCallback != NULL)
 8002ea6:	687b      	ldr	r3, [r7, #4]
 8002ea8:	6b5b      	ldr	r3, [r3, #52]	@ 0x34
 8002eaa:	2b00      	cmp	r3, #0
 8002eac:	d004      	beq.n	8002eb8 <HAL_DMA_IRQHandler+0x156>
    {
      /* Transfer error callback */
      hdma->XferErrorCallback(hdma);
 8002eae:	687b      	ldr	r3, [r7, #4]
 8002eb0:	6b5b      	ldr	r3, [r3, #52]	@ 0x34
 8002eb2:	6878      	ldr	r0, [r7, #4]
 8002eb4:	4798      	blx	r3
  }
  else
  {
    /* Nothing To Do */
  }
  return;
 8002eb6:	bf00      	nop
 8002eb8:	bf00      	nop
}
 8002eba:	3710      	adds	r7, #16
 8002ebc:	46bd      	mov	sp, r7
 8002ebe:	bd80      	pop	{r7, pc}

08002ec0 <DMA_SetConfig>:
  * @param  DstAddress The destination memory Buffer address
  * @param  DataLength The length of data to be transferred from source to destination
  * @retval HAL status
  */
static void DMA_SetConfig(DMA_HandleTypeDef *hdma, uint32_t SrcAddress, uint32_t DstAddress, uint32_t DataLength)
{
 8002ec0:	b480      	push	{r7}
 8002ec2:	b085      	sub	sp, #20
 8002ec4:	af00      	add	r7, sp, #0
 8002ec6:	60f8      	str	r0, [r7, #12]
 8002ec8:	60b9      	str	r1, [r7, #8]
 8002eca:	607a      	str	r2, [r7, #4]
 8002ecc:	603b      	str	r3, [r7, #0]
  /* Clear the DMAMUX synchro overrun flag */
  hdma->DMAmuxChannelStatus->CFR = hdma->DMAmuxChannelStatusMask;
 8002ece:	68fb      	ldr	r3, [r7, #12]
 8002ed0:	6cdb      	ldr	r3, [r3, #76]	@ 0x4c
 8002ed2:	68fa      	ldr	r2, [r7, #12]
 8002ed4:	6d12      	ldr	r2, [r2, #80]	@ 0x50
 8002ed6:	605a      	str	r2, [r3, #4]

  if (hdma->DMAmuxRequestGen != 0U)
 8002ed8:	68fb      	ldr	r3, [r7, #12]
 8002eda:	6d5b      	ldr	r3, [r3, #84]	@ 0x54
 8002edc:	2b00      	cmp	r3, #0
 8002ede:	d004      	beq.n	8002eea <DMA_SetConfig+0x2a>
  {
    /* Clear the DMAMUX request generator overrun flag */
    hdma->DMAmuxRequestGenStatus->RGCFR = hdma->DMAmuxRequestGenStatusMask;
 8002ee0:	68fb      	ldr	r3, [r7, #12]
 8002ee2:	6d9b      	ldr	r3, [r3, #88]	@ 0x58
 8002ee4:	68fa      	ldr	r2, [r7, #12]
 8002ee6:	6dd2      	ldr	r2, [r2, #92]	@ 0x5c
 8002ee8:	605a      	str	r2, [r3, #4]
  }

  /* Clear all flags */
  hdma->DmaBaseAddress->IFCR = (DMA_ISR_GIF1 << (hdma->ChannelIndex & 0x1FU));
 8002eea:	68fb      	ldr	r3, [r7, #12]
 8002eec:	6c5b      	ldr	r3, [r3, #68]	@ 0x44
 8002eee:	f003 021f 	and.w	r2, r3, #31
 8002ef2:	68fb      	ldr	r3, [r7, #12]
 8002ef4:	6c1b      	ldr	r3, [r3, #64]	@ 0x40
 8002ef6:	2101      	movs	r1, #1
 8002ef8:	fa01 f202 	lsl.w	r2, r1, r2
 8002efc:	605a      	str	r2, [r3, #4]

  /* Configure DMA Channel data length */
  hdma->Instance->CNDTR = DataLength;
 8002efe:	68fb      	ldr	r3, [r7, #12]
 8002f00:	681b      	ldr	r3, [r3, #0]
 8002f02:	683a      	ldr	r2, [r7, #0]
 8002f04:	605a      	str	r2, [r3, #4]

  /* Memory to Peripheral */
  if ((hdma->Init.Direction) == DMA_MEMORY_TO_PERIPH)
 8002f06:	68fb      	ldr	r3, [r7, #12]
 8002f08:	689b      	ldr	r3, [r3, #8]
 8002f0a:	2b10      	cmp	r3, #16
 8002f0c:	d108      	bne.n	8002f20 <DMA_SetConfig+0x60>
  {
    /* Configure DMA Channel destination address */
    hdma->Instance->CPAR = DstAddress;
 8002f0e:	68fb      	ldr	r3, [r7, #12]
 8002f10:	681b      	ldr	r3, [r3, #0]
 8002f12:	687a      	ldr	r2, [r7, #4]
 8002f14:	609a      	str	r2, [r3, #8]

    /* Configure DMA Channel source address */
    hdma->Instance->CMAR = SrcAddress;
 8002f16:	68fb      	ldr	r3, [r7, #12]
 8002f18:	681b      	ldr	r3, [r3, #0]
 8002f1a:	68ba      	ldr	r2, [r7, #8]
 8002f1c:	60da      	str	r2, [r3, #12]
    hdma->Instance->CPAR = SrcAddress;

    /* Configure DMA Channel destination address */
    hdma->Instance->CMAR = DstAddress;
  }
}
 8002f1e:	e007      	b.n	8002f30 <DMA_SetConfig+0x70>
    hdma->Instance->CPAR = SrcAddress;
 8002f20:	68fb      	ldr	r3, [r7, #12]
 8002f22:	681b      	ldr	r3, [r3, #0]
 8002f24:	68ba      	ldr	r2, [r7, #8]
 8002f26:	609a      	str	r2, [r3, #8]
    hdma->Instance->CMAR = DstAddress;
 8002f28:	68fb      	ldr	r3, [r7, #12]
 8002f2a:	681b      	ldr	r3, [r3, #0]
 8002f2c:	687a      	ldr	r2, [r7, #4]
 8002f2e:	60da      	str	r2, [r3, #12]
}
 8002f30:	bf00      	nop
 8002f32:	3714      	adds	r7, #20
 8002f34:	46bd      	mov	sp, r7
 8002f36:	f85d 7b04 	ldr.w	r7, [sp], #4
 8002f3a:	4770      	bx	lr

08002f3c <DMA_CalcDMAMUXChannelBaseAndMask>:
  * @param  hdma        pointer to a DMA_HandleTypeDef structure that contains
  *                     the configuration information for the specified DMA Stream.
  * @retval None
  */
static void DMA_CalcDMAMUXChannelBaseAndMask(DMA_HandleTypeDef *hdma)
{
 8002f3c:	b480      	push	{r7}
 8002f3e:	b087      	sub	sp, #28
 8002f40:	af00      	add	r7, sp, #0
 8002f42:	6078      	str	r0, [r7, #4]
  uint32_t dmamux_base_addr;
  uint32_t channel_number;
  DMAMUX_Channel_TypeDef *DMAMUX1_ChannelBase;

  /* check if instance is not outside the DMA channel range */
  if ((uint32_t)hdma->Instance < (uint32_t)DMA2_Channel1)
 8002f44:	687b      	ldr	r3, [r7, #4]
 8002f46:	681b      	ldr	r3, [r3, #0]
 8002f48:	461a      	mov	r2, r3
 8002f4a:	4b16      	ldr	r3, [pc, #88]	@ (8002fa4 <DMA_CalcDMAMUXChannelBaseAndMask+0x68>)
 8002f4c:	429a      	cmp	r2, r3
 8002f4e:	d802      	bhi.n	8002f56 <DMA_CalcDMAMUXChannelBaseAndMask+0x1a>
  {
    /* DMA1 */
    DMAMUX1_ChannelBase = DMAMUX1_Channel0;
 8002f50:	4b15      	ldr	r3, [pc, #84]	@ (8002fa8 <DMA_CalcDMAMUXChannelBaseAndMask+0x6c>)
 8002f52:	617b      	str	r3, [r7, #20]
 8002f54:	e001      	b.n	8002f5a <DMA_CalcDMAMUXChannelBaseAndMask+0x1e>
  {
    /* DMA2 */
#if defined (STM32G471xx) || defined (STM32G473xx) || defined (STM32G474xx) || defined (STM32G414xx) || defined (STM32G483xx) || defined (STM32G484xx) || defined (STM32G491xx) || defined (STM32G4A1xx) || defined (STM32G411xC)
    DMAMUX1_ChannelBase = DMAMUX1_Channel8;
#elif defined (STM32G411xB) || defined (STM32G431xx) || defined (STM32G441xx) || defined (STM32GBK1CB)
    DMAMUX1_ChannelBase = DMAMUX1_Channel6;
 8002f56:	4b15      	ldr	r3, [pc, #84]	@ (8002fac <DMA_CalcDMAMUXChannelBaseAndMask+0x70>)
 8002f58:	617b      	str	r3, [r7, #20]
#else
    DMAMUX1_ChannelBase = DMAMUX1_Channel7;
#endif /* STM32G4x1xx) */
  }
  dmamux_base_addr = (uint32_t)DMAMUX1_ChannelBase;
 8002f5a:	697b      	ldr	r3, [r7, #20]
 8002f5c:	613b      	str	r3, [r7, #16]
  channel_number = (((uint32_t)hdma->Instance & 0xFFU) - 8U) / 20U;
 8002f5e:	687b      	ldr	r3, [r7, #4]
 8002f60:	681b      	ldr	r3, [r3, #0]
 8002f62:	b2db      	uxtb	r3, r3
 8002f64:	3b08      	subs	r3, #8
 8002f66:	4a12      	ldr	r2, [pc, #72]	@ (8002fb0 <DMA_CalcDMAMUXChannelBaseAndMask+0x74>)
 8002f68:	fba2 2303 	umull	r2, r3, r2, r3
 8002f6c:	091b      	lsrs	r3, r3, #4
 8002f6e:	60fb      	str	r3, [r7, #12]
  hdma->DMAmuxChannel = (DMAMUX_Channel_TypeDef *)(uint32_t)(dmamux_base_addr + ((hdma->ChannelIndex >> 2U) * ((uint32_t)DMAMUX1_Channel1 - (uint32_t)DMAMUX1_Channel0)));
 8002f70:	687b      	ldr	r3, [r7, #4]
 8002f72:	6c5b      	ldr	r3, [r3, #68]	@ 0x44
 8002f74:	089b      	lsrs	r3, r3, #2
 8002f76:	009a      	lsls	r2, r3, #2
 8002f78:	693b      	ldr	r3, [r7, #16]
 8002f7a:	4413      	add	r3, r2
 8002f7c:	461a      	mov	r2, r3
 8002f7e:	687b      	ldr	r3, [r7, #4]
 8002f80:	649a      	str	r2, [r3, #72]	@ 0x48
  hdma->DMAmuxChannelStatus = DMAMUX1_ChannelStatus;
 8002f82:	687b      	ldr	r3, [r7, #4]
 8002f84:	4a0b      	ldr	r2, [pc, #44]	@ (8002fb4 <DMA_CalcDMAMUXChannelBaseAndMask+0x78>)
 8002f86:	64da      	str	r2, [r3, #76]	@ 0x4c
  hdma->DMAmuxChannelStatusMask = 1UL << (channel_number & 0x1FU);
 8002f88:	68fb      	ldr	r3, [r7, #12]
 8002f8a:	f003 031f 	and.w	r3, r3, #31
 8002f8e:	2201      	movs	r2, #1
 8002f90:	409a      	lsls	r2, r3
 8002f92:	687b      	ldr	r3, [r7, #4]
 8002f94:	651a      	str	r2, [r3, #80]	@ 0x50
}
 8002f96:	bf00      	nop
 8002f98:	371c      	adds	r7, #28
 8002f9a:	46bd      	mov	sp, r7
 8002f9c:	f85d 7b04 	ldr.w	r7, [sp], #4
 8002fa0:	4770      	bx	lr
 8002fa2:	bf00      	nop
 8002fa4:	40020407 	.word	0x40020407
 8002fa8:	40020800 	.word	0x40020800
 8002fac:	40020820 	.word	0x40020820
 8002fb0:	cccccccd 	.word	0xcccccccd
 8002fb4:	40020880 	.word	0x40020880

08002fb8 <DMA_CalcDMAMUXRequestGenBaseAndMask>:
  *                     the configuration information for the specified DMA Channel.
  * @retval None
  */

static void DMA_CalcDMAMUXRequestGenBaseAndMask(DMA_HandleTypeDef *hdma)
{
 8002fb8:	b480      	push	{r7}
 8002fba:	b085      	sub	sp, #20
 8002fbc:	af00      	add	r7, sp, #0
 8002fbe:	6078      	str	r0, [r7, #4]
  uint32_t request =  hdma->Init.Request & DMAMUX_CxCR_DMAREQ_ID;
 8002fc0:	687b      	ldr	r3, [r7, #4]
 8002fc2:	685b      	ldr	r3, [r3, #4]
 8002fc4:	b2db      	uxtb	r3, r3
 8002fc6:	60fb      	str	r3, [r7, #12]

  /* DMA Channels are connected to DMAMUX1 request generator blocks*/
  hdma->DMAmuxRequestGen = (DMAMUX_RequestGen_TypeDef *)((uint32_t)(((uint32_t)DMAMUX1_RequestGenerator0) + ((request - 1U) * 4U)));
 8002fc8:	68fa      	ldr	r2, [r7, #12]
 8002fca:	4b0b      	ldr	r3, [pc, #44]	@ (8002ff8 <DMA_CalcDMAMUXRequestGenBaseAndMask+0x40>)
 8002fcc:	4413      	add	r3, r2
 8002fce:	009b      	lsls	r3, r3, #2
 8002fd0:	461a      	mov	r2, r3
 8002fd2:	687b      	ldr	r3, [r7, #4]
 8002fd4:	655a      	str	r2, [r3, #84]	@ 0x54

  hdma->DMAmuxRequestGenStatus = DMAMUX1_RequestGenStatus;
 8002fd6:	687b      	ldr	r3, [r7, #4]
 8002fd8:	4a08      	ldr	r2, [pc, #32]	@ (8002ffc <DMA_CalcDMAMUXRequestGenBaseAndMask+0x44>)
 8002fda:	659a      	str	r2, [r3, #88]	@ 0x58

  hdma->DMAmuxRequestGenStatusMask = 1UL << ((request - 1U) & 0x1FU);
 8002fdc:	68fb      	ldr	r3, [r7, #12]
 8002fde:	3b01      	subs	r3, #1
 8002fe0:	f003 031f 	and.w	r3, r3, #31
 8002fe4:	2201      	movs	r2, #1
 8002fe6:	409a      	lsls	r2, r3
 8002fe8:	687b      	ldr	r3, [r7, #4]
 8002fea:	65da      	str	r2, [r3, #92]	@ 0x5c
}
 8002fec:	bf00      	nop
 8002fee:	3714      	adds	r7, #20
 8002ff0:	46bd      	mov	sp, r7
 8002ff2:	f85d 7b04 	ldr.w	r7, [sp], #4
 8002ff6:	4770      	bx	lr
 8002ff8:	1000823f 	.word	0x1000823f
 8002ffc:	40020940 	.word	0x40020940

08003000 <HAL_FDCAN_Init>:
  * @param  hfdcan pointer to an FDCAN_HandleTypeDef structure that contains
  *         the configuration information for the specified FDCAN.
  * @retval HAL status
  */
HAL_StatusTypeDef HAL_FDCAN_Init(FDCAN_HandleTypeDef *hfdcan)
{
 8003000:	b580      	push	{r7, lr}
 8003002:	b084      	sub	sp, #16
 8003004:	af00      	add	r7, sp, #0
 8003006:	6078      	str	r0, [r7, #4]
  uint32_t tickstart;

  /* Check FDCAN handle */
  if (hfdcan == NULL)
 8003008:	687b      	ldr	r3, [r7, #4]
 800300a:	2b00      	cmp	r3, #0
 800300c:	d101      	bne.n	8003012 <HAL_FDCAN_Init+0x12>
  {
    return HAL_ERROR;
 800300e:	2301      	movs	r3, #1
 8003010:	e147      	b.n	80032a2 <HAL_FDCAN_Init+0x2a2>

    /* Init the low level hardware: CLOCK, NVIC */
    hfdcan->MspInitCallback(hfdcan);
  }
#else
  if (hfdcan->State == HAL_FDCAN_STATE_RESET)
 8003012:	687b      	ldr	r3, [r7, #4]
 8003014:	f893 305c 	ldrb.w	r3, [r3, #92]	@ 0x5c
 8003018:	b2db      	uxtb	r3, r3
 800301a:	2b00      	cmp	r3, #0
 800301c:	d106      	bne.n	800302c <HAL_FDCAN_Init+0x2c>
  {
    /* Allocate lock resource and initialize it */
    hfdcan->Lock = HAL_UNLOCKED;
 800301e:	687b      	ldr	r3, [r7, #4]
 8003020:	2200      	movs	r2, #0
 8003022:	f883 205d 	strb.w	r2, [r3, #93]	@ 0x5d

    /* Init the low level hardware: CLOCK, NVIC */
    HAL_FDCAN_MspInit(hfdcan);
 8003026:	6878      	ldr	r0, [r7, #4]
 8003028:	f7fd fe3c 	bl	8000ca4 <HAL_FDCAN_MspInit>
  }
#endif /* USE_HAL_FDCAN_REGISTER_CALLBACKS */

  /* Exit from Sleep mode */
  CLEAR_BIT(hfdcan->Instance->CCCR, FDCAN_CCCR_CSR);
 800302c:	687b      	ldr	r3, [r7, #4]
 800302e:	681b      	ldr	r3, [r3, #0]
 8003030:	699a      	ldr	r2, [r3, #24]
 8003032:	687b      	ldr	r3, [r7, #4]
 8003034:	681b      	ldr	r3, [r3, #0]
 8003036:	f022 0210 	bic.w	r2, r2, #16
 800303a:	619a      	str	r2, [r3, #24]

  /* Get tick */
  tickstart = HAL_GetTick();
 800303c:	f7fe f866 	bl	800110c <HAL_GetTick>
 8003040:	60f8      	str	r0, [r7, #12]

  /* Check Sleep mode acknowledge */
  while ((hfdcan->Instance->CCCR & FDCAN_CCCR_CSA) == FDCAN_CCCR_CSA)
 8003042:	e012      	b.n	800306a <HAL_FDCAN_Init+0x6a>
  {
    if ((HAL_GetTick() - tickstart) > FDCAN_TIMEOUT_VALUE)
 8003044:	f7fe f862 	bl	800110c <HAL_GetTick>
 8003048:	4602      	mov	r2, r0
 800304a:	68fb      	ldr	r3, [r7, #12]
 800304c:	1ad3      	subs	r3, r2, r3
 800304e:	2b0a      	cmp	r3, #10
 8003050:	d90b      	bls.n	800306a <HAL_FDCAN_Init+0x6a>
    {
      /* Update error code */
      hfdcan->ErrorCode |= HAL_FDCAN_ERROR_TIMEOUT;
 8003052:	687b      	ldr	r3, [r7, #4]
 8003054:	6e1b      	ldr	r3, [r3, #96]	@ 0x60
 8003056:	f043 0201 	orr.w	r2, r3, #1
 800305a:	687b      	ldr	r3, [r7, #4]
 800305c:	661a      	str	r2, [r3, #96]	@ 0x60

      /* Change FDCAN state */
      hfdcan->State = HAL_FDCAN_STATE_ERROR;
 800305e:	687b      	ldr	r3, [r7, #4]
 8003060:	2203      	movs	r2, #3
 8003062:	f883 205c 	strb.w	r2, [r3, #92]	@ 0x5c

      return HAL_ERROR;
 8003066:	2301      	movs	r3, #1
 8003068:	e11b      	b.n	80032a2 <HAL_FDCAN_Init+0x2a2>
  while ((hfdcan->Instance->CCCR & FDCAN_CCCR_CSA) == FDCAN_CCCR_CSA)
 800306a:	687b      	ldr	r3, [r7, #4]
 800306c:	681b      	ldr	r3, [r3, #0]
 800306e:	699b      	ldr	r3, [r3, #24]
 8003070:	f003 0308 	and.w	r3, r3, #8
 8003074:	2b08      	cmp	r3, #8
 8003076:	d0e5      	beq.n	8003044 <HAL_FDCAN_Init+0x44>
    }
  }

  /* Request initialisation */
  SET_BIT(hfdcan->Instance->CCCR, FDCAN_CCCR_INIT);
 8003078:	687b      	ldr	r3, [r7, #4]
 800307a:	681b      	ldr	r3, [r3, #0]
 800307c:	699a      	ldr	r2, [r3, #24]
 800307e:	687b      	ldr	r3, [r7, #4]
 8003080:	681b      	ldr	r3, [r3, #0]
 8003082:	f042 0201 	orr.w	r2, r2, #1
 8003086:	619a      	str	r2, [r3, #24]

  /* Get tick */
  tickstart = HAL_GetTick();
 8003088:	f7fe f840 	bl	800110c <HAL_GetTick>
 800308c:	60f8      	str	r0, [r7, #12]

  /* Wait until the INIT bit into CCCR register is set */
  while ((hfdcan->Instance->CCCR & FDCAN_CCCR_INIT) == 0U)
 800308e:	e012      	b.n	80030b6 <HAL_FDCAN_Init+0xb6>
  {
    /* Check for the Timeout */
    if ((HAL_GetTick() - tickstart) > FDCAN_TIMEOUT_VALUE)
 8003090:	f7fe f83c 	bl	800110c <HAL_GetTick>
 8003094:	4602      	mov	r2, r0
 8003096:	68fb      	ldr	r3, [r7, #12]
 8003098:	1ad3      	subs	r3, r2, r3
 800309a:	2b0a      	cmp	r3, #10
 800309c:	d90b      	bls.n	80030b6 <HAL_FDCAN_Init+0xb6>
    {
      /* Update error code */
      hfdcan->ErrorCode |= HAL_FDCAN_ERROR_TIMEOUT;
 800309e:	687b      	ldr	r3, [r7, #4]
 80030a0:	6e1b      	ldr	r3, [r3, #96]	@ 0x60
 80030a2:	f043 0201 	orr.w	r2, r3, #1
 80030a6:	687b      	ldr	r3, [r7, #4]
 80030a8:	661a      	str	r2, [r3, #96]	@ 0x60

      /* Change FDCAN state */
      hfdcan->State = HAL_FDCAN_STATE_ERROR;
 80030aa:	687b      	ldr	r3, [r7, #4]
 80030ac:	2203      	movs	r2, #3
 80030ae:	f883 205c 	strb.w	r2, [r3, #92]	@ 0x5c

      return HAL_ERROR;
 80030b2:	2301      	movs	r3, #1
 80030b4:	e0f5      	b.n	80032a2 <HAL_FDCAN_Init+0x2a2>
  while ((hfdcan->Instance->CCCR & FDCAN_CCCR_INIT) == 0U)
 80030b6:	687b      	ldr	r3, [r7, #4]
 80030b8:	681b      	ldr	r3, [r3, #0]
 80030ba:	699b      	ldr	r3, [r3, #24]
 80030bc:	f003 0301 	and.w	r3, r3, #1
 80030c0:	2b00      	cmp	r3, #0
 80030c2:	d0e5      	beq.n	8003090 <HAL_FDCAN_Init+0x90>
    }
  }

  /* Enable configuration change */
  SET_BIT(hfdcan->Instance->CCCR, FDCAN_CCCR_CCE);
 80030c4:	687b      	ldr	r3, [r7, #4]
 80030c6:	681b      	ldr	r3, [r3, #0]
 80030c8:	699a      	ldr	r2, [r3, #24]
 80030ca:	687b      	ldr	r3, [r7, #4]
 80030cc:	681b      	ldr	r3, [r3, #0]
 80030ce:	f042 0202 	orr.w	r2, r2, #2
 80030d2:	619a      	str	r2, [r3, #24]

  /* Check FDCAN instance */
  if (hfdcan->Instance == FDCAN1)
 80030d4:	687b      	ldr	r3, [r7, #4]
 80030d6:	681b      	ldr	r3, [r3, #0]
 80030d8:	4a74      	ldr	r2, [pc, #464]	@ (80032ac <HAL_FDCAN_Init+0x2ac>)
 80030da:	4293      	cmp	r3, r2
 80030dc:	d103      	bne.n	80030e6 <HAL_FDCAN_Init+0xe6>
  {
    /* Configure Clock divider */
    FDCAN_CONFIG->CKDIV = hfdcan->Init.ClockDivider;
 80030de:	4a74      	ldr	r2, [pc, #464]	@ (80032b0 <HAL_FDCAN_Init+0x2b0>)
 80030e0:	687b      	ldr	r3, [r7, #4]
 80030e2:	685b      	ldr	r3, [r3, #4]
 80030e4:	6013      	str	r3, [r2, #0]
  }

  /* Set the no automatic retransmission */
  if (hfdcan->Init.AutoRetransmission == ENABLE)
 80030e6:	687b      	ldr	r3, [r7, #4]
 80030e8:	7c1b      	ldrb	r3, [r3, #16]
 80030ea:	2b01      	cmp	r3, #1
 80030ec:	d108      	bne.n	8003100 <HAL_FDCAN_Init+0x100>
  {
    CLEAR_BIT(hfdcan->Instance->CCCR, FDCAN_CCCR_DAR);
 80030ee:	687b      	ldr	r3, [r7, #4]
 80030f0:	681b      	ldr	r3, [r3, #0]
 80030f2:	699a      	ldr	r2, [r3, #24]
 80030f4:	687b      	ldr	r3, [r7, #4]
 80030f6:	681b      	ldr	r3, [r3, #0]
 80030f8:	f022 0240 	bic.w	r2, r2, #64	@ 0x40
 80030fc:	619a      	str	r2, [r3, #24]
 80030fe:	e007      	b.n	8003110 <HAL_FDCAN_Init+0x110>
  }
  else
  {
    SET_BIT(hfdcan->Instance->CCCR, FDCAN_CCCR_DAR);
 8003100:	687b      	ldr	r3, [r7, #4]
 8003102:	681b      	ldr	r3, [r3, #0]
 8003104:	699a      	ldr	r2, [r3, #24]
 8003106:	687b      	ldr	r3, [r7, #4]
 8003108:	681b      	ldr	r3, [r3, #0]
 800310a:	f042 0240 	orr.w	r2, r2, #64	@ 0x40
 800310e:	619a      	str	r2, [r3, #24]
  }

  /* Set the transmit pause feature */
  if (hfdcan->Init.TransmitPause == ENABLE)
 8003110:	687b      	ldr	r3, [r7, #4]
 8003112:	7c5b      	ldrb	r3, [r3, #17]
 8003114:	2b01      	cmp	r3, #1
 8003116:	d108      	bne.n	800312a <HAL_FDCAN_Init+0x12a>
  {
    SET_BIT(hfdcan->Instance->CCCR, FDCAN_CCCR_TXP);
 8003118:	687b      	ldr	r3, [r7, #4]
 800311a:	681b      	ldr	r3, [r3, #0]
 800311c:	699a      	ldr	r2, [r3, #24]
 800311e:	687b      	ldr	r3, [r7, #4]
 8003120:	681b      	ldr	r3, [r3, #0]
 8003122:	f442 4280 	orr.w	r2, r2, #16384	@ 0x4000
 8003126:	619a      	str	r2, [r3, #24]
 8003128:	e007      	b.n	800313a <HAL_FDCAN_Init+0x13a>
  }
  else
  {
    CLEAR_BIT(hfdcan->Instance->CCCR, FDCAN_CCCR_TXP);
 800312a:	687b      	ldr	r3, [r7, #4]
 800312c:	681b      	ldr	r3, [r3, #0]
 800312e:	699a      	ldr	r2, [r3, #24]
 8003130:	687b      	ldr	r3, [r7, #4]
 8003132:	681b      	ldr	r3, [r3, #0]
 8003134:	f422 4280 	bic.w	r2, r2, #16384	@ 0x4000
 8003138:	619a      	str	r2, [r3, #24]
  }

  /* Set the Protocol Exception Handling */
  if (hfdcan->Init.ProtocolException == ENABLE)
 800313a:	687b      	ldr	r3, [r7, #4]
 800313c:	7c9b      	ldrb	r3, [r3, #18]
 800313e:	2b01      	cmp	r3, #1
 8003140:	d108      	bne.n	8003154 <HAL_FDCAN_Init+0x154>
  {
    CLEAR_BIT(hfdcan->Instance->CCCR, FDCAN_CCCR_PXHD);
 8003142:	687b      	ldr	r3, [r7, #4]
 8003144:	681b      	ldr	r3, [r3, #0]
 8003146:	699a      	ldr	r2, [r3, #24]
 8003148:	687b      	ldr	r3, [r7, #4]
 800314a:	681b      	ldr	r3, [r3, #0]
 800314c:	f422 5280 	bic.w	r2, r2, #4096	@ 0x1000
 8003150:	619a      	str	r2, [r3, #24]
 8003152:	e007      	b.n	8003164 <HAL_FDCAN_Init+0x164>
  }
  else
  {
    SET_BIT(hfdcan->Instance->CCCR, FDCAN_CCCR_PXHD);
 8003154:	687b      	ldr	r3, [r7, #4]
 8003156:	681b      	ldr	r3, [r3, #0]
 8003158:	699a      	ldr	r2, [r3, #24]
 800315a:	687b      	ldr	r3, [r7, #4]
 800315c:	681b      	ldr	r3, [r3, #0]
 800315e:	f442 5280 	orr.w	r2, r2, #4096	@ 0x1000
 8003162:	619a      	str	r2, [r3, #24]
  }

  /* Set FDCAN Frame Format */
  MODIFY_REG(hfdcan->Instance->CCCR, FDCAN_FRAME_FD_BRS, hfdcan->Init.FrameFormat);
 8003164:	687b      	ldr	r3, [r7, #4]
 8003166:	681b      	ldr	r3, [r3, #0]
 8003168:	699b      	ldr	r3, [r3, #24]
 800316a:	f423 7140 	bic.w	r1, r3, #768	@ 0x300
 800316e:	687b      	ldr	r3, [r7, #4]
 8003170:	689a      	ldr	r2, [r3, #8]
 8003172:	687b      	ldr	r3, [r7, #4]
 8003174:	681b      	ldr	r3, [r3, #0]
 8003176:	430a      	orrs	r2, r1
 8003178:	619a      	str	r2, [r3, #24]

  /* Reset FDCAN Operation Mode */
  CLEAR_BIT(hfdcan->Instance->CCCR, (FDCAN_CCCR_TEST | FDCAN_CCCR_MON | FDCAN_CCCR_ASM));
 800317a:	687b      	ldr	r3, [r7, #4]
 800317c:	681b      	ldr	r3, [r3, #0]
 800317e:	699a      	ldr	r2, [r3, #24]
 8003180:	687b      	ldr	r3, [r7, #4]
 8003182:	681b      	ldr	r3, [r3, #0]
 8003184:	f022 02a4 	bic.w	r2, r2, #164	@ 0xa4
 8003188:	619a      	str	r2, [r3, #24]
  CLEAR_BIT(hfdcan->Instance->TEST, FDCAN_TEST_LBCK);
 800318a:	687b      	ldr	r3, [r7, #4]
 800318c:	681b      	ldr	r3, [r3, #0]
 800318e:	691a      	ldr	r2, [r3, #16]
 8003190:	687b      	ldr	r3, [r7, #4]
 8003192:	681b      	ldr	r3, [r3, #0]
 8003194:	f022 0210 	bic.w	r2, r2, #16
 8003198:	611a      	str	r2, [r3, #16]
     CCCR.TEST |   0    |     0      |     0      |    1     |    1
     CCCR.MON  |   0    |     0      |     1      |    1     |    0
     TEST.LBCK |   0    |     0      |     0      |    1     |    1
     CCCR.ASM  |   0    |     1      |     0      |    0     |    0
  */
  if (hfdcan->Init.Mode == FDCAN_MODE_RESTRICTED_OPERATION)
 800319a:	687b      	ldr	r3, [r7, #4]
 800319c:	68db      	ldr	r3, [r3, #12]
 800319e:	2b01      	cmp	r3, #1
 80031a0:	d108      	bne.n	80031b4 <HAL_FDCAN_Init+0x1b4>
  {
    /* Enable Restricted Operation mode */
    SET_BIT(hfdcan->Instance->CCCR, FDCAN_CCCR_ASM);
 80031a2:	687b      	ldr	r3, [r7, #4]
 80031a4:	681b      	ldr	r3, [r3, #0]
 80031a6:	699a      	ldr	r2, [r3, #24]
 80031a8:	687b      	ldr	r3, [r7, #4]
 80031aa:	681b      	ldr	r3, [r3, #0]
 80031ac:	f042 0204 	orr.w	r2, r2, #4
 80031b0:	619a      	str	r2, [r3, #24]
 80031b2:	e02c      	b.n	800320e <HAL_FDCAN_Init+0x20e>
  }
  else if (hfdcan->Init.Mode != FDCAN_MODE_NORMAL)
 80031b4:	687b      	ldr	r3, [r7, #4]
 80031b6:	68db      	ldr	r3, [r3, #12]
 80031b8:	2b00      	cmp	r3, #0
 80031ba:	d028      	beq.n	800320e <HAL_FDCAN_Init+0x20e>
  {
    if (hfdcan->Init.Mode != FDCAN_MODE_BUS_MONITORING)
 80031bc:	687b      	ldr	r3, [r7, #4]
 80031be:	68db      	ldr	r3, [r3, #12]
 80031c0:	2b02      	cmp	r3, #2
 80031c2:	d01c      	beq.n	80031fe <HAL_FDCAN_Init+0x1fe>
    {
      /* Enable write access to TEST register */
      SET_BIT(hfdcan->Instance->CCCR, FDCAN_CCCR_TEST);
 80031c4:	687b      	ldr	r3, [r7, #4]
 80031c6:	681b      	ldr	r3, [r3, #0]
 80031c8:	699a      	ldr	r2, [r3, #24]
 80031ca:	687b      	ldr	r3, [r7, #4]
 80031cc:	681b      	ldr	r3, [r3, #0]
 80031ce:	f042 0280 	orr.w	r2, r2, #128	@ 0x80
 80031d2:	619a      	str	r2, [r3, #24]

      /* Enable LoopBack mode */
      SET_BIT(hfdcan->Instance->TEST, FDCAN_TEST_LBCK);
 80031d4:	687b      	ldr	r3, [r7, #4]
 80031d6:	681b      	ldr	r3, [r3, #0]
 80031d8:	691a      	ldr	r2, [r3, #16]
 80031da:	687b      	ldr	r3, [r7, #4]
 80031dc:	681b      	ldr	r3, [r3, #0]
 80031de:	f042 0210 	orr.w	r2, r2, #16
 80031e2:	611a      	str	r2, [r3, #16]

      if (hfdcan->Init.Mode == FDCAN_MODE_INTERNAL_LOOPBACK)
 80031e4:	687b      	ldr	r3, [r7, #4]
 80031e6:	68db      	ldr	r3, [r3, #12]
 80031e8:	2b03      	cmp	r3, #3
 80031ea:	d110      	bne.n	800320e <HAL_FDCAN_Init+0x20e>
      {
        SET_BIT(hfdcan->Instance->CCCR, FDCAN_CCCR_MON);
 80031ec:	687b      	ldr	r3, [r7, #4]
 80031ee:	681b      	ldr	r3, [r3, #0]
 80031f0:	699a      	ldr	r2, [r3, #24]
 80031f2:	687b      	ldr	r3, [r7, #4]
 80031f4:	681b      	ldr	r3, [r3, #0]
 80031f6:	f042 0220 	orr.w	r2, r2, #32
 80031fa:	619a      	str	r2, [r3, #24]
 80031fc:	e007      	b.n	800320e <HAL_FDCAN_Init+0x20e>
      }
    }
    else
    {
      /* Enable bus monitoring mode */
      SET_BIT(hfdcan->Instance->CCCR, FDCAN_CCCR_MON);
 80031fe:	687b      	ldr	r3, [r7, #4]
 8003200:	681b      	ldr	r3, [r3, #0]
 8003202:	699a      	ldr	r2, [r3, #24]
 8003204:	687b      	ldr	r3, [r7, #4]
 8003206:	681b      	ldr	r3, [r3, #0]
 8003208:	f042 0220 	orr.w	r2, r2, #32
 800320c:	619a      	str	r2, [r3, #24]
  {
    /* Nothing to do: normal mode */
  }

  /* Set the nominal bit timing register */
  hfdcan->Instance->NBTP = ((((uint32_t)hfdcan->Init.NominalSyncJumpWidth - 1U) << FDCAN_NBTP_NSJW_Pos) | \
 800320e:	687b      	ldr	r3, [r7, #4]
 8003210:	699b      	ldr	r3, [r3, #24]
 8003212:	3b01      	subs	r3, #1
 8003214:	065a      	lsls	r2, r3, #25
                            (((uint32_t)hfdcan->Init.NominalTimeSeg1 - 1U) << FDCAN_NBTP_NTSEG1_Pos)    | \
 8003216:	687b      	ldr	r3, [r7, #4]
 8003218:	69db      	ldr	r3, [r3, #28]
 800321a:	3b01      	subs	r3, #1
 800321c:	021b      	lsls	r3, r3, #8
  hfdcan->Instance->NBTP = ((((uint32_t)hfdcan->Init.NominalSyncJumpWidth - 1U) << FDCAN_NBTP_NSJW_Pos) | \
 800321e:	431a      	orrs	r2, r3
                            (((uint32_t)hfdcan->Init.NominalTimeSeg2 - 1U) << FDCAN_NBTP_NTSEG2_Pos)    | \
 8003220:	687b      	ldr	r3, [r7, #4]
 8003222:	6a1b      	ldr	r3, [r3, #32]
 8003224:	3b01      	subs	r3, #1
                            (((uint32_t)hfdcan->Init.NominalTimeSeg1 - 1U) << FDCAN_NBTP_NTSEG1_Pos)    | \
 8003226:	ea42 0103 	orr.w	r1, r2, r3
                            (((uint32_t)hfdcan->Init.NominalPrescaler - 1U) << FDCAN_NBTP_NBRP_Pos));
 800322a:	687b      	ldr	r3, [r7, #4]
 800322c:	695b      	ldr	r3, [r3, #20]
 800322e:	3b01      	subs	r3, #1
 8003230:	041a      	lsls	r2, r3, #16
  hfdcan->Instance->NBTP = ((((uint32_t)hfdcan->Init.NominalSyncJumpWidth - 1U) << FDCAN_NBTP_NSJW_Pos) | \
 8003232:	687b      	ldr	r3, [r7, #4]
 8003234:	681b      	ldr	r3, [r3, #0]
                            (((uint32_t)hfdcan->Init.NominalTimeSeg2 - 1U) << FDCAN_NBTP_NTSEG2_Pos)    | \
 8003236:	430a      	orrs	r2, r1
  hfdcan->Instance->NBTP = ((((uint32_t)hfdcan->Init.NominalSyncJumpWidth - 1U) << FDCAN_NBTP_NSJW_Pos) | \
 8003238:	61da      	str	r2, [r3, #28]

  /* If FD operation with BRS is selected, set the data bit timing register */
  if (hfdcan->Init.FrameFormat == FDCAN_FRAME_FD_BRS)
 800323a:	687b      	ldr	r3, [r7, #4]
 800323c:	689b      	ldr	r3, [r3, #8]
 800323e:	f5b3 7f40 	cmp.w	r3, #768	@ 0x300
 8003242:	d115      	bne.n	8003270 <HAL_FDCAN_Init+0x270>
  {
    hfdcan->Instance->DBTP = ((((uint32_t)hfdcan->Init.DataSyncJumpWidth - 1U) << FDCAN_DBTP_DSJW_Pos)  | \
 8003244:	687b      	ldr	r3, [r7, #4]
 8003246:	6a9b      	ldr	r3, [r3, #40]	@ 0x28
 8003248:	1e5a      	subs	r2, r3, #1
                              (((uint32_t)hfdcan->Init.DataTimeSeg1 - 1U) << FDCAN_DBTP_DTSEG1_Pos)     | \
 800324a:	687b      	ldr	r3, [r7, #4]
 800324c:	6adb      	ldr	r3, [r3, #44]	@ 0x2c
 800324e:	3b01      	subs	r3, #1
 8003250:	021b      	lsls	r3, r3, #8
    hfdcan->Instance->DBTP = ((((uint32_t)hfdcan->Init.DataSyncJumpWidth - 1U) << FDCAN_DBTP_DSJW_Pos)  | \
 8003252:	431a      	orrs	r2, r3
                              (((uint32_t)hfdcan->Init.DataTimeSeg2 - 1U) << FDCAN_DBTP_DTSEG2_Pos)     | \
 8003254:	687b      	ldr	r3, [r7, #4]
 8003256:	6b1b      	ldr	r3, [r3, #48]	@ 0x30
 8003258:	3b01      	subs	r3, #1
 800325a:	011b      	lsls	r3, r3, #4
                              (((uint32_t)hfdcan->Init.DataTimeSeg1 - 1U) << FDCAN_DBTP_DTSEG1_Pos)     | \
 800325c:	ea42 0103 	orr.w	r1, r2, r3
                              (((uint32_t)hfdcan->Init.DataPrescaler - 1U) << FDCAN_DBTP_DBRP_Pos));
 8003260:	687b      	ldr	r3, [r7, #4]
 8003262:	6a5b      	ldr	r3, [r3, #36]	@ 0x24
 8003264:	3b01      	subs	r3, #1
 8003266:	041a      	lsls	r2, r3, #16
    hfdcan->Instance->DBTP = ((((uint32_t)hfdcan->Init.DataSyncJumpWidth - 1U) << FDCAN_DBTP_DSJW_Pos)  | \
 8003268:	687b      	ldr	r3, [r7, #4]
 800326a:	681b      	ldr	r3, [r3, #0]
                              (((uint32_t)hfdcan->Init.DataTimeSeg2 - 1U) << FDCAN_DBTP_DTSEG2_Pos)     | \
 800326c:	430a      	orrs	r2, r1
    hfdcan->Instance->DBTP = ((((uint32_t)hfdcan->Init.DataSyncJumpWidth - 1U) << FDCAN_DBTP_DSJW_Pos)  | \
 800326e:	60da      	str	r2, [r3, #12]
  }

  /* Select between Tx FIFO and Tx Queue operation modes */
  SET_BIT(hfdcan->Instance->TXBC, hfdcan->Init.TxFifoQueueMode);
 8003270:	687b      	ldr	r3, [r7, #4]
 8003272:	681b      	ldr	r3, [r3, #0]
 8003274:	f8d3 10c0 	ldr.w	r1, [r3, #192]	@ 0xc0
 8003278:	687b      	ldr	r3, [r7, #4]
 800327a:	6bda      	ldr	r2, [r3, #60]	@ 0x3c
 800327c:	687b      	ldr	r3, [r7, #4]
 800327e:	681b      	ldr	r3, [r3, #0]
 8003280:	430a      	orrs	r2, r1
 8003282:	f8c3 20c0 	str.w	r2, [r3, #192]	@ 0xc0

  /* Calculate each RAM block address */
  FDCAN_CalcultateRamBlockAddresses(hfdcan);
 8003286:	6878      	ldr	r0, [r7, #4]
 8003288:	f000 fbc6 	bl	8003a18 <FDCAN_CalcultateRamBlockAddresses>

  /* Initialize the Latest Tx request buffer index */
  hfdcan->LatestTxFifoQRequest = 0U;
 800328c:	687b      	ldr	r3, [r7, #4]
 800328e:	2200      	movs	r2, #0
 8003290:	659a      	str	r2, [r3, #88]	@ 0x58

  /* Initialize the error code */
  hfdcan->ErrorCode = HAL_FDCAN_ERROR_NONE;
 8003292:	687b      	ldr	r3, [r7, #4]
 8003294:	2200      	movs	r2, #0
 8003296:	661a      	str	r2, [r3, #96]	@ 0x60

  /* Initialize the FDCAN state */
  hfdcan->State = HAL_FDCAN_STATE_READY;
 8003298:	687b      	ldr	r3, [r7, #4]
 800329a:	2201      	movs	r2, #1
 800329c:	f883 205c 	strb.w	r2, [r3, #92]	@ 0x5c

  /* Return function status */
  return HAL_OK;
 80032a0:	2300      	movs	r3, #0
}
 80032a2:	4618      	mov	r0, r3
 80032a4:	3710      	adds	r7, #16
 80032a6:	46bd      	mov	sp, r7
 80032a8:	bd80      	pop	{r7, pc}
 80032aa:	bf00      	nop
 80032ac:	40006400 	.word	0x40006400
 80032b0:	40006500 	.word	0x40006500

080032b4 <HAL_FDCAN_Start>:
  * @param  hfdcan pointer to an FDCAN_HandleTypeDef structure that contains
  *         the configuration information for the specified FDCAN.
  * @retval HAL status
  */
HAL_StatusTypeDef HAL_FDCAN_Start(FDCAN_HandleTypeDef *hfdcan)
{
 80032b4:	b480      	push	{r7}
 80032b6:	b083      	sub	sp, #12
 80032b8:	af00      	add	r7, sp, #0
 80032ba:	6078      	str	r0, [r7, #4]
  if (hfdcan->State == HAL_FDCAN_STATE_READY)
 80032bc:	687b      	ldr	r3, [r7, #4]
 80032be:	f893 305c 	ldrb.w	r3, [r3, #92]	@ 0x5c
 80032c2:	b2db      	uxtb	r3, r3
 80032c4:	2b01      	cmp	r3, #1
 80032c6:	d110      	bne.n	80032ea <HAL_FDCAN_Start+0x36>
  {
    /* Change FDCAN peripheral state */
    hfdcan->State = HAL_FDCAN_STATE_BUSY;
 80032c8:	687b      	ldr	r3, [r7, #4]
 80032ca:	2202      	movs	r2, #2
 80032cc:	f883 205c 	strb.w	r2, [r3, #92]	@ 0x5c

    /* Request leave initialisation */
    CLEAR_BIT(hfdcan->Instance->CCCR, FDCAN_CCCR_INIT);
 80032d0:	687b      	ldr	r3, [r7, #4]
 80032d2:	681b      	ldr	r3, [r3, #0]
 80032d4:	699a      	ldr	r2, [r3, #24]
 80032d6:	687b      	ldr	r3, [r7, #4]
 80032d8:	681b      	ldr	r3, [r3, #0]
 80032da:	f022 0201 	bic.w	r2, r2, #1
 80032de:	619a      	str	r2, [r3, #24]

    /* Reset the FDCAN ErrorCode */
    hfdcan->ErrorCode = HAL_FDCAN_ERROR_NONE;
 80032e0:	687b      	ldr	r3, [r7, #4]
 80032e2:	2200      	movs	r2, #0
 80032e4:	661a      	str	r2, [r3, #96]	@ 0x60

    /* Return function status */
    return HAL_OK;
 80032e6:	2300      	movs	r3, #0
 80032e8:	e006      	b.n	80032f8 <HAL_FDCAN_Start+0x44>
  }
  else
  {
    /* Update error code */
    hfdcan->ErrorCode |= HAL_FDCAN_ERROR_NOT_READY;
 80032ea:	687b      	ldr	r3, [r7, #4]
 80032ec:	6e1b      	ldr	r3, [r3, #96]	@ 0x60
 80032ee:	f043 0204 	orr.w	r2, r3, #4
 80032f2:	687b      	ldr	r3, [r7, #4]
 80032f4:	661a      	str	r2, [r3, #96]	@ 0x60

    return HAL_ERROR;
 80032f6:	2301      	movs	r3, #1
  }
}
 80032f8:	4618      	mov	r0, r3
 80032fa:	370c      	adds	r7, #12
 80032fc:	46bd      	mov	sp, r7
 80032fe:	f85d 7b04 	ldr.w	r7, [sp], #4
 8003302:	4770      	bx	lr

08003304 <HAL_FDCAN_GetRxMessage>:
  * @param  pRxData pointer to a buffer where the payload of the Rx frame will be stored.
  * @retval HAL status
  */
HAL_StatusTypeDef HAL_FDCAN_GetRxMessage(FDCAN_HandleTypeDef *hfdcan, uint32_t RxLocation,
                                         FDCAN_RxHeaderTypeDef *pRxHeader, uint8_t *pRxData)
{
 8003304:	b480      	push	{r7}
 8003306:	b08b      	sub	sp, #44	@ 0x2c
 8003308:	af00      	add	r7, sp, #0
 800330a:	60f8      	str	r0, [r7, #12]
 800330c:	60b9      	str	r1, [r7, #8]
 800330e:	607a      	str	r2, [r7, #4]
 8003310:	603b      	str	r3, [r7, #0]
  uint32_t *RxAddress;
  uint8_t  *pData;
  uint32_t ByteCounter;
  uint32_t GetIndex = 0;
 8003312:	2300      	movs	r3, #0
 8003314:	61fb      	str	r3, [r7, #28]
  HAL_FDCAN_StateTypeDef state = hfdcan->State;
 8003316:	68fb      	ldr	r3, [r7, #12]
 8003318:	f893 305c 	ldrb.w	r3, [r3, #92]	@ 0x5c
 800331c:	76fb      	strb	r3, [r7, #27]

  /* Check function parameters */
  assert_param(IS_FDCAN_RX_FIFO(RxLocation));

  if (state == HAL_FDCAN_STATE_BUSY)
 800331e:	7efb      	ldrb	r3, [r7, #27]
 8003320:	2b02      	cmp	r3, #2
 8003322:	f040 80e8 	bne.w	80034f6 <HAL_FDCAN_GetRxMessage+0x1f2>
  {
    if (RxLocation == FDCAN_RX_FIFO0) /* Rx element is assigned to the Rx FIFO 0 */
 8003326:	68bb      	ldr	r3, [r7, #8]
 8003328:	2b40      	cmp	r3, #64	@ 0x40
 800332a:	d137      	bne.n	800339c <HAL_FDCAN_GetRxMessage+0x98>
    {
      /* Check that the Rx FIFO 0 is not empty */
      if ((hfdcan->Instance->RXF0S & FDCAN_RXF0S_F0FL) == 0U)
 800332c:	68fb      	ldr	r3, [r7, #12]
 800332e:	681b      	ldr	r3, [r3, #0]
 8003330:	f8d3 3090 	ldr.w	r3, [r3, #144]	@ 0x90
 8003334:	f003 030f 	and.w	r3, r3, #15
 8003338:	2b00      	cmp	r3, #0
 800333a:	d107      	bne.n	800334c <HAL_FDCAN_GetRxMessage+0x48>
      {
        /* Update error code */
        hfdcan->ErrorCode |= HAL_FDCAN_ERROR_FIFO_EMPTY;
 800333c:	68fb      	ldr	r3, [r7, #12]
 800333e:	6e1b      	ldr	r3, [r3, #96]	@ 0x60
 8003340:	f443 7280 	orr.w	r2, r3, #256	@ 0x100
 8003344:	68fb      	ldr	r3, [r7, #12]
 8003346:	661a      	str	r2, [r3, #96]	@ 0x60

        return HAL_ERROR;
 8003348:	2301      	movs	r3, #1
 800334a:	e0db      	b.n	8003504 <HAL_FDCAN_GetRxMessage+0x200>
      }
      else
      {
        /* Check that the Rx FIFO 0 is full & overwrite mode is on */
        if (((hfdcan->Instance->RXF0S & FDCAN_RXF0S_F0F) >> FDCAN_RXF0S_F0F_Pos) == 1U)
 800334c:	68fb      	ldr	r3, [r7, #12]
 800334e:	681b      	ldr	r3, [r3, #0]
 8003350:	f8d3 3090 	ldr.w	r3, [r3, #144]	@ 0x90
 8003354:	f003 7380 	and.w	r3, r3, #16777216	@ 0x1000000
 8003358:	f1b3 7f80 	cmp.w	r3, #16777216	@ 0x1000000
 800335c:	d10a      	bne.n	8003374 <HAL_FDCAN_GetRxMessage+0x70>
        {
          if (((hfdcan->Instance->RXGFC & FDCAN_RXGFC_F0OM) >> FDCAN_RXGFC_F0OM_Pos) == FDCAN_RX_FIFO_OVERWRITE)
 800335e:	68fb      	ldr	r3, [r7, #12]
 8003360:	681b      	ldr	r3, [r3, #0]
 8003362:	f8d3 3080 	ldr.w	r3, [r3, #128]	@ 0x80
 8003366:	f403 7300 	and.w	r3, r3, #512	@ 0x200
 800336a:	f5b3 7f00 	cmp.w	r3, #512	@ 0x200
 800336e:	d101      	bne.n	8003374 <HAL_FDCAN_GetRxMessage+0x70>
          {
            /* When overwrite status is on discard first message in FIFO */
            GetIndex = 1U;
 8003370:	2301      	movs	r3, #1
 8003372:	61fb      	str	r3, [r7, #28]
          }
        }

        /* Calculate Rx FIFO 0 element index */
        GetIndex += ((hfdcan->Instance->RXF0S & FDCAN_RXF0S_F0GI) >> FDCAN_RXF0S_F0GI_Pos);
 8003374:	68fb      	ldr	r3, [r7, #12]
 8003376:	681b      	ldr	r3, [r3, #0]
 8003378:	f8d3 3090 	ldr.w	r3, [r3, #144]	@ 0x90
 800337c:	0a1b      	lsrs	r3, r3, #8
 800337e:	f003 0303 	and.w	r3, r3, #3
 8003382:	69fa      	ldr	r2, [r7, #28]
 8003384:	4413      	add	r3, r2
 8003386:	61fb      	str	r3, [r7, #28]

        /* Calculate Rx FIFO 0 element address */
        RxAddress = (uint32_t *)(hfdcan->msgRam.RxFIFO0SA + (GetIndex * SRAMCAN_RF0_SIZE));
 8003388:	68fb      	ldr	r3, [r7, #12]
 800338a:	6c99      	ldr	r1, [r3, #72]	@ 0x48
 800338c:	69fa      	ldr	r2, [r7, #28]
 800338e:	4613      	mov	r3, r2
 8003390:	00db      	lsls	r3, r3, #3
 8003392:	4413      	add	r3, r2
 8003394:	00db      	lsls	r3, r3, #3
 8003396:	440b      	add	r3, r1
 8003398:	627b      	str	r3, [r7, #36]	@ 0x24
 800339a:	e036      	b.n	800340a <HAL_FDCAN_GetRxMessage+0x106>
      }
    }
    else /* Rx element is assigned to the Rx FIFO 1 */
    {
      /* Check that the Rx FIFO 1 is not empty */
      if ((hfdcan->Instance->RXF1S & FDCAN_RXF1S_F1FL) == 0U)
 800339c:	68fb      	ldr	r3, [r7, #12]
 800339e:	681b      	ldr	r3, [r3, #0]
 80033a0:	f8d3 3098 	ldr.w	r3, [r3, #152]	@ 0x98
 80033a4:	f003 030f 	and.w	r3, r3, #15
 80033a8:	2b00      	cmp	r3, #0
 80033aa:	d107      	bne.n	80033bc <HAL_FDCAN_GetRxMessage+0xb8>
      {
        /* Update error code */
        hfdcan->ErrorCode |= HAL_FDCAN_ERROR_FIFO_EMPTY;
 80033ac:	68fb      	ldr	r3, [r7, #12]
 80033ae:	6e1b      	ldr	r3, [r3, #96]	@ 0x60
 80033b0:	f443 7280 	orr.w	r2, r3, #256	@ 0x100
 80033b4:	68fb      	ldr	r3, [r7, #12]
 80033b6:	661a      	str	r2, [r3, #96]	@ 0x60

        return HAL_ERROR;
 80033b8:	2301      	movs	r3, #1
 80033ba:	e0a3      	b.n	8003504 <HAL_FDCAN_GetRxMessage+0x200>
      }
      else
      {
        /* Check that the Rx FIFO 1 is full & overwrite mode is on */
        if (((hfdcan->Instance->RXF1S & FDCAN_RXF1S_F1F) >> FDCAN_RXF1S_F1F_Pos) == 1U)
 80033bc:	68fb      	ldr	r3, [r7, #12]
 80033be:	681b      	ldr	r3, [r3, #0]
 80033c0:	f8d3 3098 	ldr.w	r3, [r3, #152]	@ 0x98
 80033c4:	f003 7380 	and.w	r3, r3, #16777216	@ 0x1000000
 80033c8:	f1b3 7f80 	cmp.w	r3, #16777216	@ 0x1000000
 80033cc:	d10a      	bne.n	80033e4 <HAL_FDCAN_GetRxMessage+0xe0>
        {
          if (((hfdcan->Instance->RXGFC & FDCAN_RXGFC_F1OM) >> FDCAN_RXGFC_F1OM_Pos) == FDCAN_RX_FIFO_OVERWRITE)
 80033ce:	68fb      	ldr	r3, [r7, #12]
 80033d0:	681b      	ldr	r3, [r3, #0]
 80033d2:	f8d3 3080 	ldr.w	r3, [r3, #128]	@ 0x80
 80033d6:	f403 7380 	and.w	r3, r3, #256	@ 0x100
 80033da:	f5b3 7f80 	cmp.w	r3, #256	@ 0x100
 80033de:	d101      	bne.n	80033e4 <HAL_FDCAN_GetRxMessage+0xe0>
          {
            /* When overwrite status is on discard first message in FIFO */
            GetIndex = 1U;
 80033e0:	2301      	movs	r3, #1
 80033e2:	61fb      	str	r3, [r7, #28]
          }
        }

        /* Calculate Rx FIFO 1 element index */
        GetIndex += ((hfdcan->Instance->RXF1S & FDCAN_RXF1S_F1GI) >> FDCAN_RXF1S_F1GI_Pos);
 80033e4:	68fb      	ldr	r3, [r7, #12]
 80033e6:	681b      	ldr	r3, [r3, #0]
 80033e8:	f8d3 3098 	ldr.w	r3, [r3, #152]	@ 0x98
 80033ec:	0a1b      	lsrs	r3, r3, #8
 80033ee:	f003 0303 	and.w	r3, r3, #3
 80033f2:	69fa      	ldr	r2, [r7, #28]
 80033f4:	4413      	add	r3, r2
 80033f6:	61fb      	str	r3, [r7, #28]
        /* Calculate Rx FIFO 1 element address */
        RxAddress = (uint32_t *)(hfdcan->msgRam.RxFIFO1SA + (GetIndex * SRAMCAN_RF1_SIZE));
 80033f8:	68fb      	ldr	r3, [r7, #12]
 80033fa:	6cd9      	ldr	r1, [r3, #76]	@ 0x4c
 80033fc:	69fa      	ldr	r2, [r7, #28]
 80033fe:	4613      	mov	r3, r2
 8003400:	00db      	lsls	r3, r3, #3
 8003402:	4413      	add	r3, r2
 8003404:	00db      	lsls	r3, r3, #3
 8003406:	440b      	add	r3, r1
 8003408:	627b      	str	r3, [r7, #36]	@ 0x24
      }
    }

    /* Retrieve IdType */
    pRxHeader->IdType = *RxAddress & FDCAN_ELEMENT_MASK_XTD;
 800340a:	6a7b      	ldr	r3, [r7, #36]	@ 0x24
 800340c:	681b      	ldr	r3, [r3, #0]
 800340e:	f003 4280 	and.w	r2, r3, #1073741824	@ 0x40000000
 8003412:	687b      	ldr	r3, [r7, #4]
 8003414:	605a      	str	r2, [r3, #4]

    /* Retrieve Identifier */
    if (pRxHeader->IdType == FDCAN_STANDARD_ID) /* Standard ID element */
 8003416:	687b      	ldr	r3, [r7, #4]
 8003418:	685b      	ldr	r3, [r3, #4]
 800341a:	2b00      	cmp	r3, #0
 800341c:	d107      	bne.n	800342e <HAL_FDCAN_GetRxMessage+0x12a>
    {
      pRxHeader->Identifier = ((*RxAddress & FDCAN_ELEMENT_MASK_STDID) >> 18U);
 800341e:	6a7b      	ldr	r3, [r7, #36]	@ 0x24
 8003420:	681b      	ldr	r3, [r3, #0]
 8003422:	0c9b      	lsrs	r3, r3, #18
 8003424:	f3c3 020a 	ubfx	r2, r3, #0, #11
 8003428:	687b      	ldr	r3, [r7, #4]
 800342a:	601a      	str	r2, [r3, #0]
 800342c:	e005      	b.n	800343a <HAL_FDCAN_GetRxMessage+0x136>
    }
    else /* Extended ID element */
    {
      pRxHeader->Identifier = (*RxAddress & FDCAN_ELEMENT_MASK_EXTID);
 800342e:	6a7b      	ldr	r3, [r7, #36]	@ 0x24
 8003430:	681b      	ldr	r3, [r3, #0]
 8003432:	f023 4260 	bic.w	r2, r3, #3758096384	@ 0xe0000000
 8003436:	687b      	ldr	r3, [r7, #4]
 8003438:	601a      	str	r2, [r3, #0]
    }

    /* Retrieve RxFrameType */
    pRxHeader->RxFrameType = (*RxAddress & FDCAN_ELEMENT_MASK_RTR);
 800343a:	6a7b      	ldr	r3, [r7, #36]	@ 0x24
 800343c:	681b      	ldr	r3, [r3, #0]
 800343e:	f003 5200 	and.w	r2, r3, #536870912	@ 0x20000000
 8003442:	687b      	ldr	r3, [r7, #4]
 8003444:	609a      	str	r2, [r3, #8]

    /* Retrieve ErrorStateIndicator */
    pRxHeader->ErrorStateIndicator = (*RxAddress & FDCAN_ELEMENT_MASK_ESI);
 8003446:	6a7b      	ldr	r3, [r7, #36]	@ 0x24
 8003448:	681b      	ldr	r3, [r3, #0]
 800344a:	f003 4200 	and.w	r2, r3, #2147483648	@ 0x80000000
 800344e:	687b      	ldr	r3, [r7, #4]
 8003450:	611a      	str	r2, [r3, #16]

    /* Increment RxAddress pointer to second word of Rx FIFO element */
    RxAddress++;
 8003452:	6a7b      	ldr	r3, [r7, #36]	@ 0x24
 8003454:	3304      	adds	r3, #4
 8003456:	627b      	str	r3, [r7, #36]	@ 0x24

    /* Retrieve RxTimestamp */
    pRxHeader->RxTimestamp = (*RxAddress & FDCAN_ELEMENT_MASK_TS);
 8003458:	6a7b      	ldr	r3, [r7, #36]	@ 0x24
 800345a:	681b      	ldr	r3, [r3, #0]
 800345c:	b29a      	uxth	r2, r3
 800345e:	687b      	ldr	r3, [r7, #4]
 8003460:	61da      	str	r2, [r3, #28]

    /* Retrieve DataLength */
    pRxHeader->DataLength = ((*RxAddress & FDCAN_ELEMENT_MASK_DLC) >> 16U);
 8003462:	6a7b      	ldr	r3, [r7, #36]	@ 0x24
 8003464:	681b      	ldr	r3, [r3, #0]
 8003466:	0c1b      	lsrs	r3, r3, #16
 8003468:	f003 020f 	and.w	r2, r3, #15
 800346c:	687b      	ldr	r3, [r7, #4]
 800346e:	60da      	str	r2, [r3, #12]

    /* Retrieve BitRateSwitch */
    pRxHeader->BitRateSwitch = (*RxAddress & FDCAN_ELEMENT_MASK_BRS);
 8003470:	6a7b      	ldr	r3, [r7, #36]	@ 0x24
 8003472:	681b      	ldr	r3, [r3, #0]
 8003474:	f403 1280 	and.w	r2, r3, #1048576	@ 0x100000
 8003478:	687b      	ldr	r3, [r7, #4]
 800347a:	615a      	str	r2, [r3, #20]

    /* Retrieve FDFormat */
    pRxHeader->FDFormat = (*RxAddress & FDCAN_ELEMENT_MASK_FDF);
 800347c:	6a7b      	ldr	r3, [r7, #36]	@ 0x24
 800347e:	681b      	ldr	r3, [r3, #0]
 8003480:	f403 1200 	and.w	r2, r3, #2097152	@ 0x200000
 8003484:	687b      	ldr	r3, [r7, #4]
 8003486:	619a      	str	r2, [r3, #24]

    /* Retrieve FilterIndex */
    pRxHeader->FilterIndex = ((*RxAddress & FDCAN_ELEMENT_MASK_FIDX) >> 24U);
 8003488:	6a7b      	ldr	r3, [r7, #36]	@ 0x24
 800348a:	681b      	ldr	r3, [r3, #0]
 800348c:	0e1b      	lsrs	r3, r3, #24
 800348e:	f003 027f 	and.w	r2, r3, #127	@ 0x7f
 8003492:	687b      	ldr	r3, [r7, #4]
 8003494:	621a      	str	r2, [r3, #32]

    /* Retrieve NonMatchingFrame */
    pRxHeader->IsFilterMatchingFrame = ((*RxAddress & FDCAN_ELEMENT_MASK_ANMF) >> 31U);
 8003496:	6a7b      	ldr	r3, [r7, #36]	@ 0x24
 8003498:	681b      	ldr	r3, [r3, #0]
 800349a:	0fda      	lsrs	r2, r3, #31
 800349c:	687b      	ldr	r3, [r7, #4]
 800349e:	625a      	str	r2, [r3, #36]	@ 0x24

    /* Increment RxAddress pointer to payload of Rx FIFO element */
    RxAddress++;
 80034a0:	6a7b      	ldr	r3, [r7, #36]	@ 0x24
 80034a2:	3304      	adds	r3, #4
 80034a4:	627b      	str	r3, [r7, #36]	@ 0x24

    /* Retrieve Rx payload */
    pData = (uint8_t *)RxAddress;
 80034a6:	6a7b      	ldr	r3, [r7, #36]	@ 0x24
 80034a8:	617b      	str	r3, [r7, #20]
    for (ByteCounter = 0; ByteCounter < DLCtoBytes[pRxHeader->DataLength]; ByteCounter++)
 80034aa:	2300      	movs	r3, #0
 80034ac:	623b      	str	r3, [r7, #32]
 80034ae:	e00a      	b.n	80034c6 <HAL_FDCAN_GetRxMessage+0x1c2>
    {
      pRxData[ByteCounter] = pData[ByteCounter];
 80034b0:	697a      	ldr	r2, [r7, #20]
 80034b2:	6a3b      	ldr	r3, [r7, #32]
 80034b4:	441a      	add	r2, r3
 80034b6:	6839      	ldr	r1, [r7, #0]
 80034b8:	6a3b      	ldr	r3, [r7, #32]
 80034ba:	440b      	add	r3, r1
 80034bc:	7812      	ldrb	r2, [r2, #0]
 80034be:	701a      	strb	r2, [r3, #0]
    for (ByteCounter = 0; ByteCounter < DLCtoBytes[pRxHeader->DataLength]; ByteCounter++)
 80034c0:	6a3b      	ldr	r3, [r7, #32]
 80034c2:	3301      	adds	r3, #1
 80034c4:	623b      	str	r3, [r7, #32]
 80034c6:	687b      	ldr	r3, [r7, #4]
 80034c8:	68db      	ldr	r3, [r3, #12]
 80034ca:	4a11      	ldr	r2, [pc, #68]	@ (8003510 <HAL_FDCAN_GetRxMessage+0x20c>)
 80034cc:	5cd3      	ldrb	r3, [r2, r3]
 80034ce:	461a      	mov	r2, r3
 80034d0:	6a3b      	ldr	r3, [r7, #32]
 80034d2:	4293      	cmp	r3, r2
 80034d4:	d3ec      	bcc.n	80034b0 <HAL_FDCAN_GetRxMessage+0x1ac>
    }

    if (RxLocation == FDCAN_RX_FIFO0) /* Rx element is assigned to the Rx FIFO 0 */
 80034d6:	68bb      	ldr	r3, [r7, #8]
 80034d8:	2b40      	cmp	r3, #64	@ 0x40
 80034da:	d105      	bne.n	80034e8 <HAL_FDCAN_GetRxMessage+0x1e4>
    {
      /* Acknowledge the Rx FIFO 0 that the oldest element is read so that it increments the GetIndex */
      hfdcan->Instance->RXF0A = GetIndex;
 80034dc:	68fb      	ldr	r3, [r7, #12]
 80034de:	681b      	ldr	r3, [r3, #0]
 80034e0:	69fa      	ldr	r2, [r7, #28]
 80034e2:	f8c3 2094 	str.w	r2, [r3, #148]	@ 0x94
 80034e6:	e004      	b.n	80034f2 <HAL_FDCAN_GetRxMessage+0x1ee>
    }
    else /* Rx element is assigned to the Rx FIFO 1 */
    {
      /* Acknowledge the Rx FIFO 1 that the oldest element is read so that it increments the GetIndex */
      hfdcan->Instance->RXF1A = GetIndex;
 80034e8:	68fb      	ldr	r3, [r7, #12]
 80034ea:	681b      	ldr	r3, [r3, #0]
 80034ec:	69fa      	ldr	r2, [r7, #28]
 80034ee:	f8c3 209c 	str.w	r2, [r3, #156]	@ 0x9c
    }

    /* Return function status */
    return HAL_OK;
 80034f2:	2300      	movs	r3, #0
 80034f4:	e006      	b.n	8003504 <HAL_FDCAN_GetRxMessage+0x200>
  }
  else
  {
    /* Update error code */
    hfdcan->ErrorCode |= HAL_FDCAN_ERROR_NOT_STARTED;
 80034f6:	68fb      	ldr	r3, [r7, #12]
 80034f8:	6e1b      	ldr	r3, [r3, #96]	@ 0x60
 80034fa:	f043 0208 	orr.w	r2, r3, #8
 80034fe:	68fb      	ldr	r3, [r7, #12]
 8003500:	661a      	str	r2, [r3, #96]	@ 0x60

    return HAL_ERROR;
 8003502:	2301      	movs	r3, #1
  }
}
 8003504:	4618      	mov	r0, r3
 8003506:	372c      	adds	r7, #44	@ 0x2c
 8003508:	46bd      	mov	sp, r7
 800350a:	f85d 7b04 	ldr.w	r7, [sp], #4
 800350e:	4770      	bx	lr
 8003510:	080058e4 	.word	0x080058e4

08003514 <HAL_FDCAN_ActivateNotification>:
  *           - FDCAN_IT_TX_ABORT_COMPLETE
  * @retval HAL status
  */
HAL_StatusTypeDef HAL_FDCAN_ActivateNotification(FDCAN_HandleTypeDef *hfdcan, uint32_t ActiveITs,
                                                 uint32_t BufferIndexes)
{
 8003514:	b480      	push	{r7}
 8003516:	b087      	sub	sp, #28
 8003518:	af00      	add	r7, sp, #0
 800351a:	60f8      	str	r0, [r7, #12]
 800351c:	60b9      	str	r1, [r7, #8]
 800351e:	607a      	str	r2, [r7, #4]
  HAL_FDCAN_StateTypeDef state = hfdcan->State;
 8003520:	68fb      	ldr	r3, [r7, #12]
 8003522:	f893 305c 	ldrb.w	r3, [r3, #92]	@ 0x5c
 8003526:	75fb      	strb	r3, [r7, #23]
  if ((ActiveITs & (FDCAN_IT_TX_COMPLETE | FDCAN_IT_TX_ABORT_COMPLETE)) != 0U)
  {
    assert_param(IS_FDCAN_TX_LOCATION_LIST(BufferIndexes));
  }

  if ((state == HAL_FDCAN_STATE_READY) || (state == HAL_FDCAN_STATE_BUSY))
 8003528:	7dfb      	ldrb	r3, [r7, #23]
 800352a:	2b01      	cmp	r3, #1
 800352c:	d003      	beq.n	8003536 <HAL_FDCAN_ActivateNotification+0x22>
 800352e:	7dfb      	ldrb	r3, [r7, #23]
 8003530:	2b02      	cmp	r3, #2
 8003532:	f040 80c8 	bne.w	80036c6 <HAL_FDCAN_ActivateNotification+0x1b2>
  {
    /* Get interrupts line selection */
    ITs_lines_selection = hfdcan->Instance->ILS;
 8003536:	68fb      	ldr	r3, [r7, #12]
 8003538:	681b      	ldr	r3, [r3, #0]
 800353a:	6d9b      	ldr	r3, [r3, #88]	@ 0x58
 800353c:	613b      	str	r3, [r7, #16]

    /* Enable Interrupt lines */
    if ((((ActiveITs & FDCAN_IT_LIST_RX_FIFO0) != 0U)
 800353e:	68bb      	ldr	r3, [r7, #8]
 8003540:	f003 0307 	and.w	r3, r3, #7
 8003544:	2b00      	cmp	r3, #0
 8003546:	d004      	beq.n	8003552 <HAL_FDCAN_ActivateNotification+0x3e>
         && (((ITs_lines_selection) & FDCAN_IT_GROUP_RX_FIFO0) == 0U)) || \
 8003548:	693b      	ldr	r3, [r7, #16]
 800354a:	f003 0301 	and.w	r3, r3, #1
 800354e:	2b00      	cmp	r3, #0
 8003550:	d03b      	beq.n	80035ca <HAL_FDCAN_ActivateNotification+0xb6>
        (((ActiveITs & FDCAN_IT_LIST_RX_FIFO1)       != 0U)
 8003552:	68bb      	ldr	r3, [r7, #8]
 8003554:	f003 0338 	and.w	r3, r3, #56	@ 0x38
         && (((ITs_lines_selection) & FDCAN_IT_GROUP_RX_FIFO0) == 0U)) || \
 8003558:	2b00      	cmp	r3, #0
 800355a:	d004      	beq.n	8003566 <HAL_FDCAN_ActivateNotification+0x52>
         && (((ITs_lines_selection) & FDCAN_IT_GROUP_RX_FIFO1) == 0U)) || \
 800355c:	693b      	ldr	r3, [r7, #16]
 800355e:	f003 0302 	and.w	r3, r3, #2
 8003562:	2b00      	cmp	r3, #0
 8003564:	d031      	beq.n	80035ca <HAL_FDCAN_ActivateNotification+0xb6>
        (((ActiveITs & FDCAN_IT_LIST_SMSG)           != 0U)
 8003566:	68bb      	ldr	r3, [r7, #8]
 8003568:	f403 73e0 	and.w	r3, r3, #448	@ 0x1c0
         && (((ITs_lines_selection) & FDCAN_IT_GROUP_RX_FIFO1) == 0U)) || \
 800356c:	2b00      	cmp	r3, #0
 800356e:	d004      	beq.n	800357a <HAL_FDCAN_ActivateNotification+0x66>
         && (((ITs_lines_selection) & FDCAN_IT_GROUP_SMSG)     == 0U)) || \
 8003570:	693b      	ldr	r3, [r7, #16]
 8003572:	f003 0304 	and.w	r3, r3, #4
 8003576:	2b00      	cmp	r3, #0
 8003578:	d027      	beq.n	80035ca <HAL_FDCAN_ActivateNotification+0xb6>
        (((ActiveITs & FDCAN_IT_LIST_TX_FIFO_ERROR)  != 0U)
 800357a:	68bb      	ldr	r3, [r7, #8]
 800357c:	f403 53f0 	and.w	r3, r3, #7680	@ 0x1e00
         && (((ITs_lines_selection) & FDCAN_IT_GROUP_SMSG)     == 0U)) || \
 8003580:	2b00      	cmp	r3, #0
 8003582:	d004      	beq.n	800358e <HAL_FDCAN_ActivateNotification+0x7a>
         && (((ITs_lines_selection) & FDCAN_IT_GROUP_TX_FIFO_ERROR)  == 0U)) || \
 8003584:	693b      	ldr	r3, [r7, #16]
 8003586:	f003 0308 	and.w	r3, r3, #8
 800358a:	2b00      	cmp	r3, #0
 800358c:	d01d      	beq.n	80035ca <HAL_FDCAN_ActivateNotification+0xb6>
        (((ActiveITs & FDCAN_IT_LIST_MISC)           != 0U)
 800358e:	68bb      	ldr	r3, [r7, #8]
 8003590:	f403 4360 	and.w	r3, r3, #57344	@ 0xe000
         && (((ITs_lines_selection) & FDCAN_IT_GROUP_TX_FIFO_ERROR)  == 0U)) || \
 8003594:	2b00      	cmp	r3, #0
 8003596:	d004      	beq.n	80035a2 <HAL_FDCAN_ActivateNotification+0x8e>
         && (((ITs_lines_selection) & FDCAN_IT_GROUP_MISC)           == 0U)) || \
 8003598:	693b      	ldr	r3, [r7, #16]
 800359a:	f003 0310 	and.w	r3, r3, #16
 800359e:	2b00      	cmp	r3, #0
 80035a0:	d013      	beq.n	80035ca <HAL_FDCAN_ActivateNotification+0xb6>
        (((ActiveITs & FDCAN_IT_LIST_BIT_LINE_ERROR) != 0U)
 80035a2:	68bb      	ldr	r3, [r7, #8]
 80035a4:	f403 3340 	and.w	r3, r3, #196608	@ 0x30000
         && (((ITs_lines_selection) & FDCAN_IT_GROUP_MISC)           == 0U)) || \
 80035a8:	2b00      	cmp	r3, #0
 80035aa:	d004      	beq.n	80035b6 <HAL_FDCAN_ActivateNotification+0xa2>
         && (((ITs_lines_selection) & FDCAN_IT_GROUP_BIT_LINE_ERROR) == 0U)) || \
 80035ac:	693b      	ldr	r3, [r7, #16]
 80035ae:	f003 0320 	and.w	r3, r3, #32
 80035b2:	2b00      	cmp	r3, #0
 80035b4:	d009      	beq.n	80035ca <HAL_FDCAN_ActivateNotification+0xb6>
        (((ActiveITs & FDCAN_IT_LIST_PROTOCOL_ERROR) != 0U)
 80035b6:	68bb      	ldr	r3, [r7, #8]
 80035b8:	f403 037c 	and.w	r3, r3, #16515072	@ 0xfc0000
         && (((ITs_lines_selection) & FDCAN_IT_GROUP_BIT_LINE_ERROR) == 0U)) || \
 80035bc:	2b00      	cmp	r3, #0
 80035be:	d00c      	beq.n	80035da <HAL_FDCAN_ActivateNotification+0xc6>
         && (((ITs_lines_selection) & FDCAN_IT_GROUP_PROTOCOL_ERROR) == 0U)))
 80035c0:	693b      	ldr	r3, [r7, #16]
 80035c2:	f003 0340 	and.w	r3, r3, #64	@ 0x40
 80035c6:	2b00      	cmp	r3, #0
 80035c8:	d107      	bne.n	80035da <HAL_FDCAN_ActivateNotification+0xc6>
    {
      /* Enable Interrupt line 0 */
      SET_BIT(hfdcan->Instance->ILE, FDCAN_INTERRUPT_LINE0);
 80035ca:	68fb      	ldr	r3, [r7, #12]
 80035cc:	681b      	ldr	r3, [r3, #0]
 80035ce:	6dda      	ldr	r2, [r3, #92]	@ 0x5c
 80035d0:	68fb      	ldr	r3, [r7, #12]
 80035d2:	681b      	ldr	r3, [r3, #0]
 80035d4:	f042 0201 	orr.w	r2, r2, #1
 80035d8:	65da      	str	r2, [r3, #92]	@ 0x5c
    }
    if ((((ActiveITs & FDCAN_IT_LIST_RX_FIFO0)       != 0U)
 80035da:	68bb      	ldr	r3, [r7, #8]
 80035dc:	f003 0307 	and.w	r3, r3, #7
 80035e0:	2b00      	cmp	r3, #0
 80035e2:	d004      	beq.n	80035ee <HAL_FDCAN_ActivateNotification+0xda>
         && (((ITs_lines_selection) & FDCAN_IT_GROUP_RX_FIFO0)      != 0U)) || \
 80035e4:	693b      	ldr	r3, [r7, #16]
 80035e6:	f003 0301 	and.w	r3, r3, #1
 80035ea:	2b00      	cmp	r3, #0
 80035ec:	d13b      	bne.n	8003666 <HAL_FDCAN_ActivateNotification+0x152>
        (((ActiveITs & FDCAN_IT_LIST_RX_FIFO1)       != 0U)
 80035ee:	68bb      	ldr	r3, [r7, #8]
 80035f0:	f003 0338 	and.w	r3, r3, #56	@ 0x38
         && (((ITs_lines_selection) & FDCAN_IT_GROUP_RX_FIFO0)      != 0U)) || \
 80035f4:	2b00      	cmp	r3, #0
 80035f6:	d004      	beq.n	8003602 <HAL_FDCAN_ActivateNotification+0xee>
         && (((ITs_lines_selection) & FDCAN_IT_GROUP_RX_FIFO1)       != 0U)) || \
 80035f8:	693b      	ldr	r3, [r7, #16]
 80035fa:	f003 0302 	and.w	r3, r3, #2
 80035fe:	2b00      	cmp	r3, #0
 8003600:	d131      	bne.n	8003666 <HAL_FDCAN_ActivateNotification+0x152>
        (((ActiveITs & FDCAN_IT_LIST_SMSG)           != 0U)
 8003602:	68bb      	ldr	r3, [r7, #8]
 8003604:	f403 73e0 	and.w	r3, r3, #448	@ 0x1c0
         && (((ITs_lines_selection) & FDCAN_IT_GROUP_RX_FIFO1)       != 0U)) || \
 8003608:	2b00      	cmp	r3, #0
 800360a:	d004      	beq.n	8003616 <HAL_FDCAN_ActivateNotification+0x102>
         && (((ITs_lines_selection) & FDCAN_IT_GROUP_SMSG)           != 0U)) || \
 800360c:	693b      	ldr	r3, [r7, #16]
 800360e:	f003 0304 	and.w	r3, r3, #4
 8003612:	2b00      	cmp	r3, #0
 8003614:	d127      	bne.n	8003666 <HAL_FDCAN_ActivateNotification+0x152>
        (((ActiveITs & FDCAN_IT_LIST_TX_FIFO_ERROR)  != 0U)
 8003616:	68bb      	ldr	r3, [r7, #8]
 8003618:	f403 53f0 	and.w	r3, r3, #7680	@ 0x1e00
         && (((ITs_lines_selection) & FDCAN_IT_GROUP_SMSG)           != 0U)) || \
 800361c:	2b00      	cmp	r3, #0
 800361e:	d004      	beq.n	800362a <HAL_FDCAN_ActivateNotification+0x116>
         && (((ITs_lines_selection) & FDCAN_IT_GROUP_TX_FIFO_ERROR)  != 0U)) || \
 8003620:	693b      	ldr	r3, [r7, #16]
 8003622:	f003 0308 	and.w	r3, r3, #8
 8003626:	2b00      	cmp	r3, #0
 8003628:	d11d      	bne.n	8003666 <HAL_FDCAN_ActivateNotification+0x152>
        (((ActiveITs & FDCAN_IT_LIST_MISC)           != 0U)
 800362a:	68bb      	ldr	r3, [r7, #8]
 800362c:	f403 4360 	and.w	r3, r3, #57344	@ 0xe000
         && (((ITs_lines_selection) & FDCAN_IT_GROUP_TX_FIFO_ERROR)  != 0U)) || \
 8003630:	2b00      	cmp	r3, #0
 8003632:	d004      	beq.n	800363e <HAL_FDCAN_ActivateNotification+0x12a>
         && (((ITs_lines_selection) & FDCAN_IT_GROUP_MISC)           != 0U)) || \
 8003634:	693b      	ldr	r3, [r7, #16]
 8003636:	f003 0310 	and.w	r3, r3, #16
 800363a:	2b00      	cmp	r3, #0
 800363c:	d113      	bne.n	8003666 <HAL_FDCAN_ActivateNotification+0x152>
        (((ActiveITs & FDCAN_IT_LIST_BIT_LINE_ERROR) != 0U)
 800363e:	68bb      	ldr	r3, [r7, #8]
 8003640:	f403 3340 	and.w	r3, r3, #196608	@ 0x30000
         && (((ITs_lines_selection) & FDCAN_IT_GROUP_MISC)           != 0U)) || \
 8003644:	2b00      	cmp	r3, #0
 8003646:	d004      	beq.n	8003652 <HAL_FDCAN_ActivateNotification+0x13e>
         && (((ITs_lines_selection) & FDCAN_IT_GROUP_BIT_LINE_ERROR) != 0U)) || \
 8003648:	693b      	ldr	r3, [r7, #16]
 800364a:	f003 0320 	and.w	r3, r3, #32
 800364e:	2b00      	cmp	r3, #0
 8003650:	d109      	bne.n	8003666 <HAL_FDCAN_ActivateNotification+0x152>
        (((ActiveITs & FDCAN_IT_LIST_PROTOCOL_ERROR) != 0U)
 8003652:	68bb      	ldr	r3, [r7, #8]
 8003654:	f403 037c 	and.w	r3, r3, #16515072	@ 0xfc0000
         && (((ITs_lines_selection) & FDCAN_IT_GROUP_BIT_LINE_ERROR) != 0U)) || \
 8003658:	2b00      	cmp	r3, #0
 800365a:	d00c      	beq.n	8003676 <HAL_FDCAN_ActivateNotification+0x162>
         && (((ITs_lines_selection) & FDCAN_IT_GROUP_PROTOCOL_ERROR) != 0U)))
 800365c:	693b      	ldr	r3, [r7, #16]
 800365e:	f003 0340 	and.w	r3, r3, #64	@ 0x40
 8003662:	2b00      	cmp	r3, #0
 8003664:	d007      	beq.n	8003676 <HAL_FDCAN_ActivateNotification+0x162>
    {
      /* Enable Interrupt line 1 */
      SET_BIT(hfdcan->Instance->ILE, FDCAN_INTERRUPT_LINE1);
 8003666:	68fb      	ldr	r3, [r7, #12]
 8003668:	681b      	ldr	r3, [r3, #0]
 800366a:	6dda      	ldr	r2, [r3, #92]	@ 0x5c
 800366c:	68fb      	ldr	r3, [r7, #12]
 800366e:	681b      	ldr	r3, [r3, #0]
 8003670:	f042 0202 	orr.w	r2, r2, #2
 8003674:	65da      	str	r2, [r3, #92]	@ 0x5c
    }

    if ((ActiveITs & FDCAN_IT_TX_COMPLETE) != 0U)
 8003676:	68bb      	ldr	r3, [r7, #8]
 8003678:	f003 0380 	and.w	r3, r3, #128	@ 0x80
 800367c:	2b00      	cmp	r3, #0
 800367e:	d009      	beq.n	8003694 <HAL_FDCAN_ActivateNotification+0x180>
    {
      /* Enable Tx Buffer Transmission Interrupt to set TC flag in IR register,
         but interrupt will only occur if TC is enabled in IE register */
      SET_BIT(hfdcan->Instance->TXBTIE, BufferIndexes);
 8003680:	68fb      	ldr	r3, [r7, #12]
 8003682:	681b      	ldr	r3, [r3, #0]
 8003684:	f8d3 10dc 	ldr.w	r1, [r3, #220]	@ 0xdc
 8003688:	68fb      	ldr	r3, [r7, #12]
 800368a:	681b      	ldr	r3, [r3, #0]
 800368c:	687a      	ldr	r2, [r7, #4]
 800368e:	430a      	orrs	r2, r1
 8003690:	f8c3 20dc 	str.w	r2, [r3, #220]	@ 0xdc
    }

    if ((ActiveITs & FDCAN_IT_TX_ABORT_COMPLETE) != 0U)
 8003694:	68bb      	ldr	r3, [r7, #8]
 8003696:	f403 7380 	and.w	r3, r3, #256	@ 0x100
 800369a:	2b00      	cmp	r3, #0
 800369c:	d009      	beq.n	80036b2 <HAL_FDCAN_ActivateNotification+0x19e>
    {
      /* Enable Tx Buffer Cancellation Finished Interrupt to set TCF flag in IR register,
         but interrupt will only occur if TCF is enabled in IE register */
      SET_BIT(hfdcan->Instance->TXBCIE, BufferIndexes);
 800369e:	68fb      	ldr	r3, [r7, #12]
 80036a0:	681b      	ldr	r3, [r3, #0]
 80036a2:	f8d3 10e0 	ldr.w	r1, [r3, #224]	@ 0xe0
 80036a6:	68fb      	ldr	r3, [r7, #12]
 80036a8:	681b      	ldr	r3, [r3, #0]
 80036aa:	687a      	ldr	r2, [r7, #4]
 80036ac:	430a      	orrs	r2, r1
 80036ae:	f8c3 20e0 	str.w	r2, [r3, #224]	@ 0xe0
    }

    /* Enable the selected interrupts */
    __HAL_FDCAN_ENABLE_IT(hfdcan, ActiveITs);
 80036b2:	68fb      	ldr	r3, [r7, #12]
 80036b4:	681b      	ldr	r3, [r3, #0]
 80036b6:	6d59      	ldr	r1, [r3, #84]	@ 0x54
 80036b8:	68fb      	ldr	r3, [r7, #12]
 80036ba:	681b      	ldr	r3, [r3, #0]
 80036bc:	68ba      	ldr	r2, [r7, #8]
 80036be:	430a      	orrs	r2, r1
 80036c0:	655a      	str	r2, [r3, #84]	@ 0x54

    /* Return function status */
    return HAL_OK;
 80036c2:	2300      	movs	r3, #0
 80036c4:	e006      	b.n	80036d4 <HAL_FDCAN_ActivateNotification+0x1c0>
  }
  else
  {
    /* Update error code */
    hfdcan->ErrorCode |= HAL_FDCAN_ERROR_NOT_INITIALIZED;
 80036c6:	68fb      	ldr	r3, [r7, #12]
 80036c8:	6e1b      	ldr	r3, [r3, #96]	@ 0x60
 80036ca:	f043 0202 	orr.w	r2, r3, #2
 80036ce:	68fb      	ldr	r3, [r7, #12]
 80036d0:	661a      	str	r2, [r3, #96]	@ 0x60

    return HAL_ERROR;
 80036d2:	2301      	movs	r3, #1
  }
}
 80036d4:	4618      	mov	r0, r3
 80036d6:	371c      	adds	r7, #28
 80036d8:	46bd      	mov	sp, r7
 80036da:	f85d 7b04 	ldr.w	r7, [sp], #4
 80036de:	4770      	bx	lr

080036e0 <HAL_FDCAN_IRQHandler>:
  * @param  hfdcan pointer to an FDCAN_HandleTypeDef structure that contains
  *         the configuration information for the specified FDCAN.
  * @retval HAL status
  */
void HAL_FDCAN_IRQHandler(FDCAN_HandleTypeDef *hfdcan)
{
 80036e0:	b580      	push	{r7, lr}
 80036e2:	b08c      	sub	sp, #48	@ 0x30
 80036e4:	af00      	add	r7, sp, #0
 80036e6:	6078      	str	r0, [r7, #4]
  uint32_t TransmittedBuffers;
  uint32_t AbortedBuffers;
  uint32_t itsource;
  uint32_t itflag;

  TxEventFifoITs = hfdcan->Instance->IR & FDCAN_TX_EVENT_FIFO_MASK;
 80036e8:	687b      	ldr	r3, [r7, #4]
 80036ea:	681b      	ldr	r3, [r3, #0]
 80036ec:	6d1b      	ldr	r3, [r3, #80]	@ 0x50
 80036ee:	f403 53e0 	and.w	r3, r3, #7168	@ 0x1c00
 80036f2:	62fb      	str	r3, [r7, #44]	@ 0x2c
  TxEventFifoITs &= hfdcan->Instance->IE;
 80036f4:	687b      	ldr	r3, [r7, #4]
 80036f6:	681b      	ldr	r3, [r3, #0]
 80036f8:	6d5b      	ldr	r3, [r3, #84]	@ 0x54
 80036fa:	6afa      	ldr	r2, [r7, #44]	@ 0x2c
 80036fc:	4013      	ands	r3, r2
 80036fe:	62fb      	str	r3, [r7, #44]	@ 0x2c
  RxFifo0ITs = hfdcan->Instance->IR & FDCAN_RX_FIFO0_MASK;
 8003700:	687b      	ldr	r3, [r7, #4]
 8003702:	681b      	ldr	r3, [r3, #0]
 8003704:	6d1b      	ldr	r3, [r3, #80]	@ 0x50
 8003706:	f003 0307 	and.w	r3, r3, #7
 800370a:	62bb      	str	r3, [r7, #40]	@ 0x28
  RxFifo0ITs &= hfdcan->Instance->IE;
 800370c:	687b      	ldr	r3, [r7, #4]
 800370e:	681b      	ldr	r3, [r3, #0]
 8003710:	6d5b      	ldr	r3, [r3, #84]	@ 0x54
 8003712:	6aba      	ldr	r2, [r7, #40]	@ 0x28
 8003714:	4013      	ands	r3, r2
 8003716:	62bb      	str	r3, [r7, #40]	@ 0x28
  RxFifo1ITs = hfdcan->Instance->IR & FDCAN_RX_FIFO1_MASK;
 8003718:	687b      	ldr	r3, [r7, #4]
 800371a:	681b      	ldr	r3, [r3, #0]
 800371c:	6d1b      	ldr	r3, [r3, #80]	@ 0x50
 800371e:	f003 0338 	and.w	r3, r3, #56	@ 0x38
 8003722:	627b      	str	r3, [r7, #36]	@ 0x24
  RxFifo1ITs &= hfdcan->Instance->IE;
 8003724:	687b      	ldr	r3, [r7, #4]
 8003726:	681b      	ldr	r3, [r3, #0]
 8003728:	6d5b      	ldr	r3, [r3, #84]	@ 0x54
 800372a:	6a7a      	ldr	r2, [r7, #36]	@ 0x24
 800372c:	4013      	ands	r3, r2
 800372e:	627b      	str	r3, [r7, #36]	@ 0x24
  Errors = hfdcan->Instance->IR & FDCAN_ERROR_MASK;
 8003730:	687b      	ldr	r3, [r7, #4]
 8003732:	681b      	ldr	r3, [r3, #0]
 8003734:	6d1b      	ldr	r3, [r3, #80]	@ 0x50
 8003736:	f403 0371 	and.w	r3, r3, #15794176	@ 0xf10000
 800373a:	623b      	str	r3, [r7, #32]
  Errors &= hfdcan->Instance->IE;
 800373c:	687b      	ldr	r3, [r7, #4]
 800373e:	681b      	ldr	r3, [r3, #0]
 8003740:	6d5b      	ldr	r3, [r3, #84]	@ 0x54
 8003742:	6a3a      	ldr	r2, [r7, #32]
 8003744:	4013      	ands	r3, r2
 8003746:	623b      	str	r3, [r7, #32]
  ErrorStatusITs = hfdcan->Instance->IR & FDCAN_ERROR_STATUS_MASK;
 8003748:	687b      	ldr	r3, [r7, #4]
 800374a:	681b      	ldr	r3, [r3, #0]
 800374c:	6d1b      	ldr	r3, [r3, #80]	@ 0x50
 800374e:	f403 2360 	and.w	r3, r3, #917504	@ 0xe0000
 8003752:	61fb      	str	r3, [r7, #28]
  ErrorStatusITs &= hfdcan->Instance->IE;
 8003754:	687b      	ldr	r3, [r7, #4]
 8003756:	681b      	ldr	r3, [r3, #0]
 8003758:	6d5b      	ldr	r3, [r3, #84]	@ 0x54
 800375a:	69fa      	ldr	r2, [r7, #28]
 800375c:	4013      	ands	r3, r2
 800375e:	61fb      	str	r3, [r7, #28]
  itsource = hfdcan->Instance->IE;
 8003760:	687b      	ldr	r3, [r7, #4]
 8003762:	681b      	ldr	r3, [r3, #0]
 8003764:	6d5b      	ldr	r3, [r3, #84]	@ 0x54
 8003766:	61bb      	str	r3, [r7, #24]
  itflag = hfdcan->Instance->IR;
 8003768:	687b      	ldr	r3, [r7, #4]
 800376a:	681b      	ldr	r3, [r3, #0]
 800376c:	6d1b      	ldr	r3, [r3, #80]	@ 0x50
 800376e:	617b      	str	r3, [r7, #20]

  /* High Priority Message interrupt management *******************************/
  if (FDCAN_CHECK_FLAG(itflag, FDCAN_FLAG_RX_HIGH_PRIORITY_MSG) != RESET)
 8003770:	697b      	ldr	r3, [r7, #20]
 8003772:	099b      	lsrs	r3, r3, #6
 8003774:	f003 0301 	and.w	r3, r3, #1
 8003778:	2b00      	cmp	r3, #0
 800377a:	d00c      	beq.n	8003796 <HAL_FDCAN_IRQHandler+0xb6>
  {
    if (FDCAN_CHECK_IT_SOURCE(itsource, FDCAN_IT_RX_HIGH_PRIORITY_MSG) != RESET)
 800377c:	69bb      	ldr	r3, [r7, #24]
 800377e:	099b      	lsrs	r3, r3, #6
 8003780:	f003 0301 	and.w	r3, r3, #1
 8003784:	2b00      	cmp	r3, #0
 8003786:	d006      	beq.n	8003796 <HAL_FDCAN_IRQHandler+0xb6>
    {
      /* Clear the High Priority Message flag */
      __HAL_FDCAN_CLEAR_FLAG(hfdcan, FDCAN_FLAG_RX_HIGH_PRIORITY_MSG);
 8003788:	687b      	ldr	r3, [r7, #4]
 800378a:	681b      	ldr	r3, [r3, #0]
 800378c:	2240      	movs	r2, #64	@ 0x40
 800378e:	651a      	str	r2, [r3, #80]	@ 0x50
#if USE_HAL_FDCAN_REGISTER_CALLBACKS == 1
      /* Call registered callback*/
      hfdcan->HighPriorityMessageCallback(hfdcan);
#else
      /* High Priority Message Callback */
      HAL_FDCAN_HighPriorityMessageCallback(hfdcan);
 8003790:	6878      	ldr	r0, [r7, #4]
 8003792:	f000 f922 	bl	80039da <HAL_FDCAN_HighPriorityMessageCallback>
#endif /* USE_HAL_FDCAN_REGISTER_CALLBACKS */
    }
  }

  /* Transmission Abort interrupt management **********************************/
  if (FDCAN_CHECK_FLAG(itflag, FDCAN_FLAG_TX_ABORT_COMPLETE) != RESET)
 8003796:	697b      	ldr	r3, [r7, #20]
 8003798:	0a1b      	lsrs	r3, r3, #8
 800379a:	f003 0301 	and.w	r3, r3, #1
 800379e:	2b00      	cmp	r3, #0
 80037a0:	d01a      	beq.n	80037d8 <HAL_FDCAN_IRQHandler+0xf8>
  {
    if (FDCAN_CHECK_IT_SOURCE(itsource, FDCAN_IT_TX_ABORT_COMPLETE) != RESET)
 80037a2:	69bb      	ldr	r3, [r7, #24]
 80037a4:	0a1b      	lsrs	r3, r3, #8
 80037a6:	f003 0301 	and.w	r3, r3, #1
 80037aa:	2b00      	cmp	r3, #0
 80037ac:	d014      	beq.n	80037d8 <HAL_FDCAN_IRQHandler+0xf8>
    {
      /* List of aborted monitored buffers */
      AbortedBuffers = hfdcan->Instance->TXBCF;
 80037ae:	687b      	ldr	r3, [r7, #4]
 80037b0:	681b      	ldr	r3, [r3, #0]
 80037b2:	f8d3 30d8 	ldr.w	r3, [r3, #216]	@ 0xd8
 80037b6:	613b      	str	r3, [r7, #16]
      AbortedBuffers &= hfdcan->Instance->TXBCIE;
 80037b8:	687b      	ldr	r3, [r7, #4]
 80037ba:	681b      	ldr	r3, [r3, #0]
 80037bc:	f8d3 30e0 	ldr.w	r3, [r3, #224]	@ 0xe0
 80037c0:	693a      	ldr	r2, [r7, #16]
 80037c2:	4013      	ands	r3, r2
 80037c4:	613b      	str	r3, [r7, #16]

      /* Clear the Transmission Cancellation flag */
      __HAL_FDCAN_CLEAR_FLAG(hfdcan, FDCAN_FLAG_TX_ABORT_COMPLETE);
 80037c6:	687b      	ldr	r3, [r7, #4]
 80037c8:	681b      	ldr	r3, [r3, #0]
 80037ca:	f44f 7280 	mov.w	r2, #256	@ 0x100
 80037ce:	651a      	str	r2, [r3, #80]	@ 0x50
#if USE_HAL_FDCAN_REGISTER_CALLBACKS == 1
      /* Call registered callback*/
      hfdcan->TxBufferAbortCallback(hfdcan, AbortedBuffers);
#else
      /* Transmission Cancellation Callback */
      HAL_FDCAN_TxBufferAbortCallback(hfdcan, AbortedBuffers);
 80037d0:	6939      	ldr	r1, [r7, #16]
 80037d2:	6878      	ldr	r0, [r7, #4]
 80037d4:	f000 f8e2 	bl	800399c <HAL_FDCAN_TxBufferAbortCallback>
#endif /* USE_HAL_FDCAN_REGISTER_CALLBACKS */
    }
  }

  /* Tx event FIFO interrupts management **************************************/
  if (TxEventFifoITs != 0U)
 80037d8:	6afb      	ldr	r3, [r7, #44]	@ 0x2c
 80037da:	2b00      	cmp	r3, #0
 80037dc:	d007      	beq.n	80037ee <HAL_FDCAN_IRQHandler+0x10e>
  {
    /* Clear the Tx Event FIFO flags */
    __HAL_FDCAN_CLEAR_FLAG(hfdcan, TxEventFifoITs);
 80037de:	687b      	ldr	r3, [r7, #4]
 80037e0:	681b      	ldr	r3, [r3, #0]
 80037e2:	6afa      	ldr	r2, [r7, #44]	@ 0x2c
 80037e4:	651a      	str	r2, [r3, #80]	@ 0x50
#if USE_HAL_FDCAN_REGISTER_CALLBACKS == 1
    /* Call registered callback*/
    hfdcan->TxEventFifoCallback(hfdcan, TxEventFifoITs);
#else
    /* Tx Event FIFO Callback */
    HAL_FDCAN_TxEventFifoCallback(hfdcan, TxEventFifoITs);
 80037e6:	6af9      	ldr	r1, [r7, #44]	@ 0x2c
 80037e8:	6878      	ldr	r0, [r7, #4]
 80037ea:	f000 f8ac 	bl	8003946 <HAL_FDCAN_TxEventFifoCallback>
#endif /* USE_HAL_FDCAN_REGISTER_CALLBACKS */
  }

  /* Rx FIFO 0 interrupts management ******************************************/
  if (RxFifo0ITs != 0U)
 80037ee:	6abb      	ldr	r3, [r7, #40]	@ 0x28
 80037f0:	2b00      	cmp	r3, #0
 80037f2:	d007      	beq.n	8003804 <HAL_FDCAN_IRQHandler+0x124>
  {
    /* Clear the Rx FIFO 0 flags */
    __HAL_FDCAN_CLEAR_FLAG(hfdcan, RxFifo0ITs);
 80037f4:	687b      	ldr	r3, [r7, #4]
 80037f6:	681b      	ldr	r3, [r3, #0]
 80037f8:	6aba      	ldr	r2, [r7, #40]	@ 0x28
 80037fa:	651a      	str	r2, [r3, #80]	@ 0x50
#if USE_HAL_FDCAN_REGISTER_CALLBACKS == 1
    /* Call registered callback*/
    hfdcan->RxFifo0Callback(hfdcan, RxFifo0ITs);
#else
    /* Rx FIFO 0 Callback */
    HAL_FDCAN_RxFifo0Callback(hfdcan, RxFifo0ITs);
 80037fc:	6ab9      	ldr	r1, [r7, #40]	@ 0x28
 80037fe:	6878      	ldr	r0, [r7, #4]
 8003800:	f7fc fea0 	bl	8000544 <HAL_FDCAN_RxFifo0Callback>
#endif /* USE_HAL_FDCAN_REGISTER_CALLBACKS */
  }

  /* Rx FIFO 1 interrupts management ******************************************/
  if (RxFifo1ITs != 0U)
 8003804:	6a7b      	ldr	r3, [r7, #36]	@ 0x24
 8003806:	2b00      	cmp	r3, #0
 8003808:	d007      	beq.n	800381a <HAL_FDCAN_IRQHandler+0x13a>
  {
    /* Clear the Rx FIFO 1 flags */
    __HAL_FDCAN_CLEAR_FLAG(hfdcan, RxFifo1ITs);
 800380a:	687b      	ldr	r3, [r7, #4]
 800380c:	681b      	ldr	r3, [r3, #0]
 800380e:	6a7a      	ldr	r2, [r7, #36]	@ 0x24
 8003810:	651a      	str	r2, [r3, #80]	@ 0x50
#if USE_HAL_FDCAN_REGISTER_CALLBACKS == 1
    /* Call registered callback*/
    hfdcan->RxFifo1Callback(hfdcan, RxFifo1ITs);
#else
    /* Rx FIFO 1 Callback */
    HAL_FDCAN_RxFifo1Callback(hfdcan, RxFifo1ITs);
 8003812:	6a79      	ldr	r1, [r7, #36]	@ 0x24
 8003814:	6878      	ldr	r0, [r7, #4]
 8003816:	f000 f8a1 	bl	800395c <HAL_FDCAN_RxFifo1Callback>
#endif /* USE_HAL_FDCAN_REGISTER_CALLBACKS */
  }

  /* Tx FIFO empty interrupt management ***************************************/
  if (FDCAN_CHECK_FLAG(itflag, FDCAN_FLAG_TX_FIFO_EMPTY) != RESET)
 800381a:	697b      	ldr	r3, [r7, #20]
 800381c:	0a5b      	lsrs	r3, r3, #9
 800381e:	f003 0301 	and.w	r3, r3, #1
 8003822:	2b00      	cmp	r3, #0
 8003824:	d00d      	beq.n	8003842 <HAL_FDCAN_IRQHandler+0x162>
  {
    if (FDCAN_CHECK_IT_SOURCE(itsource, FDCAN_IT_TX_FIFO_EMPTY) != RESET)
 8003826:	69bb      	ldr	r3, [r7, #24]
 8003828:	0a5b      	lsrs	r3, r3, #9
 800382a:	f003 0301 	and.w	r3, r3, #1
 800382e:	2b00      	cmp	r3, #0
 8003830:	d007      	beq.n	8003842 <HAL_FDCAN_IRQHandler+0x162>
    {
      /* Clear the Tx FIFO empty flag */
      __HAL_FDCAN_CLEAR_FLAG(hfdcan, FDCAN_FLAG_TX_FIFO_EMPTY);
 8003832:	687b      	ldr	r3, [r7, #4]
 8003834:	681b      	ldr	r3, [r3, #0]
 8003836:	f44f 7200 	mov.w	r2, #512	@ 0x200
 800383a:	651a      	str	r2, [r3, #80]	@ 0x50
#if USE_HAL_FDCAN_REGISTER_CALLBACKS == 1
      /* Call registered callback*/
      hfdcan->TxFifoEmptyCallback(hfdcan);
#else
      /* Tx FIFO empty Callback */
      HAL_FDCAN_TxFifoEmptyCallback(hfdcan);
 800383c:	6878      	ldr	r0, [r7, #4]
 800383e:	f000 f898 	bl	8003972 <HAL_FDCAN_TxFifoEmptyCallback>
#endif /* USE_HAL_FDCAN_REGISTER_CALLBACKS */
    }
  }

  /* Transmission Complete interrupt management *******************************/
  if (FDCAN_CHECK_FLAG(itflag, FDCAN_FLAG_TX_COMPLETE) != RESET)
 8003842:	697b      	ldr	r3, [r7, #20]
 8003844:	09db      	lsrs	r3, r3, #7
 8003846:	f003 0301 	and.w	r3, r3, #1
 800384a:	2b00      	cmp	r3, #0
 800384c:	d019      	beq.n	8003882 <HAL_FDCAN_IRQHandler+0x1a2>
  {
    if (FDCAN_CHECK_IT_SOURCE(itsource, FDCAN_IT_TX_COMPLETE) != RESET)
 800384e:	69bb      	ldr	r3, [r7, #24]
 8003850:	09db      	lsrs	r3, r3, #7
 8003852:	f003 0301 	and.w	r3, r3, #1
 8003856:	2b00      	cmp	r3, #0
 8003858:	d013      	beq.n	8003882 <HAL_FDCAN_IRQHandler+0x1a2>
    {
      /* List of transmitted monitored buffers */
      TransmittedBuffers = hfdcan->Instance->TXBTO;
 800385a:	687b      	ldr	r3, [r7, #4]
 800385c:	681b      	ldr	r3, [r3, #0]
 800385e:	f8d3 30d4 	ldr.w	r3, [r3, #212]	@ 0xd4
 8003862:	60fb      	str	r3, [r7, #12]
      TransmittedBuffers &= hfdcan->Instance->TXBTIE;
 8003864:	687b      	ldr	r3, [r7, #4]
 8003866:	681b      	ldr	r3, [r3, #0]
 8003868:	f8d3 30dc 	ldr.w	r3, [r3, #220]	@ 0xdc
 800386c:	68fa      	ldr	r2, [r7, #12]
 800386e:	4013      	ands	r3, r2
 8003870:	60fb      	str	r3, [r7, #12]

      /* Clear the Transmission Complete flag */
      __HAL_FDCAN_CLEAR_FLAG(hfdcan, FDCAN_FLAG_TX_COMPLETE);
 8003872:	687b      	ldr	r3, [r7, #4]
 8003874:	681b      	ldr	r3, [r3, #0]
 8003876:	2280      	movs	r2, #128	@ 0x80
 8003878:	651a      	str	r2, [r3, #80]	@ 0x50
#if USE_HAL_FDCAN_REGISTER_CALLBACKS == 1
      /* Call registered callback*/
      hfdcan->TxBufferCompleteCallback(hfdcan, TransmittedBuffers);
#else
      /* Transmission Complete Callback */
      HAL_FDCAN_TxBufferCompleteCallback(hfdcan, TransmittedBuffers);
 800387a:	68f9      	ldr	r1, [r7, #12]
 800387c:	6878      	ldr	r0, [r7, #4]
 800387e:	f000 f882 	bl	8003986 <HAL_FDCAN_TxBufferCompleteCallback>
#endif /* USE_HAL_FDCAN_REGISTER_CALLBACKS */
    }
  }

  /* Timestamp Wraparound interrupt management ********************************/
  if (FDCAN_CHECK_FLAG(itflag, FDCAN_FLAG_TIMESTAMP_WRAPAROUND) != RESET)
 8003882:	697b      	ldr	r3, [r7, #20]
 8003884:	0b5b      	lsrs	r3, r3, #13
 8003886:	f003 0301 	and.w	r3, r3, #1
 800388a:	2b00      	cmp	r3, #0
 800388c:	d00d      	beq.n	80038aa <HAL_FDCAN_IRQHandler+0x1ca>
  {
    if (FDCAN_CHECK_IT_SOURCE(itsource, FDCAN_IT_TIMESTAMP_WRAPAROUND) != RESET)
 800388e:	69bb      	ldr	r3, [r7, #24]
 8003890:	0b5b      	lsrs	r3, r3, #13
 8003892:	f003 0301 	and.w	r3, r3, #1
 8003896:	2b00      	cmp	r3, #0
 8003898:	d007      	beq.n	80038aa <HAL_FDCAN_IRQHandler+0x1ca>
    {
      /* Clear the Timestamp Wraparound flag */
      __HAL_FDCAN_CLEAR_FLAG(hfdcan, FDCAN_FLAG_TIMESTAMP_WRAPAROUND);
 800389a:	687b      	ldr	r3, [r7, #4]
 800389c:	681b      	ldr	r3, [r3, #0]
 800389e:	f44f 5200 	mov.w	r2, #8192	@ 0x2000
 80038a2:	651a      	str	r2, [r3, #80]	@ 0x50
#if USE_HAL_FDCAN_REGISTER_CALLBACKS == 1
      /* Call registered callback*/
      hfdcan->TimestampWraparoundCallback(hfdcan);
#else
      /* Timestamp Wraparound Callback */
      HAL_FDCAN_TimestampWraparoundCallback(hfdcan);
 80038a4:	6878      	ldr	r0, [r7, #4]
 80038a6:	f000 f884 	bl	80039b2 <HAL_FDCAN_TimestampWraparoundCallback>
#endif /* USE_HAL_FDCAN_REGISTER_CALLBACKS */
    }
  }

  /* Timeout Occurred interrupt management ************************************/
  if (FDCAN_CHECK_FLAG(itflag, FDCAN_FLAG_TIMEOUT_OCCURRED) != RESET)
 80038aa:	697b      	ldr	r3, [r7, #20]
 80038ac:	0bdb      	lsrs	r3, r3, #15
 80038ae:	f003 0301 	and.w	r3, r3, #1
 80038b2:	2b00      	cmp	r3, #0
 80038b4:	d00d      	beq.n	80038d2 <HAL_FDCAN_IRQHandler+0x1f2>
  {
    if (FDCAN_CHECK_IT_SOURCE(itsource, FDCAN_IT_TIMEOUT_OCCURRED) != RESET)
 80038b6:	69bb      	ldr	r3, [r7, #24]
 80038b8:	0bdb      	lsrs	r3, r3, #15
 80038ba:	f003 0301 	and.w	r3, r3, #1
 80038be:	2b00      	cmp	r3, #0
 80038c0:	d007      	beq.n	80038d2 <HAL_FDCAN_IRQHandler+0x1f2>
    {
      /* Clear the Timeout Occurred flag */
      __HAL_FDCAN_CLEAR_FLAG(hfdcan, FDCAN_FLAG_TIMEOUT_OCCURRED);
 80038c2:	687b      	ldr	r3, [r7, #4]
 80038c4:	681b      	ldr	r3, [r3, #0]
 80038c6:	f44f 4200 	mov.w	r2, #32768	@ 0x8000
 80038ca:	651a      	str	r2, [r3, #80]	@ 0x50
#if USE_HAL_FDCAN_REGISTER_CALLBACKS == 1
      /* Call registered callback*/
      hfdcan->TimeoutOccurredCallback(hfdcan);
#else
      /* Timeout Occurred Callback */
      HAL_FDCAN_TimeoutOccurredCallback(hfdcan);
 80038cc:	6878      	ldr	r0, [r7, #4]
 80038ce:	f000 f87a 	bl	80039c6 <HAL_FDCAN_TimeoutOccurredCallback>
#endif /* USE_HAL_FDCAN_REGISTER_CALLBACKS */
    }
  }

  /* Message RAM access failure interrupt management **************************/
  if (FDCAN_CHECK_FLAG(itflag, FDCAN_FLAG_RAM_ACCESS_FAILURE) != RESET)
 80038d2:	697b      	ldr	r3, [r7, #20]
 80038d4:	0b9b      	lsrs	r3, r3, #14
 80038d6:	f003 0301 	and.w	r3, r3, #1
 80038da:	2b00      	cmp	r3, #0
 80038dc:	d010      	beq.n	8003900 <HAL_FDCAN_IRQHandler+0x220>
  {
    if (FDCAN_CHECK_IT_SOURCE(itsource, FDCAN_IT_RAM_ACCESS_FAILURE) != RESET)
 80038de:	69bb      	ldr	r3, [r7, #24]
 80038e0:	0b9b      	lsrs	r3, r3, #14
 80038e2:	f003 0301 	and.w	r3, r3, #1
 80038e6:	2b00      	cmp	r3, #0
 80038e8:	d00a      	beq.n	8003900 <HAL_FDCAN_IRQHandler+0x220>
    {
      /* Clear the Message RAM access failure flag */
      __HAL_FDCAN_CLEAR_FLAG(hfdcan, FDCAN_FLAG_RAM_ACCESS_FAILURE);
 80038ea:	687b      	ldr	r3, [r7, #4]
 80038ec:	681b      	ldr	r3, [r3, #0]
 80038ee:	f44f 4280 	mov.w	r2, #16384	@ 0x4000
 80038f2:	651a      	str	r2, [r3, #80]	@ 0x50

      /* Update error code */
      hfdcan->ErrorCode |= HAL_FDCAN_ERROR_RAM_ACCESS;
 80038f4:	687b      	ldr	r3, [r7, #4]
 80038f6:	6e1b      	ldr	r3, [r3, #96]	@ 0x60
 80038f8:	f043 0280 	orr.w	r2, r3, #128	@ 0x80
 80038fc:	687b      	ldr	r3, [r7, #4]
 80038fe:	661a      	str	r2, [r3, #96]	@ 0x60
    }
  }

  /* Error Status interrupts management ***************************************/
  if (ErrorStatusITs != 0U)
 8003900:	69fb      	ldr	r3, [r7, #28]
 8003902:	2b00      	cmp	r3, #0
 8003904:	d007      	beq.n	8003916 <HAL_FDCAN_IRQHandler+0x236>
  {
    /* Clear the Error flags */
    __HAL_FDCAN_CLEAR_FLAG(hfdcan, ErrorStatusITs);
 8003906:	687b      	ldr	r3, [r7, #4]
 8003908:	681b      	ldr	r3, [r3, #0]
 800390a:	69fa      	ldr	r2, [r7, #28]
 800390c:	651a      	str	r2, [r3, #80]	@ 0x50
#if USE_HAL_FDCAN_REGISTER_CALLBACKS == 1
    /* Call registered callback*/
    hfdcan->ErrorStatusCallback(hfdcan, ErrorStatusITs);
#else
    /* Error Status Callback */
    HAL_FDCAN_ErrorStatusCallback(hfdcan, ErrorStatusITs);
 800390e:	69f9      	ldr	r1, [r7, #28]
 8003910:	6878      	ldr	r0, [r7, #4]
 8003912:	f000 f876 	bl	8003a02 <HAL_FDCAN_ErrorStatusCallback>
#endif /* USE_HAL_FDCAN_REGISTER_CALLBACKS */
  }

  /* Error interrupts management **********************************************/
  if (Errors != 0U)
 8003916:	6a3b      	ldr	r3, [r7, #32]
 8003918:	2b00      	cmp	r3, #0
 800391a:	d009      	beq.n	8003930 <HAL_FDCAN_IRQHandler+0x250>
  {
    /* Clear the Error flags */
    __HAL_FDCAN_CLEAR_FLAG(hfdcan, Errors);
 800391c:	687b      	ldr	r3, [r7, #4]
 800391e:	681b      	ldr	r3, [r3, #0]
 8003920:	6a3a      	ldr	r2, [r7, #32]
 8003922:	651a      	str	r2, [r3, #80]	@ 0x50

    /* Update error code */
    hfdcan->ErrorCode |= Errors;
 8003924:	687b      	ldr	r3, [r7, #4]
 8003926:	6e1a      	ldr	r2, [r3, #96]	@ 0x60
 8003928:	6a3b      	ldr	r3, [r7, #32]
 800392a:	431a      	orrs	r2, r3
 800392c:	687b      	ldr	r3, [r7, #4]
 800392e:	661a      	str	r2, [r3, #96]	@ 0x60
  }

  if (hfdcan->ErrorCode != HAL_FDCAN_ERROR_NONE)
 8003930:	687b      	ldr	r3, [r7, #4]
 8003932:	6e1b      	ldr	r3, [r3, #96]	@ 0x60
 8003934:	2b00      	cmp	r3, #0
 8003936:	d002      	beq.n	800393e <HAL_FDCAN_IRQHandler+0x25e>
#if USE_HAL_FDCAN_REGISTER_CALLBACKS == 1
    /* Call registered callback*/
    hfdcan->ErrorCallback(hfdcan);
#else
    /* Error Callback */
    HAL_FDCAN_ErrorCallback(hfdcan);
 8003938:	6878      	ldr	r0, [r7, #4]
 800393a:	f000 f858 	bl	80039ee <HAL_FDCAN_ErrorCallback>
#endif /* USE_HAL_FDCAN_REGISTER_CALLBACKS */
  }
}
 800393e:	bf00      	nop
 8003940:	3730      	adds	r7, #48	@ 0x30
 8003942:	46bd      	mov	sp, r7
 8003944:	bd80      	pop	{r7, pc}

08003946 <HAL_FDCAN_TxEventFifoCallback>:
  * @param  TxEventFifoITs indicates which Tx Event FIFO interrupts are signaled.
  *         This parameter can be any combination of @arg FDCAN_Tx_Event_Fifo_Interrupts.
  * @retval None
  */
__weak void HAL_FDCAN_TxEventFifoCallback(FDCAN_HandleTypeDef *hfdcan, uint32_t TxEventFifoITs)
{
 8003946:	b480      	push	{r7}
 8003948:	b083      	sub	sp, #12
 800394a:	af00      	add	r7, sp, #0
 800394c:	6078      	str	r0, [r7, #4]
 800394e:	6039      	str	r1, [r7, #0]
  UNUSED(TxEventFifoITs);

  /* NOTE: This function Should not be modified, when the callback is needed,
            the HAL_FDCAN_TxEventFifoCallback could be implemented in the user file
   */
}
 8003950:	bf00      	nop
 8003952:	370c      	adds	r7, #12
 8003954:	46bd      	mov	sp, r7
 8003956:	f85d 7b04 	ldr.w	r7, [sp], #4
 800395a:	4770      	bx	lr

0800395c <HAL_FDCAN_RxFifo1Callback>:
  * @param  RxFifo1ITs indicates which Rx FIFO 1 interrupts are signaled.
  *         This parameter can be any combination of @arg FDCAN_Rx_Fifo1_Interrupts.
  * @retval None
  */
__weak void HAL_FDCAN_RxFifo1Callback(FDCAN_HandleTypeDef *hfdcan, uint32_t RxFifo1ITs)
{
 800395c:	b480      	push	{r7}
 800395e:	b083      	sub	sp, #12
 8003960:	af00      	add	r7, sp, #0
 8003962:	6078      	str	r0, [r7, #4]
 8003964:	6039      	str	r1, [r7, #0]
  UNUSED(RxFifo1ITs);

  /* NOTE: This function Should not be modified, when the callback is needed,
            the HAL_FDCAN_RxFifo1Callback could be implemented in the user file
   */
}
 8003966:	bf00      	nop
 8003968:	370c      	adds	r7, #12
 800396a:	46bd      	mov	sp, r7
 800396c:	f85d 7b04 	ldr.w	r7, [sp], #4
 8003970:	4770      	bx	lr

08003972 <HAL_FDCAN_TxFifoEmptyCallback>:
  * @param  hfdcan pointer to an FDCAN_HandleTypeDef structure that contains
  *         the configuration information for the specified FDCAN.
  * @retval None
  */
__weak void HAL_FDCAN_TxFifoEmptyCallback(FDCAN_HandleTypeDef *hfdcan)
{
 8003972:	b480      	push	{r7}
 8003974:	b083      	sub	sp, #12
 8003976:	af00      	add	r7, sp, #0
 8003978:	6078      	str	r0, [r7, #4]
  UNUSED(hfdcan);

  /* NOTE: This function Should not be modified, when the callback is needed,
            the HAL_FDCAN_TxFifoEmptyCallback could be implemented in the user file
   */
}
 800397a:	bf00      	nop
 800397c:	370c      	adds	r7, #12
 800397e:	46bd      	mov	sp, r7
 8003980:	f85d 7b04 	ldr.w	r7, [sp], #4
 8003984:	4770      	bx	lr

08003986 <HAL_FDCAN_TxBufferCompleteCallback>:
  * @param  BufferIndexes Indexes of the transmitted buffers.
  *         This parameter can be any combination of @arg FDCAN_Tx_location.
  * @retval None
  */
__weak void HAL_FDCAN_TxBufferCompleteCallback(FDCAN_HandleTypeDef *hfdcan, uint32_t BufferIndexes)
{
 8003986:	b480      	push	{r7}
 8003988:	b083      	sub	sp, #12
 800398a:	af00      	add	r7, sp, #0
 800398c:	6078      	str	r0, [r7, #4]
 800398e:	6039      	str	r1, [r7, #0]
  UNUSED(BufferIndexes);

  /* NOTE: This function Should not be modified, when the callback is needed,
            the HAL_FDCAN_TxBufferCompleteCallback could be implemented in the user file
   */
}
 8003990:	bf00      	nop
 8003992:	370c      	adds	r7, #12
 8003994:	46bd      	mov	sp, r7
 8003996:	f85d 7b04 	ldr.w	r7, [sp], #4
 800399a:	4770      	bx	lr

0800399c <HAL_FDCAN_TxBufferAbortCallback>:
  * @param  BufferIndexes Indexes of the aborted buffers.
  *         This parameter can be any combination of @arg FDCAN_Tx_location.
  * @retval None
  */
__weak void HAL_FDCAN_TxBufferAbortCallback(FDCAN_HandleTypeDef *hfdcan, uint32_t BufferIndexes)
{
 800399c:	b480      	push	{r7}
 800399e:	b083      	sub	sp, #12
 80039a0:	af00      	add	r7, sp, #0
 80039a2:	6078      	str	r0, [r7, #4]
 80039a4:	6039      	str	r1, [r7, #0]
  UNUSED(BufferIndexes);

  /* NOTE: This function Should not be modified, when the callback is needed,
            the HAL_FDCAN_TxBufferAbortCallback could be implemented in the user file
   */
}
 80039a6:	bf00      	nop
 80039a8:	370c      	adds	r7, #12
 80039aa:	46bd      	mov	sp, r7
 80039ac:	f85d 7b04 	ldr.w	r7, [sp], #4
 80039b0:	4770      	bx	lr

080039b2 <HAL_FDCAN_TimestampWraparoundCallback>:
  * @param  hfdcan pointer to an FDCAN_HandleTypeDef structure that contains
  *         the configuration information for the specified FDCAN.
  * @retval None
  */
__weak void HAL_FDCAN_TimestampWraparoundCallback(FDCAN_HandleTypeDef *hfdcan)
{
 80039b2:	b480      	push	{r7}
 80039b4:	b083      	sub	sp, #12
 80039b6:	af00      	add	r7, sp, #0
 80039b8:	6078      	str	r0, [r7, #4]
  UNUSED(hfdcan);

  /* NOTE: This function Should not be modified, when the callback is needed,
            the HAL_FDCAN_TimestampWraparoundCallback could be implemented in the user file
   */
}
 80039ba:	bf00      	nop
 80039bc:	370c      	adds	r7, #12
 80039be:	46bd      	mov	sp, r7
 80039c0:	f85d 7b04 	ldr.w	r7, [sp], #4
 80039c4:	4770      	bx	lr

080039c6 <HAL_FDCAN_TimeoutOccurredCallback>:
  * @param  hfdcan pointer to an FDCAN_HandleTypeDef structure that contains
  *         the configuration information for the specified FDCAN.
  * @retval None
  */
__weak void HAL_FDCAN_TimeoutOccurredCallback(FDCAN_HandleTypeDef *hfdcan)
{
 80039c6:	b480      	push	{r7}
 80039c8:	b083      	sub	sp, #12
 80039ca:	af00      	add	r7, sp, #0
 80039cc:	6078      	str	r0, [r7, #4]
  UNUSED(hfdcan);

  /* NOTE: This function Should not be modified, when the callback is needed,
            the HAL_FDCAN_TimeoutOccurredCallback could be implemented in the user file
   */
}
 80039ce:	bf00      	nop
 80039d0:	370c      	adds	r7, #12
 80039d2:	46bd      	mov	sp, r7
 80039d4:	f85d 7b04 	ldr.w	r7, [sp], #4
 80039d8:	4770      	bx	lr

080039da <HAL_FDCAN_HighPriorityMessageCallback>:
  * @param  hfdcan pointer to an FDCAN_HandleTypeDef structure that contains
  *         the configuration information for the specified FDCAN.
  * @retval None
  */
__weak void HAL_FDCAN_HighPriorityMessageCallback(FDCAN_HandleTypeDef *hfdcan)
{
 80039da:	b480      	push	{r7}
 80039dc:	b083      	sub	sp, #12
 80039de:	af00      	add	r7, sp, #0
 80039e0:	6078      	str	r0, [r7, #4]
  UNUSED(hfdcan);

  /* NOTE: This function Should not be modified, when the callback is needed,
            the HAL_FDCAN_HighPriorityMessageCallback could be implemented in the user file
   */
}
 80039e2:	bf00      	nop
 80039e4:	370c      	adds	r7, #12
 80039e6:	46bd      	mov	sp, r7
 80039e8:	f85d 7b04 	ldr.w	r7, [sp], #4
 80039ec:	4770      	bx	lr

080039ee <HAL_FDCAN_ErrorCallback>:
  * @param  hfdcan pointer to an FDCAN_HandleTypeDef structure that contains
  *         the configuration information for the specified FDCAN.
  * @retval None
  */
__weak void HAL_FDCAN_ErrorCallback(FDCAN_HandleTypeDef *hfdcan)
{
 80039ee:	b480      	push	{r7}
 80039f0:	b083      	sub	sp, #12
 80039f2:	af00      	add	r7, sp, #0
 80039f4:	6078      	str	r0, [r7, #4]
  UNUSED(hfdcan);

  /* NOTE: This function Should not be modified, when the callback is needed,
            the HAL_FDCAN_ErrorCallback could be implemented in the user file
   */
}
 80039f6:	bf00      	nop
 80039f8:	370c      	adds	r7, #12
 80039fa:	46bd      	mov	sp, r7
 80039fc:	f85d 7b04 	ldr.w	r7, [sp], #4
 8003a00:	4770      	bx	lr

08003a02 <HAL_FDCAN_ErrorStatusCallback>:
  * @param  ErrorStatusITs indicates which Error Status interrupts are signaled.
  *         This parameter can be any combination of @arg FDCAN_Error_Status_Interrupts.
  * @retval None
  */
__weak void HAL_FDCAN_ErrorStatusCallback(FDCAN_HandleTypeDef *hfdcan, uint32_t ErrorStatusITs)
{
 8003a02:	b480      	push	{r7}
 8003a04:	b083      	sub	sp, #12
 8003a06:	af00      	add	r7, sp, #0
 8003a08:	6078      	str	r0, [r7, #4]
 8003a0a:	6039      	str	r1, [r7, #0]
  UNUSED(ErrorStatusITs);

  /* NOTE: This function Should not be modified, when the callback is needed,
            the HAL_FDCAN_ErrorStatusCallback could be implemented in the user file
   */
}
 8003a0c:	bf00      	nop
 8003a0e:	370c      	adds	r7, #12
 8003a10:	46bd      	mov	sp, r7
 8003a12:	f85d 7b04 	ldr.w	r7, [sp], #4
 8003a16:	4770      	bx	lr

08003a18 <FDCAN_CalcultateRamBlockAddresses>:
  * @param  hfdcan pointer to an FDCAN_HandleTypeDef structure that contains
  *         the configuration information for the specified FDCAN.
  * @retval none
 */
static void FDCAN_CalcultateRamBlockAddresses(FDCAN_HandleTypeDef *hfdcan)
{
 8003a18:	b480      	push	{r7}
 8003a1a:	b085      	sub	sp, #20
 8003a1c:	af00      	add	r7, sp, #0
 8003a1e:	6078      	str	r0, [r7, #4]
  uint32_t RAMcounter;
  uint32_t SramCanInstanceBase = SRAMCAN_BASE;
 8003a20:	4b27      	ldr	r3, [pc, #156]	@ (8003ac0 <FDCAN_CalcultateRamBlockAddresses+0xa8>)
 8003a22:	60bb      	str	r3, [r7, #8]
    SramCanInstanceBase += SRAMCAN_SIZE * 2U;
  }
#endif /* FDCAN3 */

  /* Standard filter list start address */
  hfdcan->msgRam.StandardFilterSA = SramCanInstanceBase + SRAMCAN_FLSSA;
 8003a24:	687b      	ldr	r3, [r7, #4]
 8003a26:	68ba      	ldr	r2, [r7, #8]
 8003a28:	641a      	str	r2, [r3, #64]	@ 0x40

  /* Standard filter elements number */
  MODIFY_REG(hfdcan->Instance->RXGFC, FDCAN_RXGFC_LSS, (hfdcan->Init.StdFiltersNbr << FDCAN_RXGFC_LSS_Pos));
 8003a2a:	687b      	ldr	r3, [r7, #4]
 8003a2c:	681b      	ldr	r3, [r3, #0]
 8003a2e:	f8d3 3080 	ldr.w	r3, [r3, #128]	@ 0x80
 8003a32:	f423 11f8 	bic.w	r1, r3, #2031616	@ 0x1f0000
 8003a36:	687b      	ldr	r3, [r7, #4]
 8003a38:	6b5b      	ldr	r3, [r3, #52]	@ 0x34
 8003a3a:	041a      	lsls	r2, r3, #16
 8003a3c:	687b      	ldr	r3, [r7, #4]
 8003a3e:	681b      	ldr	r3, [r3, #0]
 8003a40:	430a      	orrs	r2, r1
 8003a42:	f8c3 2080 	str.w	r2, [r3, #128]	@ 0x80

  /* Extended filter list start address */
  hfdcan->msgRam.ExtendedFilterSA = SramCanInstanceBase + SRAMCAN_FLESA;
 8003a46:	68bb      	ldr	r3, [r7, #8]
 8003a48:	f103 0270 	add.w	r2, r3, #112	@ 0x70
 8003a4c:	687b      	ldr	r3, [r7, #4]
 8003a4e:	645a      	str	r2, [r3, #68]	@ 0x44

  /* Extended filter elements number */
  MODIFY_REG(hfdcan->Instance->RXGFC, FDCAN_RXGFC_LSE, (hfdcan->Init.ExtFiltersNbr << FDCAN_RXGFC_LSE_Pos));
 8003a50:	687b      	ldr	r3, [r7, #4]
 8003a52:	681b      	ldr	r3, [r3, #0]
 8003a54:	f8d3 3080 	ldr.w	r3, [r3, #128]	@ 0x80
 8003a58:	f023 6170 	bic.w	r1, r3, #251658240	@ 0xf000000
 8003a5c:	687b      	ldr	r3, [r7, #4]
 8003a5e:	6b9b      	ldr	r3, [r3, #56]	@ 0x38
 8003a60:	061a      	lsls	r2, r3, #24
 8003a62:	687b      	ldr	r3, [r7, #4]
 8003a64:	681b      	ldr	r3, [r3, #0]
 8003a66:	430a      	orrs	r2, r1
 8003a68:	f8c3 2080 	str.w	r2, [r3, #128]	@ 0x80

  /* Rx FIFO 0 start address */
  hfdcan->msgRam.RxFIFO0SA = SramCanInstanceBase + SRAMCAN_RF0SA;
 8003a6c:	68bb      	ldr	r3, [r7, #8]
 8003a6e:	f103 02b0 	add.w	r2, r3, #176	@ 0xb0
 8003a72:	687b      	ldr	r3, [r7, #4]
 8003a74:	649a      	str	r2, [r3, #72]	@ 0x48

  /* Rx FIFO 1 start address */
  hfdcan->msgRam.RxFIFO1SA = SramCanInstanceBase + SRAMCAN_RF1SA;
 8003a76:	68bb      	ldr	r3, [r7, #8]
 8003a78:	f503 72c4 	add.w	r2, r3, #392	@ 0x188
 8003a7c:	687b      	ldr	r3, [r7, #4]
 8003a7e:	64da      	str	r2, [r3, #76]	@ 0x4c

  /* Tx event FIFO start address */
  hfdcan->msgRam.TxEventFIFOSA = SramCanInstanceBase + SRAMCAN_TEFSA;
 8003a80:	68bb      	ldr	r3, [r7, #8]
 8003a82:	f503 7218 	add.w	r2, r3, #608	@ 0x260
 8003a86:	687b      	ldr	r3, [r7, #4]
 8003a88:	651a      	str	r2, [r3, #80]	@ 0x50

  /* Tx FIFO/queue start address */
  hfdcan->msgRam.TxFIFOQSA = SramCanInstanceBase + SRAMCAN_TFQSA;
 8003a8a:	68bb      	ldr	r3, [r7, #8]
 8003a8c:	f503 721e 	add.w	r2, r3, #632	@ 0x278
 8003a90:	687b      	ldr	r3, [r7, #4]
 8003a92:	655a      	str	r2, [r3, #84]	@ 0x54

  /* Flush the allocated Message RAM area */
  for (RAMcounter = SramCanInstanceBase; RAMcounter < (SramCanInstanceBase + SRAMCAN_SIZE); RAMcounter += 4U)
 8003a94:	68bb      	ldr	r3, [r7, #8]
 8003a96:	60fb      	str	r3, [r7, #12]
 8003a98:	e005      	b.n	8003aa6 <FDCAN_CalcultateRamBlockAddresses+0x8e>
  {
    *(uint32_t *)(RAMcounter) = 0x00000000U;
 8003a9a:	68fb      	ldr	r3, [r7, #12]
 8003a9c:	2200      	movs	r2, #0
 8003a9e:	601a      	str	r2, [r3, #0]
  for (RAMcounter = SramCanInstanceBase; RAMcounter < (SramCanInstanceBase + SRAMCAN_SIZE); RAMcounter += 4U)
 8003aa0:	68fb      	ldr	r3, [r7, #12]
 8003aa2:	3304      	adds	r3, #4
 8003aa4:	60fb      	str	r3, [r7, #12]
 8003aa6:	68bb      	ldr	r3, [r7, #8]
 8003aa8:	f503 7354 	add.w	r3, r3, #848	@ 0x350
 8003aac:	68fa      	ldr	r2, [r7, #12]
 8003aae:	429a      	cmp	r2, r3
 8003ab0:	d3f3      	bcc.n	8003a9a <FDCAN_CalcultateRamBlockAddresses+0x82>
  }
}
 8003ab2:	bf00      	nop
 8003ab4:	bf00      	nop
 8003ab6:	3714      	adds	r7, #20
 8003ab8:	46bd      	mov	sp, r7
 8003aba:	f85d 7b04 	ldr.w	r7, [sp], #4
 8003abe:	4770      	bx	lr
 8003ac0:	4000a400 	.word	0x4000a400

08003ac4 <HAL_GPIO_Init>:
  * @param  GPIO_Init pointer to a GPIO_InitTypeDef structure that contains
  *         the configuration information for the specified GPIO peripheral.
  * @retval None
  */
void HAL_GPIO_Init(GPIO_TypeDef  *GPIOx, GPIO_InitTypeDef *GPIO_Init)
{
 8003ac4:	b480      	push	{r7}
 8003ac6:	b087      	sub	sp, #28
 8003ac8:	af00      	add	r7, sp, #0
 8003aca:	6078      	str	r0, [r7, #4]
 8003acc:	6039      	str	r1, [r7, #0]
  uint32_t position = 0x00U;
 8003ace:	2300      	movs	r3, #0
 8003ad0:	617b      	str	r3, [r7, #20]
  assert_param(IS_GPIO_ALL_INSTANCE(GPIOx));
  assert_param(IS_GPIO_PIN(GPIO_Init->Pin));
  assert_param(IS_GPIO_MODE(GPIO_Init->Mode));

  /* Configure the port pins */
  while (((GPIO_Init->Pin) >> position) != 0U)
 8003ad2:	e15a      	b.n	8003d8a <HAL_GPIO_Init+0x2c6>
  {
    /* Get current io position */
    iocurrent = (GPIO_Init->Pin) & (1UL << position);
 8003ad4:	683b      	ldr	r3, [r7, #0]
 8003ad6:	681a      	ldr	r2, [r3, #0]
 8003ad8:	2101      	movs	r1, #1
 8003ada:	697b      	ldr	r3, [r7, #20]
 8003adc:	fa01 f303 	lsl.w	r3, r1, r3
 8003ae0:	4013      	ands	r3, r2
 8003ae2:	60fb      	str	r3, [r7, #12]

    if (iocurrent != 0x00u)
 8003ae4:	68fb      	ldr	r3, [r7, #12]
 8003ae6:	2b00      	cmp	r3, #0
 8003ae8:	f000 814c 	beq.w	8003d84 <HAL_GPIO_Init+0x2c0>
    {
      /*--------------------- GPIO Mode Configuration ------------------------*/
      /* In case of Output or Alternate function mode selection */
      if(((GPIO_Init->Mode & GPIO_MODE) == MODE_OUTPUT) ||
 8003aec:	683b      	ldr	r3, [r7, #0]
 8003aee:	685b      	ldr	r3, [r3, #4]
 8003af0:	f003 0303 	and.w	r3, r3, #3
 8003af4:	2b01      	cmp	r3, #1
 8003af6:	d005      	beq.n	8003b04 <HAL_GPIO_Init+0x40>
         ((GPIO_Init->Mode & GPIO_MODE) == MODE_AF))
 8003af8:	683b      	ldr	r3, [r7, #0]
 8003afa:	685b      	ldr	r3, [r3, #4]
 8003afc:	f003 0303 	and.w	r3, r3, #3
      if(((GPIO_Init->Mode & GPIO_MODE) == MODE_OUTPUT) ||
 8003b00:	2b02      	cmp	r3, #2
 8003b02:	d130      	bne.n	8003b66 <HAL_GPIO_Init+0xa2>
      {
        /* Check the Speed parameter */
        assert_param(IS_GPIO_SPEED(GPIO_Init->Speed));
        /* Configure the IO Speed */
        temp = GPIOx->OSPEEDR;
 8003b04:	687b      	ldr	r3, [r7, #4]
 8003b06:	689b      	ldr	r3, [r3, #8]
 8003b08:	613b      	str	r3, [r7, #16]
        temp &= ~(GPIO_OSPEEDR_OSPEED0 << (position * 2U));
 8003b0a:	697b      	ldr	r3, [r7, #20]
 8003b0c:	005b      	lsls	r3, r3, #1
 8003b0e:	2203      	movs	r2, #3
 8003b10:	fa02 f303 	lsl.w	r3, r2, r3
 8003b14:	43db      	mvns	r3, r3
 8003b16:	693a      	ldr	r2, [r7, #16]
 8003b18:	4013      	ands	r3, r2
 8003b1a:	613b      	str	r3, [r7, #16]
        temp |= (GPIO_Init->Speed << (position * 2U));
 8003b1c:	683b      	ldr	r3, [r7, #0]
 8003b1e:	68da      	ldr	r2, [r3, #12]
 8003b20:	697b      	ldr	r3, [r7, #20]
 8003b22:	005b      	lsls	r3, r3, #1
 8003b24:	fa02 f303 	lsl.w	r3, r2, r3
 8003b28:	693a      	ldr	r2, [r7, #16]
 8003b2a:	4313      	orrs	r3, r2
 8003b2c:	613b      	str	r3, [r7, #16]
        GPIOx->OSPEEDR = temp;
 8003b2e:	687b      	ldr	r3, [r7, #4]
 8003b30:	693a      	ldr	r2, [r7, #16]
 8003b32:	609a      	str	r2, [r3, #8]

        /* Configure the IO Output Type */
        temp = GPIOx->OTYPER;
 8003b34:	687b      	ldr	r3, [r7, #4]
 8003b36:	685b      	ldr	r3, [r3, #4]
 8003b38:	613b      	str	r3, [r7, #16]
        temp &= ~(GPIO_OTYPER_OT0 << position) ;
 8003b3a:	2201      	movs	r2, #1
 8003b3c:	697b      	ldr	r3, [r7, #20]
 8003b3e:	fa02 f303 	lsl.w	r3, r2, r3
 8003b42:	43db      	mvns	r3, r3
 8003b44:	693a      	ldr	r2, [r7, #16]
 8003b46:	4013      	ands	r3, r2
 8003b48:	613b      	str	r3, [r7, #16]
        temp |= (((GPIO_Init->Mode & OUTPUT_TYPE) >> OUTPUT_TYPE_Pos) << position);
 8003b4a:	683b      	ldr	r3, [r7, #0]
 8003b4c:	685b      	ldr	r3, [r3, #4]
 8003b4e:	091b      	lsrs	r3, r3, #4
 8003b50:	f003 0201 	and.w	r2, r3, #1
 8003b54:	697b      	ldr	r3, [r7, #20]
 8003b56:	fa02 f303 	lsl.w	r3, r2, r3
 8003b5a:	693a      	ldr	r2, [r7, #16]
 8003b5c:	4313      	orrs	r3, r2
 8003b5e:	613b      	str	r3, [r7, #16]
        GPIOx->OTYPER = temp;
 8003b60:	687b      	ldr	r3, [r7, #4]
 8003b62:	693a      	ldr	r2, [r7, #16]
 8003b64:	605a      	str	r2, [r3, #4]
      }

      if ((GPIO_Init->Mode & GPIO_MODE) != MODE_ANALOG)
 8003b66:	683b      	ldr	r3, [r7, #0]
 8003b68:	685b      	ldr	r3, [r3, #4]
 8003b6a:	f003 0303 	and.w	r3, r3, #3
 8003b6e:	2b03      	cmp	r3, #3
 8003b70:	d017      	beq.n	8003ba2 <HAL_GPIO_Init+0xde>
      {
        /* Check the Pull parameter */
        assert_param(IS_GPIO_PULL(GPIO_Init->Pull));

        /* Activate the Pull-up or Pull down resistor for the current IO */
        temp = GPIOx->PUPDR;
 8003b72:	687b      	ldr	r3, [r7, #4]
 8003b74:	68db      	ldr	r3, [r3, #12]
 8003b76:	613b      	str	r3, [r7, #16]
        temp &= ~(GPIO_PUPDR_PUPD0 << (position * 2U));
 8003b78:	697b      	ldr	r3, [r7, #20]
 8003b7a:	005b      	lsls	r3, r3, #1
 8003b7c:	2203      	movs	r2, #3
 8003b7e:	fa02 f303 	lsl.w	r3, r2, r3
 8003b82:	43db      	mvns	r3, r3
 8003b84:	693a      	ldr	r2, [r7, #16]
 8003b86:	4013      	ands	r3, r2
 8003b88:	613b      	str	r3, [r7, #16]
        temp |= ((GPIO_Init->Pull) << (position * 2U));
 8003b8a:	683b      	ldr	r3, [r7, #0]
 8003b8c:	689a      	ldr	r2, [r3, #8]
 8003b8e:	697b      	ldr	r3, [r7, #20]
 8003b90:	005b      	lsls	r3, r3, #1
 8003b92:	fa02 f303 	lsl.w	r3, r2, r3
 8003b96:	693a      	ldr	r2, [r7, #16]
 8003b98:	4313      	orrs	r3, r2
 8003b9a:	613b      	str	r3, [r7, #16]
        GPIOx->PUPDR = temp;
 8003b9c:	687b      	ldr	r3, [r7, #4]
 8003b9e:	693a      	ldr	r2, [r7, #16]
 8003ba0:	60da      	str	r2, [r3, #12]
      }

      /* In case of Alternate function mode selection */
      if ((GPIO_Init->Mode & GPIO_MODE) == MODE_AF)
 8003ba2:	683b      	ldr	r3, [r7, #0]
 8003ba4:	685b      	ldr	r3, [r3, #4]
 8003ba6:	f003 0303 	and.w	r3, r3, #3
 8003baa:	2b02      	cmp	r3, #2
 8003bac:	d123      	bne.n	8003bf6 <HAL_GPIO_Init+0x132>
        /* Check the Alternate function parameters */
        assert_param(IS_GPIO_AF_INSTANCE(GPIOx));
        assert_param(IS_GPIO_AF(GPIO_Init->Alternate));

        /* Configure Alternate function mapped with the current IO */
        temp = GPIOx->AFR[position >> 3U];
 8003bae:	697b      	ldr	r3, [r7, #20]
 8003bb0:	08da      	lsrs	r2, r3, #3
 8003bb2:	687b      	ldr	r3, [r7, #4]
 8003bb4:	3208      	adds	r2, #8
 8003bb6:	f853 3022 	ldr.w	r3, [r3, r2, lsl #2]
 8003bba:	613b      	str	r3, [r7, #16]
        temp &= ~(0xFU << ((position & 0x07U) * 4U));
 8003bbc:	697b      	ldr	r3, [r7, #20]
 8003bbe:	f003 0307 	and.w	r3, r3, #7
 8003bc2:	009b      	lsls	r3, r3, #2
 8003bc4:	220f      	movs	r2, #15
 8003bc6:	fa02 f303 	lsl.w	r3, r2, r3
 8003bca:	43db      	mvns	r3, r3
 8003bcc:	693a      	ldr	r2, [r7, #16]
 8003bce:	4013      	ands	r3, r2
 8003bd0:	613b      	str	r3, [r7, #16]
        temp |= ((GPIO_Init->Alternate) << ((position & 0x07U) * 4U));
 8003bd2:	683b      	ldr	r3, [r7, #0]
 8003bd4:	691a      	ldr	r2, [r3, #16]
 8003bd6:	697b      	ldr	r3, [r7, #20]
 8003bd8:	f003 0307 	and.w	r3, r3, #7
 8003bdc:	009b      	lsls	r3, r3, #2
 8003bde:	fa02 f303 	lsl.w	r3, r2, r3
 8003be2:	693a      	ldr	r2, [r7, #16]
 8003be4:	4313      	orrs	r3, r2
 8003be6:	613b      	str	r3, [r7, #16]
        GPIOx->AFR[position >> 3U] = temp;
 8003be8:	697b      	ldr	r3, [r7, #20]
 8003bea:	08da      	lsrs	r2, r3, #3
 8003bec:	687b      	ldr	r3, [r7, #4]
 8003bee:	3208      	adds	r2, #8
 8003bf0:	6939      	ldr	r1, [r7, #16]
 8003bf2:	f843 1022 	str.w	r1, [r3, r2, lsl #2]
      }

      /* Configure IO Direction mode (Input, Output, Alternate or Analog) */
      temp = GPIOx->MODER;
 8003bf6:	687b      	ldr	r3, [r7, #4]
 8003bf8:	681b      	ldr	r3, [r3, #0]
 8003bfa:	613b      	str	r3, [r7, #16]
      temp &= ~(GPIO_MODER_MODE0 << (position * 2U));
 8003bfc:	697b      	ldr	r3, [r7, #20]
 8003bfe:	005b      	lsls	r3, r3, #1
 8003c00:	2203      	movs	r2, #3
 8003c02:	fa02 f303 	lsl.w	r3, r2, r3
 8003c06:	43db      	mvns	r3, r3
 8003c08:	693a      	ldr	r2, [r7, #16]
 8003c0a:	4013      	ands	r3, r2
 8003c0c:	613b      	str	r3, [r7, #16]
      temp |= ((GPIO_Init->Mode & GPIO_MODE) << (position * 2U));
 8003c0e:	683b      	ldr	r3, [r7, #0]
 8003c10:	685b      	ldr	r3, [r3, #4]
 8003c12:	f003 0203 	and.w	r2, r3, #3
 8003c16:	697b      	ldr	r3, [r7, #20]
 8003c18:	005b      	lsls	r3, r3, #1
 8003c1a:	fa02 f303 	lsl.w	r3, r2, r3
 8003c1e:	693a      	ldr	r2, [r7, #16]
 8003c20:	4313      	orrs	r3, r2
 8003c22:	613b      	str	r3, [r7, #16]
      GPIOx->MODER = temp;
 8003c24:	687b      	ldr	r3, [r7, #4]
 8003c26:	693a      	ldr	r2, [r7, #16]
 8003c28:	601a      	str	r2, [r3, #0]

      /*--------------------- EXTI Mode Configuration ------------------------*/
      /* Configure the External Interrupt or event for the current IO */
      if ((GPIO_Init->Mode & EXTI_MODE) != 0x00u)
 8003c2a:	683b      	ldr	r3, [r7, #0]
 8003c2c:	685b      	ldr	r3, [r3, #4]
 8003c2e:	f403 3340 	and.w	r3, r3, #196608	@ 0x30000
 8003c32:	2b00      	cmp	r3, #0
 8003c34:	f000 80a6 	beq.w	8003d84 <HAL_GPIO_Init+0x2c0>
      {
        /* Enable SYSCFG Clock */
        __HAL_RCC_SYSCFG_CLK_ENABLE();
 8003c38:	4b5b      	ldr	r3, [pc, #364]	@ (8003da8 <HAL_GPIO_Init+0x2e4>)
 8003c3a:	6e1b      	ldr	r3, [r3, #96]	@ 0x60
 8003c3c:	4a5a      	ldr	r2, [pc, #360]	@ (8003da8 <HAL_GPIO_Init+0x2e4>)
 8003c3e:	f043 0301 	orr.w	r3, r3, #1
 8003c42:	6613      	str	r3, [r2, #96]	@ 0x60
 8003c44:	4b58      	ldr	r3, [pc, #352]	@ (8003da8 <HAL_GPIO_Init+0x2e4>)
 8003c46:	6e1b      	ldr	r3, [r3, #96]	@ 0x60
 8003c48:	f003 0301 	and.w	r3, r3, #1
 8003c4c:	60bb      	str	r3, [r7, #8]
 8003c4e:	68bb      	ldr	r3, [r7, #8]

        temp = SYSCFG->EXTICR[position >> 2U];
 8003c50:	4a56      	ldr	r2, [pc, #344]	@ (8003dac <HAL_GPIO_Init+0x2e8>)
 8003c52:	697b      	ldr	r3, [r7, #20]
 8003c54:	089b      	lsrs	r3, r3, #2
 8003c56:	3302      	adds	r3, #2
 8003c58:	f852 3023 	ldr.w	r3, [r2, r3, lsl #2]
 8003c5c:	613b      	str	r3, [r7, #16]
        temp &= ~(0x0FUL << (4U * (position & 0x03U)));
 8003c5e:	697b      	ldr	r3, [r7, #20]
 8003c60:	f003 0303 	and.w	r3, r3, #3
 8003c64:	009b      	lsls	r3, r3, #2
 8003c66:	220f      	movs	r2, #15
 8003c68:	fa02 f303 	lsl.w	r3, r2, r3
 8003c6c:	43db      	mvns	r3, r3
 8003c6e:	693a      	ldr	r2, [r7, #16]
 8003c70:	4013      	ands	r3, r2
 8003c72:	613b      	str	r3, [r7, #16]
        temp |= (GPIO_GET_INDEX(GPIOx) << (4U * (position & 0x03U)));
 8003c74:	687b      	ldr	r3, [r7, #4]
 8003c76:	f1b3 4f90 	cmp.w	r3, #1207959552	@ 0x48000000
 8003c7a:	d01f      	beq.n	8003cbc <HAL_GPIO_Init+0x1f8>
 8003c7c:	687b      	ldr	r3, [r7, #4]
 8003c7e:	4a4c      	ldr	r2, [pc, #304]	@ (8003db0 <HAL_GPIO_Init+0x2ec>)
 8003c80:	4293      	cmp	r3, r2
 8003c82:	d019      	beq.n	8003cb8 <HAL_GPIO_Init+0x1f4>
 8003c84:	687b      	ldr	r3, [r7, #4]
 8003c86:	4a4b      	ldr	r2, [pc, #300]	@ (8003db4 <HAL_GPIO_Init+0x2f0>)
 8003c88:	4293      	cmp	r3, r2
 8003c8a:	d013      	beq.n	8003cb4 <HAL_GPIO_Init+0x1f0>
 8003c8c:	687b      	ldr	r3, [r7, #4]
 8003c8e:	4a4a      	ldr	r2, [pc, #296]	@ (8003db8 <HAL_GPIO_Init+0x2f4>)
 8003c90:	4293      	cmp	r3, r2
 8003c92:	d00d      	beq.n	8003cb0 <HAL_GPIO_Init+0x1ec>
 8003c94:	687b      	ldr	r3, [r7, #4]
 8003c96:	4a49      	ldr	r2, [pc, #292]	@ (8003dbc <HAL_GPIO_Init+0x2f8>)
 8003c98:	4293      	cmp	r3, r2
 8003c9a:	d007      	beq.n	8003cac <HAL_GPIO_Init+0x1e8>
 8003c9c:	687b      	ldr	r3, [r7, #4]
 8003c9e:	4a48      	ldr	r2, [pc, #288]	@ (8003dc0 <HAL_GPIO_Init+0x2fc>)
 8003ca0:	4293      	cmp	r3, r2
 8003ca2:	d101      	bne.n	8003ca8 <HAL_GPIO_Init+0x1e4>
 8003ca4:	2305      	movs	r3, #5
 8003ca6:	e00a      	b.n	8003cbe <HAL_GPIO_Init+0x1fa>
 8003ca8:	2306      	movs	r3, #6
 8003caa:	e008      	b.n	8003cbe <HAL_GPIO_Init+0x1fa>
 8003cac:	2304      	movs	r3, #4
 8003cae:	e006      	b.n	8003cbe <HAL_GPIO_Init+0x1fa>
 8003cb0:	2303      	movs	r3, #3
 8003cb2:	e004      	b.n	8003cbe <HAL_GPIO_Init+0x1fa>
 8003cb4:	2302      	movs	r3, #2
 8003cb6:	e002      	b.n	8003cbe <HAL_GPIO_Init+0x1fa>
 8003cb8:	2301      	movs	r3, #1
 8003cba:	e000      	b.n	8003cbe <HAL_GPIO_Init+0x1fa>
 8003cbc:	2300      	movs	r3, #0
 8003cbe:	697a      	ldr	r2, [r7, #20]
 8003cc0:	f002 0203 	and.w	r2, r2, #3
 8003cc4:	0092      	lsls	r2, r2, #2
 8003cc6:	4093      	lsls	r3, r2
 8003cc8:	693a      	ldr	r2, [r7, #16]
 8003cca:	4313      	orrs	r3, r2
 8003ccc:	613b      	str	r3, [r7, #16]
        SYSCFG->EXTICR[position >> 2U] = temp;
 8003cce:	4937      	ldr	r1, [pc, #220]	@ (8003dac <HAL_GPIO_Init+0x2e8>)
 8003cd0:	697b      	ldr	r3, [r7, #20]
 8003cd2:	089b      	lsrs	r3, r3, #2
 8003cd4:	3302      	adds	r3, #2
 8003cd6:	693a      	ldr	r2, [r7, #16]
 8003cd8:	f841 2023 	str.w	r2, [r1, r3, lsl #2]

        /* Clear Rising Falling edge configuration */
        temp = EXTI->RTSR1;
 8003cdc:	4b39      	ldr	r3, [pc, #228]	@ (8003dc4 <HAL_GPIO_Init+0x300>)
 8003cde:	689b      	ldr	r3, [r3, #8]
 8003ce0:	613b      	str	r3, [r7, #16]
        temp &= ~(iocurrent);
 8003ce2:	68fb      	ldr	r3, [r7, #12]
 8003ce4:	43db      	mvns	r3, r3
 8003ce6:	693a      	ldr	r2, [r7, #16]
 8003ce8:	4013      	ands	r3, r2
 8003cea:	613b      	str	r3, [r7, #16]
        if ((GPIO_Init->Mode & TRIGGER_RISING) != 0x00U)
 8003cec:	683b      	ldr	r3, [r7, #0]
 8003cee:	685b      	ldr	r3, [r3, #4]
 8003cf0:	f403 1380 	and.w	r3, r3, #1048576	@ 0x100000
 8003cf4:	2b00      	cmp	r3, #0
 8003cf6:	d003      	beq.n	8003d00 <HAL_GPIO_Init+0x23c>
        {
          temp |= iocurrent;
 8003cf8:	693a      	ldr	r2, [r7, #16]
 8003cfa:	68fb      	ldr	r3, [r7, #12]
 8003cfc:	4313      	orrs	r3, r2
 8003cfe:	613b      	str	r3, [r7, #16]
        }
        EXTI->RTSR1 = temp;
 8003d00:	4a30      	ldr	r2, [pc, #192]	@ (8003dc4 <HAL_GPIO_Init+0x300>)
 8003d02:	693b      	ldr	r3, [r7, #16]
 8003d04:	6093      	str	r3, [r2, #8]

        temp = EXTI->FTSR1;
 8003d06:	4b2f      	ldr	r3, [pc, #188]	@ (8003dc4 <HAL_GPIO_Init+0x300>)
 8003d08:	68db      	ldr	r3, [r3, #12]
 8003d0a:	613b      	str	r3, [r7, #16]
        temp &= ~(iocurrent);
 8003d0c:	68fb      	ldr	r3, [r7, #12]
 8003d0e:	43db      	mvns	r3, r3
 8003d10:	693a      	ldr	r2, [r7, #16]
 8003d12:	4013      	ands	r3, r2
 8003d14:	613b      	str	r3, [r7, #16]
        if ((GPIO_Init->Mode & TRIGGER_FALLING) != 0x00U)
 8003d16:	683b      	ldr	r3, [r7, #0]
 8003d18:	685b      	ldr	r3, [r3, #4]
 8003d1a:	f403 1300 	and.w	r3, r3, #2097152	@ 0x200000
 8003d1e:	2b00      	cmp	r3, #0
 8003d20:	d003      	beq.n	8003d2a <HAL_GPIO_Init+0x266>
        {
          temp |= iocurrent;
 8003d22:	693a      	ldr	r2, [r7, #16]
 8003d24:	68fb      	ldr	r3, [r7, #12]
 8003d26:	4313      	orrs	r3, r2
 8003d28:	613b      	str	r3, [r7, #16]
        }
        EXTI->FTSR1 = temp;
 8003d2a:	4a26      	ldr	r2, [pc, #152]	@ (8003dc4 <HAL_GPIO_Init+0x300>)
 8003d2c:	693b      	ldr	r3, [r7, #16]
 8003d2e:	60d3      	str	r3, [r2, #12]

        temp = EXTI->EMR1;
 8003d30:	4b24      	ldr	r3, [pc, #144]	@ (8003dc4 <HAL_GPIO_Init+0x300>)
 8003d32:	685b      	ldr	r3, [r3, #4]
 8003d34:	613b      	str	r3, [r7, #16]
        temp &= ~(iocurrent);
 8003d36:	68fb      	ldr	r3, [r7, #12]
 8003d38:	43db      	mvns	r3, r3
 8003d3a:	693a      	ldr	r2, [r7, #16]
 8003d3c:	4013      	ands	r3, r2
 8003d3e:	613b      	str	r3, [r7, #16]
        if ((GPIO_Init->Mode & EXTI_EVT) != 0x00U)
 8003d40:	683b      	ldr	r3, [r7, #0]
 8003d42:	685b      	ldr	r3, [r3, #4]
 8003d44:	f403 3300 	and.w	r3, r3, #131072	@ 0x20000
 8003d48:	2b00      	cmp	r3, #0
 8003d4a:	d003      	beq.n	8003d54 <HAL_GPIO_Init+0x290>
        {
          temp |= iocurrent;
 8003d4c:	693a      	ldr	r2, [r7, #16]
 8003d4e:	68fb      	ldr	r3, [r7, #12]
 8003d50:	4313      	orrs	r3, r2
 8003d52:	613b      	str	r3, [r7, #16]
        }
        EXTI->EMR1 = temp;
 8003d54:	4a1b      	ldr	r2, [pc, #108]	@ (8003dc4 <HAL_GPIO_Init+0x300>)
 8003d56:	693b      	ldr	r3, [r7, #16]
 8003d58:	6053      	str	r3, [r2, #4]

        /* Clear EXTI line configuration */
        temp = EXTI->IMR1;
 8003d5a:	4b1a      	ldr	r3, [pc, #104]	@ (8003dc4 <HAL_GPIO_Init+0x300>)
 8003d5c:	681b      	ldr	r3, [r3, #0]
 8003d5e:	613b      	str	r3, [r7, #16]
        temp &= ~(iocurrent);
 8003d60:	68fb      	ldr	r3, [r7, #12]
 8003d62:	43db      	mvns	r3, r3
 8003d64:	693a      	ldr	r2, [r7, #16]
 8003d66:	4013      	ands	r3, r2
 8003d68:	613b      	str	r3, [r7, #16]
        if ((GPIO_Init->Mode & EXTI_IT) != 0x00U)
 8003d6a:	683b      	ldr	r3, [r7, #0]
 8003d6c:	685b      	ldr	r3, [r3, #4]
 8003d6e:	f403 3380 	and.w	r3, r3, #65536	@ 0x10000
 8003d72:	2b00      	cmp	r3, #0
 8003d74:	d003      	beq.n	8003d7e <HAL_GPIO_Init+0x2ba>
        {
          temp |= iocurrent;
 8003d76:	693a      	ldr	r2, [r7, #16]
 8003d78:	68fb      	ldr	r3, [r7, #12]
 8003d7a:	4313      	orrs	r3, r2
 8003d7c:	613b      	str	r3, [r7, #16]
        }
        EXTI->IMR1 = temp;
 8003d7e:	4a11      	ldr	r2, [pc, #68]	@ (8003dc4 <HAL_GPIO_Init+0x300>)
 8003d80:	693b      	ldr	r3, [r7, #16]
 8003d82:	6013      	str	r3, [r2, #0]
      }
    }

    position++;
 8003d84:	697b      	ldr	r3, [r7, #20]
 8003d86:	3301      	adds	r3, #1
 8003d88:	617b      	str	r3, [r7, #20]
  while (((GPIO_Init->Pin) >> position) != 0U)
 8003d8a:	683b      	ldr	r3, [r7, #0]
 8003d8c:	681a      	ldr	r2, [r3, #0]
 8003d8e:	697b      	ldr	r3, [r7, #20]
 8003d90:	fa22 f303 	lsr.w	r3, r2, r3
 8003d94:	2b00      	cmp	r3, #0
 8003d96:	f47f ae9d 	bne.w	8003ad4 <HAL_GPIO_Init+0x10>
  }
}
 8003d9a:	bf00      	nop
 8003d9c:	bf00      	nop
 8003d9e:	371c      	adds	r7, #28
 8003da0:	46bd      	mov	sp, r7
 8003da2:	f85d 7b04 	ldr.w	r7, [sp], #4
 8003da6:	4770      	bx	lr
 8003da8:	40021000 	.word	0x40021000
 8003dac:	40010000 	.word	0x40010000
 8003db0:	48000400 	.word	0x48000400
 8003db4:	48000800 	.word	0x48000800
 8003db8:	48000c00 	.word	0x48000c00
 8003dbc:	48001000 	.word	0x48001000
 8003dc0:	48001400 	.word	0x48001400
 8003dc4:	40010400 	.word	0x40010400

08003dc8 <HAL_GPIO_WritePin>:
  *            @arg GPIO_PIN_RESET: to clear the port pin
  *            @arg GPIO_PIN_SET: to set the port pin
  * @retval None
  */
void HAL_GPIO_WritePin(GPIO_TypeDef *GPIOx, uint16_t GPIO_Pin, GPIO_PinState PinState)
{
 8003dc8:	b480      	push	{r7}
 8003dca:	b083      	sub	sp, #12
 8003dcc:	af00      	add	r7, sp, #0
 8003dce:	6078      	str	r0, [r7, #4]
 8003dd0:	460b      	mov	r3, r1
 8003dd2:	807b      	strh	r3, [r7, #2]
 8003dd4:	4613      	mov	r3, r2
 8003dd6:	707b      	strb	r3, [r7, #1]
  /* Check the parameters */
  assert_param(IS_GPIO_PIN(GPIO_Pin));
  assert_param(IS_GPIO_PIN_ACTION(PinState));

  if (PinState != GPIO_PIN_RESET)
 8003dd8:	787b      	ldrb	r3, [r7, #1]
 8003dda:	2b00      	cmp	r3, #0
 8003ddc:	d003      	beq.n	8003de6 <HAL_GPIO_WritePin+0x1e>
  {
    GPIOx->BSRR = (uint32_t)GPIO_Pin;
 8003dde:	887a      	ldrh	r2, [r7, #2]
 8003de0:	687b      	ldr	r3, [r7, #4]
 8003de2:	619a      	str	r2, [r3, #24]
  }
  else
  {
    GPIOx->BRR = (uint32_t)GPIO_Pin;
  }
}
 8003de4:	e002      	b.n	8003dec <HAL_GPIO_WritePin+0x24>
    GPIOx->BRR = (uint32_t)GPIO_Pin;
 8003de6:	887a      	ldrh	r2, [r7, #2]
 8003de8:	687b      	ldr	r3, [r7, #4]
 8003dea:	629a      	str	r2, [r3, #40]	@ 0x28
}
 8003dec:	bf00      	nop
 8003dee:	370c      	adds	r7, #12
 8003df0:	46bd      	mov	sp, r7
 8003df2:	f85d 7b04 	ldr.w	r7, [sp], #4
 8003df6:	4770      	bx	lr

08003df8 <HAL_GPIO_TogglePin>:
  * @param  GPIO_Pin specifies the pin to be toggled.
  *         This parameter can be any combination of GPIO_PIN_x where x can be (0..15).
  * @retval None
  */
void HAL_GPIO_TogglePin(GPIO_TypeDef *GPIOx, uint16_t GPIO_Pin)
{
 8003df8:	b480      	push	{r7}
 8003dfa:	b085      	sub	sp, #20
 8003dfc:	af00      	add	r7, sp, #0
 8003dfe:	6078      	str	r0, [r7, #4]
 8003e00:	460b      	mov	r3, r1
 8003e02:	807b      	strh	r3, [r7, #2]

  /* Check the parameters */
  assert_param(IS_GPIO_PIN(GPIO_Pin));

  /* get current Output Data Register value */
  odr = GPIOx->ODR;
 8003e04:	687b      	ldr	r3, [r7, #4]
 8003e06:	695b      	ldr	r3, [r3, #20]
 8003e08:	60fb      	str	r3, [r7, #12]

  /* Set selected pins that were at low level, and reset ones that were high */
  GPIOx->BSRR = ((odr & GPIO_Pin) << GPIO_NUMBER) | (~odr & GPIO_Pin);
 8003e0a:	887a      	ldrh	r2, [r7, #2]
 8003e0c:	68fb      	ldr	r3, [r7, #12]
 8003e0e:	4013      	ands	r3, r2
 8003e10:	041a      	lsls	r2, r3, #16
 8003e12:	68fb      	ldr	r3, [r7, #12]
 8003e14:	43d9      	mvns	r1, r3
 8003e16:	887b      	ldrh	r3, [r7, #2]
 8003e18:	400b      	ands	r3, r1
 8003e1a:	431a      	orrs	r2, r3
 8003e1c:	687b      	ldr	r3, [r7, #4]
 8003e1e:	619a      	str	r2, [r3, #24]
}
 8003e20:	bf00      	nop
 8003e22:	3714      	adds	r7, #20
 8003e24:	46bd      	mov	sp, r7
 8003e26:	f85d 7b04 	ldr.w	r7, [sp], #4
 8003e2a:	4770      	bx	lr

08003e2c <HAL_PWREx_ControlVoltageScaling>:
  *        cleared before returning the status. If the flag is not cleared within
  *        50 microseconds, HAL_TIMEOUT status is reported.
  * @retval HAL Status
  */
HAL_StatusTypeDef HAL_PWREx_ControlVoltageScaling(uint32_t VoltageScaling)
{
 8003e2c:	b480      	push	{r7}
 8003e2e:	b085      	sub	sp, #20
 8003e30:	af00      	add	r7, sp, #0
 8003e32:	6078      	str	r0, [r7, #4]
  uint32_t wait_loop_index;

  assert_param(IS_PWR_VOLTAGE_SCALING_RANGE(VoltageScaling));

  if (VoltageScaling == PWR_REGULATOR_VOLTAGE_SCALE1_BOOST)
 8003e34:	687b      	ldr	r3, [r7, #4]
 8003e36:	2b00      	cmp	r3, #0
 8003e38:	d141      	bne.n	8003ebe <HAL_PWREx_ControlVoltageScaling+0x92>
  {
    /* If current range is range 2 */
    if (READ_BIT(PWR->CR1, PWR_CR1_VOS) == PWR_REGULATOR_VOLTAGE_SCALE2)
 8003e3a:	4b4b      	ldr	r3, [pc, #300]	@ (8003f68 <HAL_PWREx_ControlVoltageScaling+0x13c>)
 8003e3c:	681b      	ldr	r3, [r3, #0]
 8003e3e:	f403 63c0 	and.w	r3, r3, #1536	@ 0x600
 8003e42:	f5b3 6f80 	cmp.w	r3, #1024	@ 0x400
 8003e46:	d131      	bne.n	8003eac <HAL_PWREx_ControlVoltageScaling+0x80>
    {
      /* Make sure Range 1 Boost is enabled */
      CLEAR_BIT(PWR->CR5, PWR_CR5_R1MODE);
 8003e48:	4b47      	ldr	r3, [pc, #284]	@ (8003f68 <HAL_PWREx_ControlVoltageScaling+0x13c>)
 8003e4a:	f8d3 3080 	ldr.w	r3, [r3, #128]	@ 0x80
 8003e4e:	4a46      	ldr	r2, [pc, #280]	@ (8003f68 <HAL_PWREx_ControlVoltageScaling+0x13c>)
 8003e50:	f423 7380 	bic.w	r3, r3, #256	@ 0x100
 8003e54:	f8c2 3080 	str.w	r3, [r2, #128]	@ 0x80

      /* Set Range 1 */
      MODIFY_REG(PWR->CR1, PWR_CR1_VOS, PWR_REGULATOR_VOLTAGE_SCALE1);
 8003e58:	4b43      	ldr	r3, [pc, #268]	@ (8003f68 <HAL_PWREx_ControlVoltageScaling+0x13c>)
 8003e5a:	681b      	ldr	r3, [r3, #0]
 8003e5c:	f423 63c0 	bic.w	r3, r3, #1536	@ 0x600
 8003e60:	4a41      	ldr	r2, [pc, #260]	@ (8003f68 <HAL_PWREx_ControlVoltageScaling+0x13c>)
 8003e62:	f443 7300 	orr.w	r3, r3, #512	@ 0x200
 8003e66:	6013      	str	r3, [r2, #0]

      /* Wait until VOSF is cleared */
      wait_loop_index = ((PWR_FLAG_SETTING_DELAY_US * SystemCoreClock) / 1000000U) + 1U;
 8003e68:	4b40      	ldr	r3, [pc, #256]	@ (8003f6c <HAL_PWREx_ControlVoltageScaling+0x140>)
 8003e6a:	681b      	ldr	r3, [r3, #0]
 8003e6c:	2232      	movs	r2, #50	@ 0x32
 8003e6e:	fb02 f303 	mul.w	r3, r2, r3
 8003e72:	4a3f      	ldr	r2, [pc, #252]	@ (8003f70 <HAL_PWREx_ControlVoltageScaling+0x144>)
 8003e74:	fba2 2303 	umull	r2, r3, r2, r3
 8003e78:	0c9b      	lsrs	r3, r3, #18
 8003e7a:	3301      	adds	r3, #1
 8003e7c:	60fb      	str	r3, [r7, #12]
      while ((HAL_IS_BIT_SET(PWR->SR2, PWR_SR2_VOSF)) && (wait_loop_index != 0U))
 8003e7e:	e002      	b.n	8003e86 <HAL_PWREx_ControlVoltageScaling+0x5a>
      {
        wait_loop_index--;
 8003e80:	68fb      	ldr	r3, [r7, #12]
 8003e82:	3b01      	subs	r3, #1
 8003e84:	60fb      	str	r3, [r7, #12]
      while ((HAL_IS_BIT_SET(PWR->SR2, PWR_SR2_VOSF)) && (wait_loop_index != 0U))
 8003e86:	4b38      	ldr	r3, [pc, #224]	@ (8003f68 <HAL_PWREx_ControlVoltageScaling+0x13c>)
 8003e88:	695b      	ldr	r3, [r3, #20]
 8003e8a:	f403 6380 	and.w	r3, r3, #1024	@ 0x400
 8003e8e:	f5b3 6f80 	cmp.w	r3, #1024	@ 0x400
 8003e92:	d102      	bne.n	8003e9a <HAL_PWREx_ControlVoltageScaling+0x6e>
 8003e94:	68fb      	ldr	r3, [r7, #12]
 8003e96:	2b00      	cmp	r3, #0
 8003e98:	d1f2      	bne.n	8003e80 <HAL_PWREx_ControlVoltageScaling+0x54>
      }
      if (HAL_IS_BIT_SET(PWR->SR2, PWR_SR2_VOSF))
 8003e9a:	4b33      	ldr	r3, [pc, #204]	@ (8003f68 <HAL_PWREx_ControlVoltageScaling+0x13c>)
 8003e9c:	695b      	ldr	r3, [r3, #20]
 8003e9e:	f403 6380 	and.w	r3, r3, #1024	@ 0x400
 8003ea2:	f5b3 6f80 	cmp.w	r3, #1024	@ 0x400
 8003ea6:	d158      	bne.n	8003f5a <HAL_PWREx_ControlVoltageScaling+0x12e>
      {
        return HAL_TIMEOUT;
 8003ea8:	2303      	movs	r3, #3
 8003eaa:	e057      	b.n	8003f5c <HAL_PWREx_ControlVoltageScaling+0x130>
    }
    /* If current range is range 1 normal or boost mode */
    else
    {
      /* Enable Range 1 Boost (no issue if bit already reset) */
      CLEAR_BIT(PWR->CR5, PWR_CR5_R1MODE);
 8003eac:	4b2e      	ldr	r3, [pc, #184]	@ (8003f68 <HAL_PWREx_ControlVoltageScaling+0x13c>)
 8003eae:	f8d3 3080 	ldr.w	r3, [r3, #128]	@ 0x80
 8003eb2:	4a2d      	ldr	r2, [pc, #180]	@ (8003f68 <HAL_PWREx_ControlVoltageScaling+0x13c>)
 8003eb4:	f423 7380 	bic.w	r3, r3, #256	@ 0x100
 8003eb8:	f8c2 3080 	str.w	r3, [r2, #128]	@ 0x80
 8003ebc:	e04d      	b.n	8003f5a <HAL_PWREx_ControlVoltageScaling+0x12e>
    }
  }
  else if (VoltageScaling == PWR_REGULATOR_VOLTAGE_SCALE1)
 8003ebe:	687b      	ldr	r3, [r7, #4]
 8003ec0:	f5b3 7f00 	cmp.w	r3, #512	@ 0x200
 8003ec4:	d141      	bne.n	8003f4a <HAL_PWREx_ControlVoltageScaling+0x11e>
  {
    /* If current range is range 2 */
    if (READ_BIT(PWR->CR1, PWR_CR1_VOS) == PWR_REGULATOR_VOLTAGE_SCALE2)
 8003ec6:	4b28      	ldr	r3, [pc, #160]	@ (8003f68 <HAL_PWREx_ControlVoltageScaling+0x13c>)
 8003ec8:	681b      	ldr	r3, [r3, #0]
 8003eca:	f403 63c0 	and.w	r3, r3, #1536	@ 0x600
 8003ece:	f5b3 6f80 	cmp.w	r3, #1024	@ 0x400
 8003ed2:	d131      	bne.n	8003f38 <HAL_PWREx_ControlVoltageScaling+0x10c>
    {
      /* Make sure Range 1 Boost is disabled */
      SET_BIT(PWR->CR5, PWR_CR5_R1MODE);
 8003ed4:	4b24      	ldr	r3, [pc, #144]	@ (8003f68 <HAL_PWREx_ControlVoltageScaling+0x13c>)
 8003ed6:	f8d3 3080 	ldr.w	r3, [r3, #128]	@ 0x80
 8003eda:	4a23      	ldr	r2, [pc, #140]	@ (8003f68 <HAL_PWREx_ControlVoltageScaling+0x13c>)
 8003edc:	f443 7380 	orr.w	r3, r3, #256	@ 0x100
 8003ee0:	f8c2 3080 	str.w	r3, [r2, #128]	@ 0x80

      /* Set Range 1 */
      MODIFY_REG(PWR->CR1, PWR_CR1_VOS, PWR_REGULATOR_VOLTAGE_SCALE1);
 8003ee4:	4b20      	ldr	r3, [pc, #128]	@ (8003f68 <HAL_PWREx_ControlVoltageScaling+0x13c>)
 8003ee6:	681b      	ldr	r3, [r3, #0]
 8003ee8:	f423 63c0 	bic.w	r3, r3, #1536	@ 0x600
 8003eec:	4a1e      	ldr	r2, [pc, #120]	@ (8003f68 <HAL_PWREx_ControlVoltageScaling+0x13c>)
 8003eee:	f443 7300 	orr.w	r3, r3, #512	@ 0x200
 8003ef2:	6013      	str	r3, [r2, #0]

      /* Wait until VOSF is cleared */
      wait_loop_index = ((PWR_FLAG_SETTING_DELAY_US * SystemCoreClock) / 1000000U) + 1U;
 8003ef4:	4b1d      	ldr	r3, [pc, #116]	@ (8003f6c <HAL_PWREx_ControlVoltageScaling+0x140>)
 8003ef6:	681b      	ldr	r3, [r3, #0]
 8003ef8:	2232      	movs	r2, #50	@ 0x32
 8003efa:	fb02 f303 	mul.w	r3, r2, r3
 8003efe:	4a1c      	ldr	r2, [pc, #112]	@ (8003f70 <HAL_PWREx_ControlVoltageScaling+0x144>)
 8003f00:	fba2 2303 	umull	r2, r3, r2, r3
 8003f04:	0c9b      	lsrs	r3, r3, #18
 8003f06:	3301      	adds	r3, #1
 8003f08:	60fb      	str	r3, [r7, #12]
      while ((HAL_IS_BIT_SET(PWR->SR2, PWR_SR2_VOSF)) && (wait_loop_index != 0U))
 8003f0a:	e002      	b.n	8003f12 <HAL_PWREx_ControlVoltageScaling+0xe6>
      {
        wait_loop_index--;
 8003f0c:	68fb      	ldr	r3, [r7, #12]
 8003f0e:	3b01      	subs	r3, #1
 8003f10:	60fb      	str	r3, [r7, #12]
      while ((HAL_IS_BIT_SET(PWR->SR2, PWR_SR2_VOSF)) && (wait_loop_index != 0U))
 8003f12:	4b15      	ldr	r3, [pc, #84]	@ (8003f68 <HAL_PWREx_ControlVoltageScaling+0x13c>)
 8003f14:	695b      	ldr	r3, [r3, #20]
 8003f16:	f403 6380 	and.w	r3, r3, #1024	@ 0x400
 8003f1a:	f5b3 6f80 	cmp.w	r3, #1024	@ 0x400
 8003f1e:	d102      	bne.n	8003f26 <HAL_PWREx_ControlVoltageScaling+0xfa>
 8003f20:	68fb      	ldr	r3, [r7, #12]
 8003f22:	2b00      	cmp	r3, #0
 8003f24:	d1f2      	bne.n	8003f0c <HAL_PWREx_ControlVoltageScaling+0xe0>
      }
      if (HAL_IS_BIT_SET(PWR->SR2, PWR_SR2_VOSF))
 8003f26:	4b10      	ldr	r3, [pc, #64]	@ (8003f68 <HAL_PWREx_ControlVoltageScaling+0x13c>)
 8003f28:	695b      	ldr	r3, [r3, #20]
 8003f2a:	f403 6380 	and.w	r3, r3, #1024	@ 0x400
 8003f2e:	f5b3 6f80 	cmp.w	r3, #1024	@ 0x400
 8003f32:	d112      	bne.n	8003f5a <HAL_PWREx_ControlVoltageScaling+0x12e>
      {
        return HAL_TIMEOUT;
 8003f34:	2303      	movs	r3, #3
 8003f36:	e011      	b.n	8003f5c <HAL_PWREx_ControlVoltageScaling+0x130>
    }
     /* If current range is range 1 normal or boost mode */
    else
    {
      /* Disable Range 1 Boost (no issue if bit already set) */
      SET_BIT(PWR->CR5, PWR_CR5_R1MODE);
 8003f38:	4b0b      	ldr	r3, [pc, #44]	@ (8003f68 <HAL_PWREx_ControlVoltageScaling+0x13c>)
 8003f3a:	f8d3 3080 	ldr.w	r3, [r3, #128]	@ 0x80
 8003f3e:	4a0a      	ldr	r2, [pc, #40]	@ (8003f68 <HAL_PWREx_ControlVoltageScaling+0x13c>)
 8003f40:	f443 7380 	orr.w	r3, r3, #256	@ 0x100
 8003f44:	f8c2 3080 	str.w	r3, [r2, #128]	@ 0x80
 8003f48:	e007      	b.n	8003f5a <HAL_PWREx_ControlVoltageScaling+0x12e>
    }
  }
  else
  {
    /* Set Range 2 */
    MODIFY_REG(PWR->CR1, PWR_CR1_VOS, PWR_REGULATOR_VOLTAGE_SCALE2);
 8003f4a:	4b07      	ldr	r3, [pc, #28]	@ (8003f68 <HAL_PWREx_ControlVoltageScaling+0x13c>)
 8003f4c:	681b      	ldr	r3, [r3, #0]
 8003f4e:	f423 63c0 	bic.w	r3, r3, #1536	@ 0x600
 8003f52:	4a05      	ldr	r2, [pc, #20]	@ (8003f68 <HAL_PWREx_ControlVoltageScaling+0x13c>)
 8003f54:	f443 6380 	orr.w	r3, r3, #1024	@ 0x400
 8003f58:	6013      	str	r3, [r2, #0]
    /* No need to wait for VOSF to be cleared for this transition */
    /* PWR_CR5_R1MODE bit setting has no effect in Range 2        */
  }

  return HAL_OK;
 8003f5a:	2300      	movs	r3, #0
}
 8003f5c:	4618      	mov	r0, r3
 8003f5e:	3714      	adds	r7, #20
 8003f60:	46bd      	mov	sp, r7
 8003f62:	f85d 7b04 	ldr.w	r7, [sp], #4
 8003f66:	4770      	bx	lr
 8003f68:	40007000 	.word	0x40007000
 8003f6c:	20000000 	.word	0x20000000
 8003f70:	431bde83 	.word	0x431bde83

08003f74 <HAL_PWREx_DisableUCPDDeadBattery>:
  *       or to hand over control to the UCPD (which should therefore be
  *       initialized before doing the disable).
  * @retval None
  */
void HAL_PWREx_DisableUCPDDeadBattery(void)
{
 8003f74:	b480      	push	{r7}
 8003f76:	af00      	add	r7, sp, #0
  /* Write 1 to disable the USB Type-C dead battery pull-down behavior */
  SET_BIT(PWR->CR3, PWR_CR3_UCPD_DBDIS);
 8003f78:	4b05      	ldr	r3, [pc, #20]	@ (8003f90 <HAL_PWREx_DisableUCPDDeadBattery+0x1c>)
 8003f7a:	689b      	ldr	r3, [r3, #8]
 8003f7c:	4a04      	ldr	r2, [pc, #16]	@ (8003f90 <HAL_PWREx_DisableUCPDDeadBattery+0x1c>)
 8003f7e:	f443 4380 	orr.w	r3, r3, #16384	@ 0x4000
 8003f82:	6093      	str	r3, [r2, #8]
}
 8003f84:	bf00      	nop
 8003f86:	46bd      	mov	sp, r7
 8003f88:	f85d 7b04 	ldr.w	r7, [sp], #4
 8003f8c:	4770      	bx	lr
 8003f8e:	bf00      	nop
 8003f90:	40007000 	.word	0x40007000

08003f94 <HAL_RCC_OscConfig>:
  *         supported by this macro. User should request a transition to HSE Off
  *         first and then HSE On or HSE Bypass.
  * @retval HAL status
  */
HAL_StatusTypeDef HAL_RCC_OscConfig(RCC_OscInitTypeDef  *RCC_OscInitStruct)
{
 8003f94:	b580      	push	{r7, lr}
 8003f96:	b088      	sub	sp, #32
 8003f98:	af00      	add	r7, sp, #0
 8003f9a:	6078      	str	r0, [r7, #4]
  uint32_t tickstart;
  uint32_t temp_sysclksrc;
  uint32_t temp_pllckcfg;

  /* Check Null pointer */
  if (RCC_OscInitStruct == NULL)
 8003f9c:	687b      	ldr	r3, [r7, #4]
 8003f9e:	2b00      	cmp	r3, #0
 8003fa0:	d101      	bne.n	8003fa6 <HAL_RCC_OscConfig+0x12>
  {
    return HAL_ERROR;
 8003fa2:	2301      	movs	r3, #1
 8003fa4:	e2fe      	b.n	80045a4 <HAL_RCC_OscConfig+0x610>

  /* Check the parameters */
  assert_param(IS_RCC_OSCILLATORTYPE(RCC_OscInitStruct->OscillatorType));

  /*------------------------------- HSE Configuration ------------------------*/
  if (((RCC_OscInitStruct->OscillatorType) & RCC_OSCILLATORTYPE_HSE) == RCC_OSCILLATORTYPE_HSE)
 8003fa6:	687b      	ldr	r3, [r7, #4]
 8003fa8:	681b      	ldr	r3, [r3, #0]
 8003faa:	f003 0301 	and.w	r3, r3, #1
 8003fae:	2b00      	cmp	r3, #0
 8003fb0:	d075      	beq.n	800409e <HAL_RCC_OscConfig+0x10a>
  {
    /* Check the parameters */
    assert_param(IS_RCC_HSE(RCC_OscInitStruct->HSEState));

    temp_sysclksrc = __HAL_RCC_GET_SYSCLK_SOURCE();
 8003fb2:	4b97      	ldr	r3, [pc, #604]	@ (8004210 <HAL_RCC_OscConfig+0x27c>)
 8003fb4:	689b      	ldr	r3, [r3, #8]
 8003fb6:	f003 030c 	and.w	r3, r3, #12
 8003fba:	61bb      	str	r3, [r7, #24]
    temp_pllckcfg = __HAL_RCC_GET_PLL_OSCSOURCE();
 8003fbc:	4b94      	ldr	r3, [pc, #592]	@ (8004210 <HAL_RCC_OscConfig+0x27c>)
 8003fbe:	68db      	ldr	r3, [r3, #12]
 8003fc0:	f003 0303 	and.w	r3, r3, #3
 8003fc4:	617b      	str	r3, [r7, #20]

    /* When the HSE is used as system clock or clock source for PLL in these cases it is not allowed to be disabled */
    if (((temp_sysclksrc == RCC_CFGR_SWS_PLL) && (temp_pllckcfg == RCC_PLLSOURCE_HSE)) || (temp_sysclksrc == RCC_CFGR_SWS_HSE))
 8003fc6:	69bb      	ldr	r3, [r7, #24]
 8003fc8:	2b0c      	cmp	r3, #12
 8003fca:	d102      	bne.n	8003fd2 <HAL_RCC_OscConfig+0x3e>
 8003fcc:	697b      	ldr	r3, [r7, #20]
 8003fce:	2b03      	cmp	r3, #3
 8003fd0:	d002      	beq.n	8003fd8 <HAL_RCC_OscConfig+0x44>
 8003fd2:	69bb      	ldr	r3, [r7, #24]
 8003fd4:	2b08      	cmp	r3, #8
 8003fd6:	d10b      	bne.n	8003ff0 <HAL_RCC_OscConfig+0x5c>
    {
      if ((READ_BIT(RCC->CR, RCC_CR_HSERDY) != 0U) && (RCC_OscInitStruct->HSEState == RCC_HSE_OFF))
 8003fd8:	4b8d      	ldr	r3, [pc, #564]	@ (8004210 <HAL_RCC_OscConfig+0x27c>)
 8003fda:	681b      	ldr	r3, [r3, #0]
 8003fdc:	f403 3300 	and.w	r3, r3, #131072	@ 0x20000
 8003fe0:	2b00      	cmp	r3, #0
 8003fe2:	d05b      	beq.n	800409c <HAL_RCC_OscConfig+0x108>
 8003fe4:	687b      	ldr	r3, [r7, #4]
 8003fe6:	685b      	ldr	r3, [r3, #4]
 8003fe8:	2b00      	cmp	r3, #0
 8003fea:	d157      	bne.n	800409c <HAL_RCC_OscConfig+0x108>
      {
        return HAL_ERROR;
 8003fec:	2301      	movs	r3, #1
 8003fee:	e2d9      	b.n	80045a4 <HAL_RCC_OscConfig+0x610>
      }
    }
    else
    {
      /* Set the new HSE configuration ---------------------------------------*/
      __HAL_RCC_HSE_CONFIG(RCC_OscInitStruct->HSEState);
 8003ff0:	687b      	ldr	r3, [r7, #4]
 8003ff2:	685b      	ldr	r3, [r3, #4]
 8003ff4:	f5b3 3f80 	cmp.w	r3, #65536	@ 0x10000
 8003ff8:	d106      	bne.n	8004008 <HAL_RCC_OscConfig+0x74>
 8003ffa:	4b85      	ldr	r3, [pc, #532]	@ (8004210 <HAL_RCC_OscConfig+0x27c>)
 8003ffc:	681b      	ldr	r3, [r3, #0]
 8003ffe:	4a84      	ldr	r2, [pc, #528]	@ (8004210 <HAL_RCC_OscConfig+0x27c>)
 8004000:	f443 3380 	orr.w	r3, r3, #65536	@ 0x10000
 8004004:	6013      	str	r3, [r2, #0]
 8004006:	e01d      	b.n	8004044 <HAL_RCC_OscConfig+0xb0>
 8004008:	687b      	ldr	r3, [r7, #4]
 800400a:	685b      	ldr	r3, [r3, #4]
 800400c:	f5b3 2fa0 	cmp.w	r3, #327680	@ 0x50000
 8004010:	d10c      	bne.n	800402c <HAL_RCC_OscConfig+0x98>
 8004012:	4b7f      	ldr	r3, [pc, #508]	@ (8004210 <HAL_RCC_OscConfig+0x27c>)
 8004014:	681b      	ldr	r3, [r3, #0]
 8004016:	4a7e      	ldr	r2, [pc, #504]	@ (8004210 <HAL_RCC_OscConfig+0x27c>)
 8004018:	f443 2380 	orr.w	r3, r3, #262144	@ 0x40000
 800401c:	6013      	str	r3, [r2, #0]
 800401e:	4b7c      	ldr	r3, [pc, #496]	@ (8004210 <HAL_RCC_OscConfig+0x27c>)
 8004020:	681b      	ldr	r3, [r3, #0]
 8004022:	4a7b      	ldr	r2, [pc, #492]	@ (8004210 <HAL_RCC_OscConfig+0x27c>)
 8004024:	f443 3380 	orr.w	r3, r3, #65536	@ 0x10000
 8004028:	6013      	str	r3, [r2, #0]
 800402a:	e00b      	b.n	8004044 <HAL_RCC_OscConfig+0xb0>
 800402c:	4b78      	ldr	r3, [pc, #480]	@ (8004210 <HAL_RCC_OscConfig+0x27c>)
 800402e:	681b      	ldr	r3, [r3, #0]
 8004030:	4a77      	ldr	r2, [pc, #476]	@ (8004210 <HAL_RCC_OscConfig+0x27c>)
 8004032:	f423 3380 	bic.w	r3, r3, #65536	@ 0x10000
 8004036:	6013      	str	r3, [r2, #0]
 8004038:	4b75      	ldr	r3, [pc, #468]	@ (8004210 <HAL_RCC_OscConfig+0x27c>)
 800403a:	681b      	ldr	r3, [r3, #0]
 800403c:	4a74      	ldr	r2, [pc, #464]	@ (8004210 <HAL_RCC_OscConfig+0x27c>)
 800403e:	f423 2380 	bic.w	r3, r3, #262144	@ 0x40000
 8004042:	6013      	str	r3, [r2, #0]

      /* Check the HSE State */
      if (RCC_OscInitStruct->HSEState != RCC_HSE_OFF)
 8004044:	687b      	ldr	r3, [r7, #4]
 8004046:	685b      	ldr	r3, [r3, #4]
 8004048:	2b00      	cmp	r3, #0
 800404a:	d013      	beq.n	8004074 <HAL_RCC_OscConfig+0xe0>
      {
        /* Get Start Tick*/
        tickstart = HAL_GetTick();
 800404c:	f7fd f85e 	bl	800110c <HAL_GetTick>
 8004050:	6138      	str	r0, [r7, #16]

        /* Wait till HSE is ready */
        while (READ_BIT(RCC->CR, RCC_CR_HSERDY) == 0U)
 8004052:	e008      	b.n	8004066 <HAL_RCC_OscConfig+0xd2>
        {
          if ((HAL_GetTick() - tickstart) > HSE_TIMEOUT_VALUE)
 8004054:	f7fd f85a 	bl	800110c <HAL_GetTick>
 8004058:	4602      	mov	r2, r0
 800405a:	693b      	ldr	r3, [r7, #16]
 800405c:	1ad3      	subs	r3, r2, r3
 800405e:	2b64      	cmp	r3, #100	@ 0x64
 8004060:	d901      	bls.n	8004066 <HAL_RCC_OscConfig+0xd2>
          {
            return HAL_TIMEOUT;
 8004062:	2303      	movs	r3, #3
 8004064:	e29e      	b.n	80045a4 <HAL_RCC_OscConfig+0x610>
        while (READ_BIT(RCC->CR, RCC_CR_HSERDY) == 0U)
 8004066:	4b6a      	ldr	r3, [pc, #424]	@ (8004210 <HAL_RCC_OscConfig+0x27c>)
 8004068:	681b      	ldr	r3, [r3, #0]
 800406a:	f403 3300 	and.w	r3, r3, #131072	@ 0x20000
 800406e:	2b00      	cmp	r3, #0
 8004070:	d0f0      	beq.n	8004054 <HAL_RCC_OscConfig+0xc0>
 8004072:	e014      	b.n	800409e <HAL_RCC_OscConfig+0x10a>
        }
      }
      else
      {
        /* Get Start Tick*/
        tickstart = HAL_GetTick();
 8004074:	f7fd f84a 	bl	800110c <HAL_GetTick>
 8004078:	6138      	str	r0, [r7, #16]

        /* Wait till HSE is disabled */
        while (READ_BIT(RCC->CR, RCC_CR_HSERDY) != 0U)
 800407a:	e008      	b.n	800408e <HAL_RCC_OscConfig+0xfa>
        {
          if ((HAL_GetTick() - tickstart) > HSE_TIMEOUT_VALUE)
 800407c:	f7fd f846 	bl	800110c <HAL_GetTick>
 8004080:	4602      	mov	r2, r0
 8004082:	693b      	ldr	r3, [r7, #16]
 8004084:	1ad3      	subs	r3, r2, r3
 8004086:	2b64      	cmp	r3, #100	@ 0x64
 8004088:	d901      	bls.n	800408e <HAL_RCC_OscConfig+0xfa>
          {
            return HAL_TIMEOUT;
 800408a:	2303      	movs	r3, #3
 800408c:	e28a      	b.n	80045a4 <HAL_RCC_OscConfig+0x610>
        while (READ_BIT(RCC->CR, RCC_CR_HSERDY) != 0U)
 800408e:	4b60      	ldr	r3, [pc, #384]	@ (8004210 <HAL_RCC_OscConfig+0x27c>)
 8004090:	681b      	ldr	r3, [r3, #0]
 8004092:	f403 3300 	and.w	r3, r3, #131072	@ 0x20000
 8004096:	2b00      	cmp	r3, #0
 8004098:	d1f0      	bne.n	800407c <HAL_RCC_OscConfig+0xe8>
 800409a:	e000      	b.n	800409e <HAL_RCC_OscConfig+0x10a>
      if ((READ_BIT(RCC->CR, RCC_CR_HSERDY) != 0U) && (RCC_OscInitStruct->HSEState == RCC_HSE_OFF))
 800409c:	bf00      	nop
        }
      }
    }
  }
  /*----------------------------- HSI Configuration --------------------------*/
  if (((RCC_OscInitStruct->OscillatorType) & RCC_OSCILLATORTYPE_HSI) == RCC_OSCILLATORTYPE_HSI)
 800409e:	687b      	ldr	r3, [r7, #4]
 80040a0:	681b      	ldr	r3, [r3, #0]
 80040a2:	f003 0302 	and.w	r3, r3, #2
 80040a6:	2b00      	cmp	r3, #0
 80040a8:	d075      	beq.n	8004196 <HAL_RCC_OscConfig+0x202>
    /* Check the parameters */
    assert_param(IS_RCC_HSI(RCC_OscInitStruct->HSIState));
    assert_param(IS_RCC_HSI_CALIBRATION_VALUE(RCC_OscInitStruct->HSICalibrationValue));

    /* Check if HSI is used as system clock or as PLL source when PLL is selected as system clock */
    temp_sysclksrc = __HAL_RCC_GET_SYSCLK_SOURCE();
 80040aa:	4b59      	ldr	r3, [pc, #356]	@ (8004210 <HAL_RCC_OscConfig+0x27c>)
 80040ac:	689b      	ldr	r3, [r3, #8]
 80040ae:	f003 030c 	and.w	r3, r3, #12
 80040b2:	61bb      	str	r3, [r7, #24]
    temp_pllckcfg = __HAL_RCC_GET_PLL_OSCSOURCE();
 80040b4:	4b56      	ldr	r3, [pc, #344]	@ (8004210 <HAL_RCC_OscConfig+0x27c>)
 80040b6:	68db      	ldr	r3, [r3, #12]
 80040b8:	f003 0303 	and.w	r3, r3, #3
 80040bc:	617b      	str	r3, [r7, #20]
    if (((temp_sysclksrc == RCC_CFGR_SWS_PLL) && (temp_pllckcfg == RCC_PLLSOURCE_HSI)) || (temp_sysclksrc == RCC_CFGR_SWS_HSI))
 80040be:	69bb      	ldr	r3, [r7, #24]
 80040c0:	2b0c      	cmp	r3, #12
 80040c2:	d102      	bne.n	80040ca <HAL_RCC_OscConfig+0x136>
 80040c4:	697b      	ldr	r3, [r7, #20]
 80040c6:	2b02      	cmp	r3, #2
 80040c8:	d002      	beq.n	80040d0 <HAL_RCC_OscConfig+0x13c>
 80040ca:	69bb      	ldr	r3, [r7, #24]
 80040cc:	2b04      	cmp	r3, #4
 80040ce:	d11f      	bne.n	8004110 <HAL_RCC_OscConfig+0x17c>
    {
      /* When HSI is used as system clock it will not be disabled */
      if ((READ_BIT(RCC->CR, RCC_CR_HSIRDY) != 0U) && (RCC_OscInitStruct->HSIState == RCC_HSI_OFF))
 80040d0:	4b4f      	ldr	r3, [pc, #316]	@ (8004210 <HAL_RCC_OscConfig+0x27c>)
 80040d2:	681b      	ldr	r3, [r3, #0]
 80040d4:	f403 6380 	and.w	r3, r3, #1024	@ 0x400
 80040d8:	2b00      	cmp	r3, #0
 80040da:	d005      	beq.n	80040e8 <HAL_RCC_OscConfig+0x154>
 80040dc:	687b      	ldr	r3, [r7, #4]
 80040de:	68db      	ldr	r3, [r3, #12]
 80040e0:	2b00      	cmp	r3, #0
 80040e2:	d101      	bne.n	80040e8 <HAL_RCC_OscConfig+0x154>
      {
        return HAL_ERROR;
 80040e4:	2301      	movs	r3, #1
 80040e6:	e25d      	b.n	80045a4 <HAL_RCC_OscConfig+0x610>
      }
      /* Otherwise, just the calibration is allowed */
      else
      {
        /* Adjusts the Internal High Speed oscillator (HSI) calibration value.*/
        __HAL_RCC_HSI_CALIBRATIONVALUE_ADJUST(RCC_OscInitStruct->HSICalibrationValue);
 80040e8:	4b49      	ldr	r3, [pc, #292]	@ (8004210 <HAL_RCC_OscConfig+0x27c>)
 80040ea:	685b      	ldr	r3, [r3, #4]
 80040ec:	f023 42fe 	bic.w	r2, r3, #2130706432	@ 0x7f000000
 80040f0:	687b      	ldr	r3, [r7, #4]
 80040f2:	691b      	ldr	r3, [r3, #16]
 80040f4:	061b      	lsls	r3, r3, #24
 80040f6:	4946      	ldr	r1, [pc, #280]	@ (8004210 <HAL_RCC_OscConfig+0x27c>)
 80040f8:	4313      	orrs	r3, r2
 80040fa:	604b      	str	r3, [r1, #4]

        /* Adapt Systick interrupt period */
        if (HAL_InitTick(uwTickPrio) != HAL_OK)
 80040fc:	4b45      	ldr	r3, [pc, #276]	@ (8004214 <HAL_RCC_OscConfig+0x280>)
 80040fe:	681b      	ldr	r3, [r3, #0]
 8004100:	4618      	mov	r0, r3
 8004102:	f7fc ffb7 	bl	8001074 <HAL_InitTick>
 8004106:	4603      	mov	r3, r0
 8004108:	2b00      	cmp	r3, #0
 800410a:	d043      	beq.n	8004194 <HAL_RCC_OscConfig+0x200>
        {
          return HAL_ERROR;
 800410c:	2301      	movs	r3, #1
 800410e:	e249      	b.n	80045a4 <HAL_RCC_OscConfig+0x610>
      }
    }
    else
    {
      /* Check the HSI State */
      if (RCC_OscInitStruct->HSIState != RCC_HSI_OFF)
 8004110:	687b      	ldr	r3, [r7, #4]
 8004112:	68db      	ldr	r3, [r3, #12]
 8004114:	2b00      	cmp	r3, #0
 8004116:	d023      	beq.n	8004160 <HAL_RCC_OscConfig+0x1cc>
      {
        /* Enable the Internal High Speed oscillator (HSI). */
        __HAL_RCC_HSI_ENABLE();
 8004118:	4b3d      	ldr	r3, [pc, #244]	@ (8004210 <HAL_RCC_OscConfig+0x27c>)
 800411a:	681b      	ldr	r3, [r3, #0]
 800411c:	4a3c      	ldr	r2, [pc, #240]	@ (8004210 <HAL_RCC_OscConfig+0x27c>)
 800411e:	f443 7380 	orr.w	r3, r3, #256	@ 0x100
 8004122:	6013      	str	r3, [r2, #0]

        /* Get Start Tick*/
        tickstart = HAL_GetTick();
 8004124:	f7fc fff2 	bl	800110c <HAL_GetTick>
 8004128:	6138      	str	r0, [r7, #16]

        /* Wait till HSI is ready */
        while (READ_BIT(RCC->CR, RCC_CR_HSIRDY) == 0U)
 800412a:	e008      	b.n	800413e <HAL_RCC_OscConfig+0x1aa>
        {
          if ((HAL_GetTick() - tickstart) > HSI_TIMEOUT_VALUE)
 800412c:	f7fc ffee 	bl	800110c <HAL_GetTick>
 8004130:	4602      	mov	r2, r0
 8004132:	693b      	ldr	r3, [r7, #16]
 8004134:	1ad3      	subs	r3, r2, r3
 8004136:	2b02      	cmp	r3, #2
 8004138:	d901      	bls.n	800413e <HAL_RCC_OscConfig+0x1aa>
          {
            return HAL_TIMEOUT;
 800413a:	2303      	movs	r3, #3
 800413c:	e232      	b.n	80045a4 <HAL_RCC_OscConfig+0x610>
        while (READ_BIT(RCC->CR, RCC_CR_HSIRDY) == 0U)
 800413e:	4b34      	ldr	r3, [pc, #208]	@ (8004210 <HAL_RCC_OscConfig+0x27c>)
 8004140:	681b      	ldr	r3, [r3, #0]
 8004142:	f403 6380 	and.w	r3, r3, #1024	@ 0x400
 8004146:	2b00      	cmp	r3, #0
 8004148:	d0f0      	beq.n	800412c <HAL_RCC_OscConfig+0x198>
          }
        }

        /* Adjusts the Internal High Speed oscillator (HSI) calibration value.*/
        __HAL_RCC_HSI_CALIBRATIONVALUE_ADJUST(RCC_OscInitStruct->HSICalibrationValue);
 800414a:	4b31      	ldr	r3, [pc, #196]	@ (8004210 <HAL_RCC_OscConfig+0x27c>)
 800414c:	685b      	ldr	r3, [r3, #4]
 800414e:	f023 42fe 	bic.w	r2, r3, #2130706432	@ 0x7f000000
 8004152:	687b      	ldr	r3, [r7, #4]
 8004154:	691b      	ldr	r3, [r3, #16]
 8004156:	061b      	lsls	r3, r3, #24
 8004158:	492d      	ldr	r1, [pc, #180]	@ (8004210 <HAL_RCC_OscConfig+0x27c>)
 800415a:	4313      	orrs	r3, r2
 800415c:	604b      	str	r3, [r1, #4]
 800415e:	e01a      	b.n	8004196 <HAL_RCC_OscConfig+0x202>
      }
      else
      {
        /* Disable the Internal High Speed oscillator (HSI). */
        __HAL_RCC_HSI_DISABLE();
 8004160:	4b2b      	ldr	r3, [pc, #172]	@ (8004210 <HAL_RCC_OscConfig+0x27c>)
 8004162:	681b      	ldr	r3, [r3, #0]
 8004164:	4a2a      	ldr	r2, [pc, #168]	@ (8004210 <HAL_RCC_OscConfig+0x27c>)
 8004166:	f423 7380 	bic.w	r3, r3, #256	@ 0x100
 800416a:	6013      	str	r3, [r2, #0]

        /* Get Start Tick*/
        tickstart = HAL_GetTick();
 800416c:	f7fc ffce 	bl	800110c <HAL_GetTick>
 8004170:	6138      	str	r0, [r7, #16]

        /* Wait till HSI is disabled */
        while (READ_BIT(RCC->CR, RCC_CR_HSIRDY) != 0U)
 8004172:	e008      	b.n	8004186 <HAL_RCC_OscConfig+0x1f2>
        {
          if ((HAL_GetTick() - tickstart) > HSI_TIMEOUT_VALUE)
 8004174:	f7fc ffca 	bl	800110c <HAL_GetTick>
 8004178:	4602      	mov	r2, r0
 800417a:	693b      	ldr	r3, [r7, #16]
 800417c:	1ad3      	subs	r3, r2, r3
 800417e:	2b02      	cmp	r3, #2
 8004180:	d901      	bls.n	8004186 <HAL_RCC_OscConfig+0x1f2>
          {
            return HAL_TIMEOUT;
 8004182:	2303      	movs	r3, #3
 8004184:	e20e      	b.n	80045a4 <HAL_RCC_OscConfig+0x610>
        while (READ_BIT(RCC->CR, RCC_CR_HSIRDY) != 0U)
 8004186:	4b22      	ldr	r3, [pc, #136]	@ (8004210 <HAL_RCC_OscConfig+0x27c>)
 8004188:	681b      	ldr	r3, [r3, #0]
 800418a:	f403 6380 	and.w	r3, r3, #1024	@ 0x400
 800418e:	2b00      	cmp	r3, #0
 8004190:	d1f0      	bne.n	8004174 <HAL_RCC_OscConfig+0x1e0>
 8004192:	e000      	b.n	8004196 <HAL_RCC_OscConfig+0x202>
      if ((READ_BIT(RCC->CR, RCC_CR_HSIRDY) != 0U) && (RCC_OscInitStruct->HSIState == RCC_HSI_OFF))
 8004194:	bf00      	nop
        }
      }
    }
  }
  /*------------------------------ LSI Configuration -------------------------*/
  if (((RCC_OscInitStruct->OscillatorType) & RCC_OSCILLATORTYPE_LSI) == RCC_OSCILLATORTYPE_LSI)
 8004196:	687b      	ldr	r3, [r7, #4]
 8004198:	681b      	ldr	r3, [r3, #0]
 800419a:	f003 0308 	and.w	r3, r3, #8
 800419e:	2b00      	cmp	r3, #0
 80041a0:	d041      	beq.n	8004226 <HAL_RCC_OscConfig+0x292>
  {
    /* Check the parameters */
    assert_param(IS_RCC_LSI(RCC_OscInitStruct->LSIState));

    /* Check the LSI State */
    if(RCC_OscInitStruct->LSIState != RCC_LSI_OFF)
 80041a2:	687b      	ldr	r3, [r7, #4]
 80041a4:	695b      	ldr	r3, [r3, #20]
 80041a6:	2b00      	cmp	r3, #0
 80041a8:	d01c      	beq.n	80041e4 <HAL_RCC_OscConfig+0x250>
    {
      /* Enable the Internal Low Speed oscillator (LSI). */
      __HAL_RCC_LSI_ENABLE();
 80041aa:	4b19      	ldr	r3, [pc, #100]	@ (8004210 <HAL_RCC_OscConfig+0x27c>)
 80041ac:	f8d3 3094 	ldr.w	r3, [r3, #148]	@ 0x94
 80041b0:	4a17      	ldr	r2, [pc, #92]	@ (8004210 <HAL_RCC_OscConfig+0x27c>)
 80041b2:	f043 0301 	orr.w	r3, r3, #1
 80041b6:	f8c2 3094 	str.w	r3, [r2, #148]	@ 0x94

      /* Get Start Tick*/
      tickstart = HAL_GetTick();
 80041ba:	f7fc ffa7 	bl	800110c <HAL_GetTick>
 80041be:	6138      	str	r0, [r7, #16]

      /* Wait till LSI is ready */
      while (READ_BIT(RCC->CSR, RCC_CSR_LSIRDY) == 0U)
 80041c0:	e008      	b.n	80041d4 <HAL_RCC_OscConfig+0x240>
      {
        if ((HAL_GetTick() - tickstart) > LSI_TIMEOUT_VALUE)
 80041c2:	f7fc ffa3 	bl	800110c <HAL_GetTick>
 80041c6:	4602      	mov	r2, r0
 80041c8:	693b      	ldr	r3, [r7, #16]
 80041ca:	1ad3      	subs	r3, r2, r3
 80041cc:	2b02      	cmp	r3, #2
 80041ce:	d901      	bls.n	80041d4 <HAL_RCC_OscConfig+0x240>
        {
          return HAL_TIMEOUT;
 80041d0:	2303      	movs	r3, #3
 80041d2:	e1e7      	b.n	80045a4 <HAL_RCC_OscConfig+0x610>
      while (READ_BIT(RCC->CSR, RCC_CSR_LSIRDY) == 0U)
 80041d4:	4b0e      	ldr	r3, [pc, #56]	@ (8004210 <HAL_RCC_OscConfig+0x27c>)
 80041d6:	f8d3 3094 	ldr.w	r3, [r3, #148]	@ 0x94
 80041da:	f003 0302 	and.w	r3, r3, #2
 80041de:	2b00      	cmp	r3, #0
 80041e0:	d0ef      	beq.n	80041c2 <HAL_RCC_OscConfig+0x22e>
 80041e2:	e020      	b.n	8004226 <HAL_RCC_OscConfig+0x292>
      }
    }
    else
    {
      /* Disable the Internal Low Speed oscillator (LSI). */
      __HAL_RCC_LSI_DISABLE();
 80041e4:	4b0a      	ldr	r3, [pc, #40]	@ (8004210 <HAL_RCC_OscConfig+0x27c>)
 80041e6:	f8d3 3094 	ldr.w	r3, [r3, #148]	@ 0x94
 80041ea:	4a09      	ldr	r2, [pc, #36]	@ (8004210 <HAL_RCC_OscConfig+0x27c>)
 80041ec:	f023 0301 	bic.w	r3, r3, #1
 80041f0:	f8c2 3094 	str.w	r3, [r2, #148]	@ 0x94

      /* Get Start Tick*/
      tickstart = HAL_GetTick();
 80041f4:	f7fc ff8a 	bl	800110c <HAL_GetTick>
 80041f8:	6138      	str	r0, [r7, #16]

      /* Wait till LSI is disabled */
      while(READ_BIT(RCC->CSR, RCC_CSR_LSIRDY) != 0U)
 80041fa:	e00d      	b.n	8004218 <HAL_RCC_OscConfig+0x284>
      {
        if((HAL_GetTick() - tickstart) > LSI_TIMEOUT_VALUE)
 80041fc:	f7fc ff86 	bl	800110c <HAL_GetTick>
 8004200:	4602      	mov	r2, r0
 8004202:	693b      	ldr	r3, [r7, #16]
 8004204:	1ad3      	subs	r3, r2, r3
 8004206:	2b02      	cmp	r3, #2
 8004208:	d906      	bls.n	8004218 <HAL_RCC_OscConfig+0x284>
        {
          return HAL_TIMEOUT;
 800420a:	2303      	movs	r3, #3
 800420c:	e1ca      	b.n	80045a4 <HAL_RCC_OscConfig+0x610>
 800420e:	bf00      	nop
 8004210:	40021000 	.word	0x40021000
 8004214:	2000000c 	.word	0x2000000c
      while(READ_BIT(RCC->CSR, RCC_CSR_LSIRDY) != 0U)
 8004218:	4b8c      	ldr	r3, [pc, #560]	@ (800444c <HAL_RCC_OscConfig+0x4b8>)
 800421a:	f8d3 3094 	ldr.w	r3, [r3, #148]	@ 0x94
 800421e:	f003 0302 	and.w	r3, r3, #2
 8004222:	2b00      	cmp	r3, #0
 8004224:	d1ea      	bne.n	80041fc <HAL_RCC_OscConfig+0x268>
        }
      }
    }
  }
  /*------------------------------ LSE Configuration -------------------------*/
  if (((RCC_OscInitStruct->OscillatorType) & RCC_OSCILLATORTYPE_LSE) == RCC_OSCILLATORTYPE_LSE)
 8004226:	687b      	ldr	r3, [r7, #4]
 8004228:	681b      	ldr	r3, [r3, #0]
 800422a:	f003 0304 	and.w	r3, r3, #4
 800422e:	2b00      	cmp	r3, #0
 8004230:	f000 80a6 	beq.w	8004380 <HAL_RCC_OscConfig+0x3ec>
  {
    FlagStatus       pwrclkchanged = RESET;
 8004234:	2300      	movs	r3, #0
 8004236:	77fb      	strb	r3, [r7, #31]
    /* Check the parameters */
    assert_param(IS_RCC_LSE(RCC_OscInitStruct->LSEState));

    /* Update LSE configuration in Backup Domain control register    */
    /* Requires to enable write access to Backup Domain if necessary */
    if (__HAL_RCC_PWR_IS_CLK_DISABLED() != 0U)
 8004238:	4b84      	ldr	r3, [pc, #528]	@ (800444c <HAL_RCC_OscConfig+0x4b8>)
 800423a:	6d9b      	ldr	r3, [r3, #88]	@ 0x58
 800423c:	f003 5380 	and.w	r3, r3, #268435456	@ 0x10000000
 8004240:	2b00      	cmp	r3, #0
 8004242:	d101      	bne.n	8004248 <HAL_RCC_OscConfig+0x2b4>
 8004244:	2301      	movs	r3, #1
 8004246:	e000      	b.n	800424a <HAL_RCC_OscConfig+0x2b6>
 8004248:	2300      	movs	r3, #0
 800424a:	2b00      	cmp	r3, #0
 800424c:	d00d      	beq.n	800426a <HAL_RCC_OscConfig+0x2d6>
    {
      __HAL_RCC_PWR_CLK_ENABLE();
 800424e:	4b7f      	ldr	r3, [pc, #508]	@ (800444c <HAL_RCC_OscConfig+0x4b8>)
 8004250:	6d9b      	ldr	r3, [r3, #88]	@ 0x58
 8004252:	4a7e      	ldr	r2, [pc, #504]	@ (800444c <HAL_RCC_OscConfig+0x4b8>)
 8004254:	f043 5380 	orr.w	r3, r3, #268435456	@ 0x10000000
 8004258:	6593      	str	r3, [r2, #88]	@ 0x58
 800425a:	4b7c      	ldr	r3, [pc, #496]	@ (800444c <HAL_RCC_OscConfig+0x4b8>)
 800425c:	6d9b      	ldr	r3, [r3, #88]	@ 0x58
 800425e:	f003 5380 	and.w	r3, r3, #268435456	@ 0x10000000
 8004262:	60fb      	str	r3, [r7, #12]
 8004264:	68fb      	ldr	r3, [r7, #12]
      pwrclkchanged = SET;
 8004266:	2301      	movs	r3, #1
 8004268:	77fb      	strb	r3, [r7, #31]
    }

    if (HAL_IS_BIT_CLR(PWR->CR1, PWR_CR1_DBP))
 800426a:	4b79      	ldr	r3, [pc, #484]	@ (8004450 <HAL_RCC_OscConfig+0x4bc>)
 800426c:	681b      	ldr	r3, [r3, #0]
 800426e:	f403 7380 	and.w	r3, r3, #256	@ 0x100
 8004272:	2b00      	cmp	r3, #0
 8004274:	d118      	bne.n	80042a8 <HAL_RCC_OscConfig+0x314>
    {
      /* Enable write access to Backup domain */
      SET_BIT(PWR->CR1, PWR_CR1_DBP);
 8004276:	4b76      	ldr	r3, [pc, #472]	@ (8004450 <HAL_RCC_OscConfig+0x4bc>)
 8004278:	681b      	ldr	r3, [r3, #0]
 800427a:	4a75      	ldr	r2, [pc, #468]	@ (8004450 <HAL_RCC_OscConfig+0x4bc>)
 800427c:	f443 7380 	orr.w	r3, r3, #256	@ 0x100
 8004280:	6013      	str	r3, [r2, #0]

      /* Wait for Backup domain Write protection disable */
      tickstart = HAL_GetTick();
 8004282:	f7fc ff43 	bl	800110c <HAL_GetTick>
 8004286:	6138      	str	r0, [r7, #16]

      while (HAL_IS_BIT_CLR(PWR->CR1, PWR_CR1_DBP))
 8004288:	e008      	b.n	800429c <HAL_RCC_OscConfig+0x308>
      {
        if ((HAL_GetTick() - tickstart) > RCC_DBP_TIMEOUT_VALUE)
 800428a:	f7fc ff3f 	bl	800110c <HAL_GetTick>
 800428e:	4602      	mov	r2, r0
 8004290:	693b      	ldr	r3, [r7, #16]
 8004292:	1ad3      	subs	r3, r2, r3
 8004294:	2b02      	cmp	r3, #2
 8004296:	d901      	bls.n	800429c <HAL_RCC_OscConfig+0x308>
        {
          return HAL_TIMEOUT;
 8004298:	2303      	movs	r3, #3
 800429a:	e183      	b.n	80045a4 <HAL_RCC_OscConfig+0x610>
      while (HAL_IS_BIT_CLR(PWR->CR1, PWR_CR1_DBP))
 800429c:	4b6c      	ldr	r3, [pc, #432]	@ (8004450 <HAL_RCC_OscConfig+0x4bc>)
 800429e:	681b      	ldr	r3, [r3, #0]
 80042a0:	f403 7380 	and.w	r3, r3, #256	@ 0x100
 80042a4:	2b00      	cmp	r3, #0
 80042a6:	d0f0      	beq.n	800428a <HAL_RCC_OscConfig+0x2f6>
        }
      }
    }

    /* Set the new LSE configuration -----------------------------------------*/
    __HAL_RCC_LSE_CONFIG(RCC_OscInitStruct->LSEState);
 80042a8:	687b      	ldr	r3, [r7, #4]
 80042aa:	689b      	ldr	r3, [r3, #8]
 80042ac:	2b01      	cmp	r3, #1
 80042ae:	d108      	bne.n	80042c2 <HAL_RCC_OscConfig+0x32e>
 80042b0:	4b66      	ldr	r3, [pc, #408]	@ (800444c <HAL_RCC_OscConfig+0x4b8>)
 80042b2:	f8d3 3090 	ldr.w	r3, [r3, #144]	@ 0x90
 80042b6:	4a65      	ldr	r2, [pc, #404]	@ (800444c <HAL_RCC_OscConfig+0x4b8>)
 80042b8:	f043 0301 	orr.w	r3, r3, #1
 80042bc:	f8c2 3090 	str.w	r3, [r2, #144]	@ 0x90
 80042c0:	e024      	b.n	800430c <HAL_RCC_OscConfig+0x378>
 80042c2:	687b      	ldr	r3, [r7, #4]
 80042c4:	689b      	ldr	r3, [r3, #8]
 80042c6:	2b05      	cmp	r3, #5
 80042c8:	d110      	bne.n	80042ec <HAL_RCC_OscConfig+0x358>
 80042ca:	4b60      	ldr	r3, [pc, #384]	@ (800444c <HAL_RCC_OscConfig+0x4b8>)
 80042cc:	f8d3 3090 	ldr.w	r3, [r3, #144]	@ 0x90
 80042d0:	4a5e      	ldr	r2, [pc, #376]	@ (800444c <HAL_RCC_OscConfig+0x4b8>)
 80042d2:	f043 0304 	orr.w	r3, r3, #4
 80042d6:	f8c2 3090 	str.w	r3, [r2, #144]	@ 0x90
 80042da:	4b5c      	ldr	r3, [pc, #368]	@ (800444c <HAL_RCC_OscConfig+0x4b8>)
 80042dc:	f8d3 3090 	ldr.w	r3, [r3, #144]	@ 0x90
 80042e0:	4a5a      	ldr	r2, [pc, #360]	@ (800444c <HAL_RCC_OscConfig+0x4b8>)
 80042e2:	f043 0301 	orr.w	r3, r3, #1
 80042e6:	f8c2 3090 	str.w	r3, [r2, #144]	@ 0x90
 80042ea:	e00f      	b.n	800430c <HAL_RCC_OscConfig+0x378>
 80042ec:	4b57      	ldr	r3, [pc, #348]	@ (800444c <HAL_RCC_OscConfig+0x4b8>)
 80042ee:	f8d3 3090 	ldr.w	r3, [r3, #144]	@ 0x90
 80042f2:	4a56      	ldr	r2, [pc, #344]	@ (800444c <HAL_RCC_OscConfig+0x4b8>)
 80042f4:	f023 0301 	bic.w	r3, r3, #1
 80042f8:	f8c2 3090 	str.w	r3, [r2, #144]	@ 0x90
 80042fc:	4b53      	ldr	r3, [pc, #332]	@ (800444c <HAL_RCC_OscConfig+0x4b8>)
 80042fe:	f8d3 3090 	ldr.w	r3, [r3, #144]	@ 0x90
 8004302:	4a52      	ldr	r2, [pc, #328]	@ (800444c <HAL_RCC_OscConfig+0x4b8>)
 8004304:	f023 0304 	bic.w	r3, r3, #4
 8004308:	f8c2 3090 	str.w	r3, [r2, #144]	@ 0x90

    /* Check the LSE State */
    if (RCC_OscInitStruct->LSEState != RCC_LSE_OFF)
 800430c:	687b      	ldr	r3, [r7, #4]
 800430e:	689b      	ldr	r3, [r3, #8]
 8004310:	2b00      	cmp	r3, #0
 8004312:	d016      	beq.n	8004342 <HAL_RCC_OscConfig+0x3ae>
    {
      /* Get Start Tick*/
      tickstart = HAL_GetTick();
 8004314:	f7fc fefa 	bl	800110c <HAL_GetTick>
 8004318:	6138      	str	r0, [r7, #16]

      /* Wait till LSE is ready */
      while (READ_BIT(RCC->BDCR, RCC_BDCR_LSERDY) == 0U)
 800431a:	e00a      	b.n	8004332 <HAL_RCC_OscConfig+0x39e>
      {
        if((HAL_GetTick() - tickstart) > RCC_LSE_TIMEOUT_VALUE)
 800431c:	f7fc fef6 	bl	800110c <HAL_GetTick>
 8004320:	4602      	mov	r2, r0
 8004322:	693b      	ldr	r3, [r7, #16]
 8004324:	1ad3      	subs	r3, r2, r3
 8004326:	f241 3288 	movw	r2, #5000	@ 0x1388
 800432a:	4293      	cmp	r3, r2
 800432c:	d901      	bls.n	8004332 <HAL_RCC_OscConfig+0x39e>
        {
          return HAL_TIMEOUT;
 800432e:	2303      	movs	r3, #3
 8004330:	e138      	b.n	80045a4 <HAL_RCC_OscConfig+0x610>
      while (READ_BIT(RCC->BDCR, RCC_BDCR_LSERDY) == 0U)
 8004332:	4b46      	ldr	r3, [pc, #280]	@ (800444c <HAL_RCC_OscConfig+0x4b8>)
 8004334:	f8d3 3090 	ldr.w	r3, [r3, #144]	@ 0x90
 8004338:	f003 0302 	and.w	r3, r3, #2
 800433c:	2b00      	cmp	r3, #0
 800433e:	d0ed      	beq.n	800431c <HAL_RCC_OscConfig+0x388>
 8004340:	e015      	b.n	800436e <HAL_RCC_OscConfig+0x3da>
      }
    }
    else
    {
      /* Get Start Tick*/
      tickstart = HAL_GetTick();
 8004342:	f7fc fee3 	bl	800110c <HAL_GetTick>
 8004346:	6138      	str	r0, [r7, #16]

      /* Wait till LSE is disabled */
      while (READ_BIT(RCC->BDCR, RCC_BDCR_LSERDY) != 0U)
 8004348:	e00a      	b.n	8004360 <HAL_RCC_OscConfig+0x3cc>
      {
        if((HAL_GetTick() - tickstart) > RCC_LSE_TIMEOUT_VALUE)
 800434a:	f7fc fedf 	bl	800110c <HAL_GetTick>
 800434e:	4602      	mov	r2, r0
 8004350:	693b      	ldr	r3, [r7, #16]
 8004352:	1ad3      	subs	r3, r2, r3
 8004354:	f241 3288 	movw	r2, #5000	@ 0x1388
 8004358:	4293      	cmp	r3, r2
 800435a:	d901      	bls.n	8004360 <HAL_RCC_OscConfig+0x3cc>
        {
          return HAL_TIMEOUT;
 800435c:	2303      	movs	r3, #3
 800435e:	e121      	b.n	80045a4 <HAL_RCC_OscConfig+0x610>
      while (READ_BIT(RCC->BDCR, RCC_BDCR_LSERDY) != 0U)
 8004360:	4b3a      	ldr	r3, [pc, #232]	@ (800444c <HAL_RCC_OscConfig+0x4b8>)
 8004362:	f8d3 3090 	ldr.w	r3, [r3, #144]	@ 0x90
 8004366:	f003 0302 	and.w	r3, r3, #2
 800436a:	2b00      	cmp	r3, #0
 800436c:	d1ed      	bne.n	800434a <HAL_RCC_OscConfig+0x3b6>
        }
      }
    }

    /* Restore clock configuration if changed */
    if (pwrclkchanged == SET)
 800436e:	7ffb      	ldrb	r3, [r7, #31]
 8004370:	2b01      	cmp	r3, #1
 8004372:	d105      	bne.n	8004380 <HAL_RCC_OscConfig+0x3ec>
    {
      __HAL_RCC_PWR_CLK_DISABLE();
 8004374:	4b35      	ldr	r3, [pc, #212]	@ (800444c <HAL_RCC_OscConfig+0x4b8>)
 8004376:	6d9b      	ldr	r3, [r3, #88]	@ 0x58
 8004378:	4a34      	ldr	r2, [pc, #208]	@ (800444c <HAL_RCC_OscConfig+0x4b8>)
 800437a:	f023 5380 	bic.w	r3, r3, #268435456	@ 0x10000000
 800437e:	6593      	str	r3, [r2, #88]	@ 0x58
    }
  }

  /*------------------------------ HSI48 Configuration -----------------------*/
  if(((RCC_OscInitStruct->OscillatorType) & RCC_OSCILLATORTYPE_HSI48) == RCC_OSCILLATORTYPE_HSI48)
 8004380:	687b      	ldr	r3, [r7, #4]
 8004382:	681b      	ldr	r3, [r3, #0]
 8004384:	f003 0320 	and.w	r3, r3, #32
 8004388:	2b00      	cmp	r3, #0
 800438a:	d03c      	beq.n	8004406 <HAL_RCC_OscConfig+0x472>
  {
    /* Check the parameters */
    assert_param(IS_RCC_HSI48(RCC_OscInitStruct->HSI48State));

    /* Check the HSI48 State */
    if(RCC_OscInitStruct->HSI48State != RCC_HSI48_OFF)
 800438c:	687b      	ldr	r3, [r7, #4]
 800438e:	699b      	ldr	r3, [r3, #24]
 8004390:	2b00      	cmp	r3, #0
 8004392:	d01c      	beq.n	80043ce <HAL_RCC_OscConfig+0x43a>
    {
      /* Enable the Internal Low Speed oscillator (HSI48). */
      __HAL_RCC_HSI48_ENABLE();
 8004394:	4b2d      	ldr	r3, [pc, #180]	@ (800444c <HAL_RCC_OscConfig+0x4b8>)
 8004396:	f8d3 3098 	ldr.w	r3, [r3, #152]	@ 0x98
 800439a:	4a2c      	ldr	r2, [pc, #176]	@ (800444c <HAL_RCC_OscConfig+0x4b8>)
 800439c:	f043 0301 	orr.w	r3, r3, #1
 80043a0:	f8c2 3098 	str.w	r3, [r2, #152]	@ 0x98

      /* Get Start Tick*/
      tickstart = HAL_GetTick();
 80043a4:	f7fc feb2 	bl	800110c <HAL_GetTick>
 80043a8:	6138      	str	r0, [r7, #16]

      /* Wait till HSI48 is ready */
      while(READ_BIT(RCC->CRRCR, RCC_CRRCR_HSI48RDY) == 0U)
 80043aa:	e008      	b.n	80043be <HAL_RCC_OscConfig+0x42a>
      {
        if((HAL_GetTick() - tickstart) > HSI48_TIMEOUT_VALUE)
 80043ac:	f7fc feae 	bl	800110c <HAL_GetTick>
 80043b0:	4602      	mov	r2, r0
 80043b2:	693b      	ldr	r3, [r7, #16]
 80043b4:	1ad3      	subs	r3, r2, r3
 80043b6:	2b02      	cmp	r3, #2
 80043b8:	d901      	bls.n	80043be <HAL_RCC_OscConfig+0x42a>
        {
          return HAL_TIMEOUT;
 80043ba:	2303      	movs	r3, #3
 80043bc:	e0f2      	b.n	80045a4 <HAL_RCC_OscConfig+0x610>
      while(READ_BIT(RCC->CRRCR, RCC_CRRCR_HSI48RDY) == 0U)
 80043be:	4b23      	ldr	r3, [pc, #140]	@ (800444c <HAL_RCC_OscConfig+0x4b8>)
 80043c0:	f8d3 3098 	ldr.w	r3, [r3, #152]	@ 0x98
 80043c4:	f003 0302 	and.w	r3, r3, #2
 80043c8:	2b00      	cmp	r3, #0
 80043ca:	d0ef      	beq.n	80043ac <HAL_RCC_OscConfig+0x418>
 80043cc:	e01b      	b.n	8004406 <HAL_RCC_OscConfig+0x472>
      }
    }
    else
    {
      /* Disable the Internal Low Speed oscillator (HSI48). */
      __HAL_RCC_HSI48_DISABLE();
 80043ce:	4b1f      	ldr	r3, [pc, #124]	@ (800444c <HAL_RCC_OscConfig+0x4b8>)
 80043d0:	f8d3 3098 	ldr.w	r3, [r3, #152]	@ 0x98
 80043d4:	4a1d      	ldr	r2, [pc, #116]	@ (800444c <HAL_RCC_OscConfig+0x4b8>)
 80043d6:	f023 0301 	bic.w	r3, r3, #1
 80043da:	f8c2 3098 	str.w	r3, [r2, #152]	@ 0x98

      /* Get Start Tick*/
      tickstart = HAL_GetTick();
 80043de:	f7fc fe95 	bl	800110c <HAL_GetTick>
 80043e2:	6138      	str	r0, [r7, #16]

      /* Wait till HSI48 is disabled */
      while(READ_BIT(RCC->CRRCR, RCC_CRRCR_HSI48RDY) != 0U)
 80043e4:	e008      	b.n	80043f8 <HAL_RCC_OscConfig+0x464>
      {
        if((HAL_GetTick() - tickstart) > HSI48_TIMEOUT_VALUE)
 80043e6:	f7fc fe91 	bl	800110c <HAL_GetTick>
 80043ea:	4602      	mov	r2, r0
 80043ec:	693b      	ldr	r3, [r7, #16]
 80043ee:	1ad3      	subs	r3, r2, r3
 80043f0:	2b02      	cmp	r3, #2
 80043f2:	d901      	bls.n	80043f8 <HAL_RCC_OscConfig+0x464>
        {
          return HAL_TIMEOUT;
 80043f4:	2303      	movs	r3, #3
 80043f6:	e0d5      	b.n	80045a4 <HAL_RCC_OscConfig+0x610>
      while(READ_BIT(RCC->CRRCR, RCC_CRRCR_HSI48RDY) != 0U)
 80043f8:	4b14      	ldr	r3, [pc, #80]	@ (800444c <HAL_RCC_OscConfig+0x4b8>)
 80043fa:	f8d3 3098 	ldr.w	r3, [r3, #152]	@ 0x98
 80043fe:	f003 0302 	and.w	r3, r3, #2
 8004402:	2b00      	cmp	r3, #0
 8004404:	d1ef      	bne.n	80043e6 <HAL_RCC_OscConfig+0x452>

  /*-------------------------------- PLL Configuration -----------------------*/
  /* Check the parameters */
  assert_param(IS_RCC_PLL(RCC_OscInitStruct->PLL.PLLState));

  if (RCC_OscInitStruct->PLL.PLLState != RCC_PLL_NONE)
 8004406:	687b      	ldr	r3, [r7, #4]
 8004408:	69db      	ldr	r3, [r3, #28]
 800440a:	2b00      	cmp	r3, #0
 800440c:	f000 80c9 	beq.w	80045a2 <HAL_RCC_OscConfig+0x60e>
  {
    /* Check if the PLL is used as system clock or not */
    if (__HAL_RCC_GET_SYSCLK_SOURCE() != RCC_CFGR_SWS_PLL)
 8004410:	4b0e      	ldr	r3, [pc, #56]	@ (800444c <HAL_RCC_OscConfig+0x4b8>)
 8004412:	689b      	ldr	r3, [r3, #8]
 8004414:	f003 030c 	and.w	r3, r3, #12
 8004418:	2b0c      	cmp	r3, #12
 800441a:	f000 8083 	beq.w	8004524 <HAL_RCC_OscConfig+0x590>
    {
      if (RCC_OscInitStruct->PLL.PLLState == RCC_PLL_ON)
 800441e:	687b      	ldr	r3, [r7, #4]
 8004420:	69db      	ldr	r3, [r3, #28]
 8004422:	2b02      	cmp	r3, #2
 8004424:	d15e      	bne.n	80044e4 <HAL_RCC_OscConfig+0x550>
        assert_param(IS_RCC_PLLP_VALUE(RCC_OscInitStruct->PLL.PLLP));
        assert_param(IS_RCC_PLLQ_VALUE(RCC_OscInitStruct->PLL.PLLQ));
        assert_param(IS_RCC_PLLR_VALUE(RCC_OscInitStruct->PLL.PLLR));

        /* Disable the main PLL. */
        __HAL_RCC_PLL_DISABLE();
 8004426:	4b09      	ldr	r3, [pc, #36]	@ (800444c <HAL_RCC_OscConfig+0x4b8>)
 8004428:	681b      	ldr	r3, [r3, #0]
 800442a:	4a08      	ldr	r2, [pc, #32]	@ (800444c <HAL_RCC_OscConfig+0x4b8>)
 800442c:	f023 7380 	bic.w	r3, r3, #16777216	@ 0x1000000
 8004430:	6013      	str	r3, [r2, #0]

        /* Get Start Tick*/
        tickstart = HAL_GetTick();
 8004432:	f7fc fe6b 	bl	800110c <HAL_GetTick>
 8004436:	6138      	str	r0, [r7, #16]

        /* Wait till PLL is disabled */
        while (READ_BIT(RCC->CR, RCC_CR_PLLRDY) != 0U)
 8004438:	e00c      	b.n	8004454 <HAL_RCC_OscConfig+0x4c0>
        {
          if ((HAL_GetTick() - tickstart) > PLL_TIMEOUT_VALUE)
 800443a:	f7fc fe67 	bl	800110c <HAL_GetTick>
 800443e:	4602      	mov	r2, r0
 8004440:	693b      	ldr	r3, [r7, #16]
 8004442:	1ad3      	subs	r3, r2, r3
 8004444:	2b02      	cmp	r3, #2
 8004446:	d905      	bls.n	8004454 <HAL_RCC_OscConfig+0x4c0>
          {
            return HAL_TIMEOUT;
 8004448:	2303      	movs	r3, #3
 800444a:	e0ab      	b.n	80045a4 <HAL_RCC_OscConfig+0x610>
 800444c:	40021000 	.word	0x40021000
 8004450:	40007000 	.word	0x40007000
        while (READ_BIT(RCC->CR, RCC_CR_PLLRDY) != 0U)
 8004454:	4b55      	ldr	r3, [pc, #340]	@ (80045ac <HAL_RCC_OscConfig+0x618>)
 8004456:	681b      	ldr	r3, [r3, #0]
 8004458:	f003 7300 	and.w	r3, r3, #33554432	@ 0x2000000
 800445c:	2b00      	cmp	r3, #0
 800445e:	d1ec      	bne.n	800443a <HAL_RCC_OscConfig+0x4a6>
          }
        }

        /* Configure the main PLL clock source, multiplication and division factors. */
        __HAL_RCC_PLL_CONFIG(RCC_OscInitStruct->PLL.PLLSource,
 8004460:	4b52      	ldr	r3, [pc, #328]	@ (80045ac <HAL_RCC_OscConfig+0x618>)
 8004462:	68da      	ldr	r2, [r3, #12]
 8004464:	4b52      	ldr	r3, [pc, #328]	@ (80045b0 <HAL_RCC_OscConfig+0x61c>)
 8004466:	4013      	ands	r3, r2
 8004468:	687a      	ldr	r2, [r7, #4]
 800446a:	6a11      	ldr	r1, [r2, #32]
 800446c:	687a      	ldr	r2, [r7, #4]
 800446e:	6a52      	ldr	r2, [r2, #36]	@ 0x24
 8004470:	3a01      	subs	r2, #1
 8004472:	0112      	lsls	r2, r2, #4
 8004474:	4311      	orrs	r1, r2
 8004476:	687a      	ldr	r2, [r7, #4]
 8004478:	6a92      	ldr	r2, [r2, #40]	@ 0x28
 800447a:	0212      	lsls	r2, r2, #8
 800447c:	4311      	orrs	r1, r2
 800447e:	687a      	ldr	r2, [r7, #4]
 8004480:	6b12      	ldr	r2, [r2, #48]	@ 0x30
 8004482:	0852      	lsrs	r2, r2, #1
 8004484:	3a01      	subs	r2, #1
 8004486:	0552      	lsls	r2, r2, #21
 8004488:	4311      	orrs	r1, r2
 800448a:	687a      	ldr	r2, [r7, #4]
 800448c:	6b52      	ldr	r2, [r2, #52]	@ 0x34
 800448e:	0852      	lsrs	r2, r2, #1
 8004490:	3a01      	subs	r2, #1
 8004492:	0652      	lsls	r2, r2, #25
 8004494:	4311      	orrs	r1, r2
 8004496:	687a      	ldr	r2, [r7, #4]
 8004498:	6ad2      	ldr	r2, [r2, #44]	@ 0x2c
 800449a:	06d2      	lsls	r2, r2, #27
 800449c:	430a      	orrs	r2, r1
 800449e:	4943      	ldr	r1, [pc, #268]	@ (80045ac <HAL_RCC_OscConfig+0x618>)
 80044a0:	4313      	orrs	r3, r2
 80044a2:	60cb      	str	r3, [r1, #12]
                             RCC_OscInitStruct->PLL.PLLP,
                             RCC_OscInitStruct->PLL.PLLQ,
                             RCC_OscInitStruct->PLL.PLLR);

        /* Enable the main PLL. */
        __HAL_RCC_PLL_ENABLE();
 80044a4:	4b41      	ldr	r3, [pc, #260]	@ (80045ac <HAL_RCC_OscConfig+0x618>)
 80044a6:	681b      	ldr	r3, [r3, #0]
 80044a8:	4a40      	ldr	r2, [pc, #256]	@ (80045ac <HAL_RCC_OscConfig+0x618>)
 80044aa:	f043 7380 	orr.w	r3, r3, #16777216	@ 0x1000000
 80044ae:	6013      	str	r3, [r2, #0]

        /* Enable PLL System Clock output. */
         __HAL_RCC_PLLCLKOUT_ENABLE(RCC_PLL_SYSCLK);
 80044b0:	4b3e      	ldr	r3, [pc, #248]	@ (80045ac <HAL_RCC_OscConfig+0x618>)
 80044b2:	68db      	ldr	r3, [r3, #12]
 80044b4:	4a3d      	ldr	r2, [pc, #244]	@ (80045ac <HAL_RCC_OscConfig+0x618>)
 80044b6:	f043 7380 	orr.w	r3, r3, #16777216	@ 0x1000000
 80044ba:	60d3      	str	r3, [r2, #12]

        /* Get Start Tick*/
        tickstart = HAL_GetTick();
 80044bc:	f7fc fe26 	bl	800110c <HAL_GetTick>
 80044c0:	6138      	str	r0, [r7, #16]

        /* Wait till PLL is ready */
        while (READ_BIT(RCC->CR, RCC_CR_PLLRDY) == 0U)
 80044c2:	e008      	b.n	80044d6 <HAL_RCC_OscConfig+0x542>
        {
          if ((HAL_GetTick() - tickstart) > PLL_TIMEOUT_VALUE)
 80044c4:	f7fc fe22 	bl	800110c <HAL_GetTick>
 80044c8:	4602      	mov	r2, r0
 80044ca:	693b      	ldr	r3, [r7, #16]
 80044cc:	1ad3      	subs	r3, r2, r3
 80044ce:	2b02      	cmp	r3, #2
 80044d0:	d901      	bls.n	80044d6 <HAL_RCC_OscConfig+0x542>
          {
            return HAL_TIMEOUT;
 80044d2:	2303      	movs	r3, #3
 80044d4:	e066      	b.n	80045a4 <HAL_RCC_OscConfig+0x610>
        while (READ_BIT(RCC->CR, RCC_CR_PLLRDY) == 0U)
 80044d6:	4b35      	ldr	r3, [pc, #212]	@ (80045ac <HAL_RCC_OscConfig+0x618>)
 80044d8:	681b      	ldr	r3, [r3, #0]
 80044da:	f003 7300 	and.w	r3, r3, #33554432	@ 0x2000000
 80044de:	2b00      	cmp	r3, #0
 80044e0:	d0f0      	beq.n	80044c4 <HAL_RCC_OscConfig+0x530>
 80044e2:	e05e      	b.n	80045a2 <HAL_RCC_OscConfig+0x60e>
        }
      }
      else
      {
        /* Disable the main PLL. */
        __HAL_RCC_PLL_DISABLE();
 80044e4:	4b31      	ldr	r3, [pc, #196]	@ (80045ac <HAL_RCC_OscConfig+0x618>)
 80044e6:	681b      	ldr	r3, [r3, #0]
 80044e8:	4a30      	ldr	r2, [pc, #192]	@ (80045ac <HAL_RCC_OscConfig+0x618>)
 80044ea:	f023 7380 	bic.w	r3, r3, #16777216	@ 0x1000000
 80044ee:	6013      	str	r3, [r2, #0]

        /* Get Start Tick*/
        tickstart = HAL_GetTick();
 80044f0:	f7fc fe0c 	bl	800110c <HAL_GetTick>
 80044f4:	6138      	str	r0, [r7, #16]

        /* Wait till PLL is disabled */
        while (READ_BIT(RCC->CR, RCC_CR_PLLRDY) != 0U)
 80044f6:	e008      	b.n	800450a <HAL_RCC_OscConfig+0x576>
        {
          if ((HAL_GetTick() - tickstart) > PLL_TIMEOUT_VALUE)
 80044f8:	f7fc fe08 	bl	800110c <HAL_GetTick>
 80044fc:	4602      	mov	r2, r0
 80044fe:	693b      	ldr	r3, [r7, #16]
 8004500:	1ad3      	subs	r3, r2, r3
 8004502:	2b02      	cmp	r3, #2
 8004504:	d901      	bls.n	800450a <HAL_RCC_OscConfig+0x576>
          {
            return HAL_TIMEOUT;
 8004506:	2303      	movs	r3, #3
 8004508:	e04c      	b.n	80045a4 <HAL_RCC_OscConfig+0x610>
        while (READ_BIT(RCC->CR, RCC_CR_PLLRDY) != 0U)
 800450a:	4b28      	ldr	r3, [pc, #160]	@ (80045ac <HAL_RCC_OscConfig+0x618>)
 800450c:	681b      	ldr	r3, [r3, #0]
 800450e:	f003 7300 	and.w	r3, r3, #33554432	@ 0x2000000
 8004512:	2b00      	cmp	r3, #0
 8004514:	d1f0      	bne.n	80044f8 <HAL_RCC_OscConfig+0x564>
          }
        }

        /* Unselect PLL clock source and disable outputs to save power */
        RCC->PLLCFGR &= ~(RCC_PLLCFGR_PLLSRC | RCC_PLL_SYSCLK | RCC_PLL_48M1CLK | RCC_PLL_ADCCLK);
 8004516:	4b25      	ldr	r3, [pc, #148]	@ (80045ac <HAL_RCC_OscConfig+0x618>)
 8004518:	68da      	ldr	r2, [r3, #12]
 800451a:	4924      	ldr	r1, [pc, #144]	@ (80045ac <HAL_RCC_OscConfig+0x618>)
 800451c:	4b25      	ldr	r3, [pc, #148]	@ (80045b4 <HAL_RCC_OscConfig+0x620>)
 800451e:	4013      	ands	r3, r2
 8004520:	60cb      	str	r3, [r1, #12]
 8004522:	e03e      	b.n	80045a2 <HAL_RCC_OscConfig+0x60e>
      }
    }
    else
    {
      /* Check if there is a request to disable the PLL used as System clock source */
      if((RCC_OscInitStruct->PLL.PLLState) == RCC_PLL_OFF)
 8004524:	687b      	ldr	r3, [r7, #4]
 8004526:	69db      	ldr	r3, [r3, #28]
 8004528:	2b01      	cmp	r3, #1
 800452a:	d101      	bne.n	8004530 <HAL_RCC_OscConfig+0x59c>
      {
        return HAL_ERROR;
 800452c:	2301      	movs	r3, #1
 800452e:	e039      	b.n	80045a4 <HAL_RCC_OscConfig+0x610>
      }
      else
      {
      /* Do not return HAL_ERROR if request repeats the current configuration */
      temp_pllckcfg = RCC->PLLCFGR;
 8004530:	4b1e      	ldr	r3, [pc, #120]	@ (80045ac <HAL_RCC_OscConfig+0x618>)
 8004532:	68db      	ldr	r3, [r3, #12]
 8004534:	617b      	str	r3, [r7, #20]
      if((READ_BIT(temp_pllckcfg, RCC_PLLCFGR_PLLSRC) != RCC_OscInitStruct->PLL.PLLSource) ||
 8004536:	697b      	ldr	r3, [r7, #20]
 8004538:	f003 0203 	and.w	r2, r3, #3
 800453c:	687b      	ldr	r3, [r7, #4]
 800453e:	6a1b      	ldr	r3, [r3, #32]
 8004540:	429a      	cmp	r2, r3
 8004542:	d12c      	bne.n	800459e <HAL_RCC_OscConfig+0x60a>
         (READ_BIT(temp_pllckcfg, RCC_PLLCFGR_PLLM) != (((RCC_OscInitStruct->PLL.PLLM) - 1U) << RCC_PLLCFGR_PLLM_Pos)) ||
 8004544:	697b      	ldr	r3, [r7, #20]
 8004546:	f003 02f0 	and.w	r2, r3, #240	@ 0xf0
 800454a:	687b      	ldr	r3, [r7, #4]
 800454c:	6a5b      	ldr	r3, [r3, #36]	@ 0x24
 800454e:	3b01      	subs	r3, #1
 8004550:	011b      	lsls	r3, r3, #4
      if((READ_BIT(temp_pllckcfg, RCC_PLLCFGR_PLLSRC) != RCC_OscInitStruct->PLL.PLLSource) ||
 8004552:	429a      	cmp	r2, r3
 8004554:	d123      	bne.n	800459e <HAL_RCC_OscConfig+0x60a>
         (READ_BIT(temp_pllckcfg, RCC_PLLCFGR_PLLN) != ((RCC_OscInitStruct->PLL.PLLN) << RCC_PLLCFGR_PLLN_Pos)) ||
 8004556:	697b      	ldr	r3, [r7, #20]
 8004558:	f403 42fe 	and.w	r2, r3, #32512	@ 0x7f00
 800455c:	687b      	ldr	r3, [r7, #4]
 800455e:	6a9b      	ldr	r3, [r3, #40]	@ 0x28
 8004560:	021b      	lsls	r3, r3, #8
         (READ_BIT(temp_pllckcfg, RCC_PLLCFGR_PLLM) != (((RCC_OscInitStruct->PLL.PLLM) - 1U) << RCC_PLLCFGR_PLLM_Pos)) ||
 8004562:	429a      	cmp	r2, r3
 8004564:	d11b      	bne.n	800459e <HAL_RCC_OscConfig+0x60a>
         (READ_BIT(temp_pllckcfg, RCC_PLLCFGR_PLLPDIV) != ((RCC_OscInitStruct->PLL.PLLP) << RCC_PLLCFGR_PLLPDIV_Pos)) ||
 8004566:	697b      	ldr	r3, [r7, #20]
 8004568:	f003 4278 	and.w	r2, r3, #4160749568	@ 0xf8000000
 800456c:	687b      	ldr	r3, [r7, #4]
 800456e:	6adb      	ldr	r3, [r3, #44]	@ 0x2c
 8004570:	06db      	lsls	r3, r3, #27
         (READ_BIT(temp_pllckcfg, RCC_PLLCFGR_PLLN) != ((RCC_OscInitStruct->PLL.PLLN) << RCC_PLLCFGR_PLLN_Pos)) ||
 8004572:	429a      	cmp	r2, r3
 8004574:	d113      	bne.n	800459e <HAL_RCC_OscConfig+0x60a>
         (READ_BIT(temp_pllckcfg, RCC_PLLCFGR_PLLQ) != ((((RCC_OscInitStruct->PLL.PLLQ) >> 1U) - 1U) << RCC_PLLCFGR_PLLQ_Pos)) ||
 8004576:	697b      	ldr	r3, [r7, #20]
 8004578:	f403 02c0 	and.w	r2, r3, #6291456	@ 0x600000
 800457c:	687b      	ldr	r3, [r7, #4]
 800457e:	6b1b      	ldr	r3, [r3, #48]	@ 0x30
 8004580:	085b      	lsrs	r3, r3, #1
 8004582:	3b01      	subs	r3, #1
 8004584:	055b      	lsls	r3, r3, #21
         (READ_BIT(temp_pllckcfg, RCC_PLLCFGR_PLLPDIV) != ((RCC_OscInitStruct->PLL.PLLP) << RCC_PLLCFGR_PLLPDIV_Pos)) ||
 8004586:	429a      	cmp	r2, r3
 8004588:	d109      	bne.n	800459e <HAL_RCC_OscConfig+0x60a>
         (READ_BIT(temp_pllckcfg, RCC_PLLCFGR_PLLR) != ((((RCC_OscInitStruct->PLL.PLLR) >> 1U) - 1U) << RCC_PLLCFGR_PLLR_Pos)))
 800458a:	697b      	ldr	r3, [r7, #20]
 800458c:	f003 62c0 	and.w	r2, r3, #100663296	@ 0x6000000
 8004590:	687b      	ldr	r3, [r7, #4]
 8004592:	6b5b      	ldr	r3, [r3, #52]	@ 0x34
 8004594:	085b      	lsrs	r3, r3, #1
 8004596:	3b01      	subs	r3, #1
 8004598:	065b      	lsls	r3, r3, #25
         (READ_BIT(temp_pllckcfg, RCC_PLLCFGR_PLLQ) != ((((RCC_OscInitStruct->PLL.PLLQ) >> 1U) - 1U) << RCC_PLLCFGR_PLLQ_Pos)) ||
 800459a:	429a      	cmp	r2, r3
 800459c:	d001      	beq.n	80045a2 <HAL_RCC_OscConfig+0x60e>
      {
        return HAL_ERROR;
 800459e:	2301      	movs	r3, #1
 80045a0:	e000      	b.n	80045a4 <HAL_RCC_OscConfig+0x610>
      }
    }
  }
  }

  return HAL_OK;
 80045a2:	2300      	movs	r3, #0
}
 80045a4:	4618      	mov	r0, r3
 80045a6:	3720      	adds	r7, #32
 80045a8:	46bd      	mov	sp, r7
 80045aa:	bd80      	pop	{r7, pc}
 80045ac:	40021000 	.word	0x40021000
 80045b0:	019f800c 	.word	0x019f800c
 80045b4:	feeefffc 	.word	0xfeeefffc

080045b8 <HAL_RCC_ClockConfig>:
  *         HPRE[3:0] bits to ensure that HCLK not exceed the maximum allowed frequency
  *         (for more details refer to section above "Initialization/de-initialization functions")
  * @retval None
  */
HAL_StatusTypeDef HAL_RCC_ClockConfig(RCC_ClkInitTypeDef  *RCC_ClkInitStruct, uint32_t FLatency)
{
 80045b8:	b580      	push	{r7, lr}
 80045ba:	b086      	sub	sp, #24
 80045bc:	af00      	add	r7, sp, #0
 80045be:	6078      	str	r0, [r7, #4]
 80045c0:	6039      	str	r1, [r7, #0]
  uint32_t tickstart;
  uint32_t pllfreq;
  uint32_t hpre = RCC_SYSCLK_DIV1;
 80045c2:	2300      	movs	r3, #0
 80045c4:	617b      	str	r3, [r7, #20]

  /* Check Null pointer */
  if (RCC_ClkInitStruct == NULL)
 80045c6:	687b      	ldr	r3, [r7, #4]
 80045c8:	2b00      	cmp	r3, #0
 80045ca:	d101      	bne.n	80045d0 <HAL_RCC_ClockConfig+0x18>
  {
    return HAL_ERROR;
 80045cc:	2301      	movs	r3, #1
 80045ce:	e11e      	b.n	800480e <HAL_RCC_ClockConfig+0x256>
  /* To correctly read data from FLASH memory, the number of wait states (LATENCY)
    must be correctly programmed according to the frequency of the CPU clock
    (HCLK) and the supply voltage of the device. */

  /* Increasing the number of wait states because of higher CPU frequency */
  if (FLatency > __HAL_FLASH_GET_LATENCY())
 80045d0:	4b91      	ldr	r3, [pc, #580]	@ (8004818 <HAL_RCC_ClockConfig+0x260>)
 80045d2:	681b      	ldr	r3, [r3, #0]
 80045d4:	f003 030f 	and.w	r3, r3, #15
 80045d8:	683a      	ldr	r2, [r7, #0]
 80045da:	429a      	cmp	r2, r3
 80045dc:	d910      	bls.n	8004600 <HAL_RCC_ClockConfig+0x48>
  {
    /* Program the new number of wait states to the LATENCY bits in the FLASH_ACR register */
    __HAL_FLASH_SET_LATENCY(FLatency);
 80045de:	4b8e      	ldr	r3, [pc, #568]	@ (8004818 <HAL_RCC_ClockConfig+0x260>)
 80045e0:	681b      	ldr	r3, [r3, #0]
 80045e2:	f023 020f 	bic.w	r2, r3, #15
 80045e6:	498c      	ldr	r1, [pc, #560]	@ (8004818 <HAL_RCC_ClockConfig+0x260>)
 80045e8:	683b      	ldr	r3, [r7, #0]
 80045ea:	4313      	orrs	r3, r2
 80045ec:	600b      	str	r3, [r1, #0]

    /* Check that the new number of wait states is taken into account to access the Flash
    memory by reading the FLASH_ACR register */
    if (__HAL_FLASH_GET_LATENCY() != FLatency)
 80045ee:	4b8a      	ldr	r3, [pc, #552]	@ (8004818 <HAL_RCC_ClockConfig+0x260>)
 80045f0:	681b      	ldr	r3, [r3, #0]
 80045f2:	f003 030f 	and.w	r3, r3, #15
 80045f6:	683a      	ldr	r2, [r7, #0]
 80045f8:	429a      	cmp	r2, r3
 80045fa:	d001      	beq.n	8004600 <HAL_RCC_ClockConfig+0x48>
    {
      return HAL_ERROR;
 80045fc:	2301      	movs	r3, #1
 80045fe:	e106      	b.n	800480e <HAL_RCC_ClockConfig+0x256>
    }
  }

  /*------------------------- SYSCLK Configuration ---------------------------*/
  if(((RCC_ClkInitStruct->ClockType) & RCC_CLOCKTYPE_SYSCLK) == RCC_CLOCKTYPE_SYSCLK)
 8004600:	687b      	ldr	r3, [r7, #4]
 8004602:	681b      	ldr	r3, [r3, #0]
 8004604:	f003 0301 	and.w	r3, r3, #1
 8004608:	2b00      	cmp	r3, #0
 800460a:	d073      	beq.n	80046f4 <HAL_RCC_ClockConfig+0x13c>
  {
    assert_param(IS_RCC_SYSCLKSOURCE(RCC_ClkInitStruct->SYSCLKSource));

    /* PLL is selected as System Clock Source */
    if (RCC_ClkInitStruct->SYSCLKSource == RCC_SYSCLKSOURCE_PLLCLK)
 800460c:	687b      	ldr	r3, [r7, #4]
 800460e:	685b      	ldr	r3, [r3, #4]
 8004610:	2b03      	cmp	r3, #3
 8004612:	d129      	bne.n	8004668 <HAL_RCC_ClockConfig+0xb0>
    {
      /* Check the PLL ready flag */
      if (READ_BIT(RCC->CR, RCC_CR_PLLRDY) == 0U)
 8004614:	4b81      	ldr	r3, [pc, #516]	@ (800481c <HAL_RCC_ClockConfig+0x264>)
 8004616:	681b      	ldr	r3, [r3, #0]
 8004618:	f003 7300 	and.w	r3, r3, #33554432	@ 0x2000000
 800461c:	2b00      	cmp	r3, #0
 800461e:	d101      	bne.n	8004624 <HAL_RCC_ClockConfig+0x6c>
      {
        return HAL_ERROR;
 8004620:	2301      	movs	r3, #1
 8004622:	e0f4      	b.n	800480e <HAL_RCC_ClockConfig+0x256>
      }
      /* Undershoot management when selection PLL as SYSCLK source and frequency above 80Mhz */
      /* Compute target PLL output frequency */
      pllfreq = RCC_GetSysClockFreqFromPLLSource();
 8004624:	f000 f99e 	bl	8004964 <RCC_GetSysClockFreqFromPLLSource>
 8004628:	6138      	str	r0, [r7, #16]

      /* Intermediate step with HCLK prescaler 2 necessary before to go over 80Mhz */
      if(pllfreq > 80000000U)
 800462a:	693b      	ldr	r3, [r7, #16]
 800462c:	4a7c      	ldr	r2, [pc, #496]	@ (8004820 <HAL_RCC_ClockConfig+0x268>)
 800462e:	4293      	cmp	r3, r2
 8004630:	d93f      	bls.n	80046b2 <HAL_RCC_ClockConfig+0xfa>
      {
        if (((READ_BIT(RCC->CFGR, RCC_CFGR_HPRE) == RCC_SYSCLK_DIV1)) ||
 8004632:	4b7a      	ldr	r3, [pc, #488]	@ (800481c <HAL_RCC_ClockConfig+0x264>)
 8004634:	689b      	ldr	r3, [r3, #8]
 8004636:	f003 03f0 	and.w	r3, r3, #240	@ 0xf0
 800463a:	2b00      	cmp	r3, #0
 800463c:	d009      	beq.n	8004652 <HAL_RCC_ClockConfig+0x9a>
            (((((RCC_ClkInitStruct->ClockType) & RCC_CLOCKTYPE_HCLK) == RCC_CLOCKTYPE_HCLK) &&
 800463e:	687b      	ldr	r3, [r7, #4]
 8004640:	681b      	ldr	r3, [r3, #0]
 8004642:	f003 0302 	and.w	r3, r3, #2
        if (((READ_BIT(RCC->CFGR, RCC_CFGR_HPRE) == RCC_SYSCLK_DIV1)) ||
 8004646:	2b00      	cmp	r3, #0
 8004648:	d033      	beq.n	80046b2 <HAL_RCC_ClockConfig+0xfa>
              (RCC_ClkInitStruct->AHBCLKDivider == RCC_SYSCLK_DIV1))))
 800464a:	687b      	ldr	r3, [r7, #4]
 800464c:	689b      	ldr	r3, [r3, #8]
            (((((RCC_ClkInitStruct->ClockType) & RCC_CLOCKTYPE_HCLK) == RCC_CLOCKTYPE_HCLK) &&
 800464e:	2b00      	cmp	r3, #0
 8004650:	d12f      	bne.n	80046b2 <HAL_RCC_ClockConfig+0xfa>
        {
          MODIFY_REG(RCC->CFGR, RCC_CFGR_HPRE, RCC_SYSCLK_DIV2);
 8004652:	4b72      	ldr	r3, [pc, #456]	@ (800481c <HAL_RCC_ClockConfig+0x264>)
 8004654:	689b      	ldr	r3, [r3, #8]
 8004656:	f023 03f0 	bic.w	r3, r3, #240	@ 0xf0
 800465a:	4a70      	ldr	r2, [pc, #448]	@ (800481c <HAL_RCC_ClockConfig+0x264>)
 800465c:	f043 0380 	orr.w	r3, r3, #128	@ 0x80
 8004660:	6093      	str	r3, [r2, #8]
          hpre = RCC_SYSCLK_DIV2;
 8004662:	2380      	movs	r3, #128	@ 0x80
 8004664:	617b      	str	r3, [r7, #20]
 8004666:	e024      	b.n	80046b2 <HAL_RCC_ClockConfig+0xfa>
      }
    }
    else
    {
      /* HSE is selected as System Clock Source */
      if (RCC_ClkInitStruct->SYSCLKSource == RCC_SYSCLKSOURCE_HSE)
 8004668:	687b      	ldr	r3, [r7, #4]
 800466a:	685b      	ldr	r3, [r3, #4]
 800466c:	2b02      	cmp	r3, #2
 800466e:	d107      	bne.n	8004680 <HAL_RCC_ClockConfig+0xc8>
      {
        /* Check the HSE ready flag */
        if(READ_BIT(RCC->CR, RCC_CR_HSERDY) == 0U)
 8004670:	4b6a      	ldr	r3, [pc, #424]	@ (800481c <HAL_RCC_ClockConfig+0x264>)
 8004672:	681b      	ldr	r3, [r3, #0]
 8004674:	f403 3300 	and.w	r3, r3, #131072	@ 0x20000
 8004678:	2b00      	cmp	r3, #0
 800467a:	d109      	bne.n	8004690 <HAL_RCC_ClockConfig+0xd8>
        {
          return HAL_ERROR;
 800467c:	2301      	movs	r3, #1
 800467e:	e0c6      	b.n	800480e <HAL_RCC_ClockConfig+0x256>
      }
      /* HSI is selected as System Clock Source */
      else
      {
        /* Check the HSI ready flag */
        if(READ_BIT(RCC->CR, RCC_CR_HSIRDY) == 0U)
 8004680:	4b66      	ldr	r3, [pc, #408]	@ (800481c <HAL_RCC_ClockConfig+0x264>)
 8004682:	681b      	ldr	r3, [r3, #0]
 8004684:	f403 6380 	and.w	r3, r3, #1024	@ 0x400
 8004688:	2b00      	cmp	r3, #0
 800468a:	d101      	bne.n	8004690 <HAL_RCC_ClockConfig+0xd8>
        {
          return HAL_ERROR;
 800468c:	2301      	movs	r3, #1
 800468e:	e0be      	b.n	800480e <HAL_RCC_ClockConfig+0x256>
        }
      }
      /* Overshoot management when going down from PLL as SYSCLK source and frequency above 80Mhz */
      pllfreq = HAL_RCC_GetSysClockFreq();
 8004690:	f000 f8ce 	bl	8004830 <HAL_RCC_GetSysClockFreq>
 8004694:	6138      	str	r0, [r7, #16]

      /* Intermediate step with HCLK prescaler 2 necessary before to go under 80Mhz */
      if(pllfreq > 80000000U)
 8004696:	693b      	ldr	r3, [r7, #16]
 8004698:	4a61      	ldr	r2, [pc, #388]	@ (8004820 <HAL_RCC_ClockConfig+0x268>)
 800469a:	4293      	cmp	r3, r2
 800469c:	d909      	bls.n	80046b2 <HAL_RCC_ClockConfig+0xfa>
      {
        MODIFY_REG(RCC->CFGR, RCC_CFGR_HPRE, RCC_SYSCLK_DIV2);
 800469e:	4b5f      	ldr	r3, [pc, #380]	@ (800481c <HAL_RCC_ClockConfig+0x264>)
 80046a0:	689b      	ldr	r3, [r3, #8]
 80046a2:	f023 03f0 	bic.w	r3, r3, #240	@ 0xf0
 80046a6:	4a5d      	ldr	r2, [pc, #372]	@ (800481c <HAL_RCC_ClockConfig+0x264>)
 80046a8:	f043 0380 	orr.w	r3, r3, #128	@ 0x80
 80046ac:	6093      	str	r3, [r2, #8]
        hpre = RCC_SYSCLK_DIV2;
 80046ae:	2380      	movs	r3, #128	@ 0x80
 80046b0:	617b      	str	r3, [r7, #20]
      }

    }

    MODIFY_REG(RCC->CFGR, RCC_CFGR_SW, RCC_ClkInitStruct->SYSCLKSource);
 80046b2:	4b5a      	ldr	r3, [pc, #360]	@ (800481c <HAL_RCC_ClockConfig+0x264>)
 80046b4:	689b      	ldr	r3, [r3, #8]
 80046b6:	f023 0203 	bic.w	r2, r3, #3
 80046ba:	687b      	ldr	r3, [r7, #4]
 80046bc:	685b      	ldr	r3, [r3, #4]
 80046be:	4957      	ldr	r1, [pc, #348]	@ (800481c <HAL_RCC_ClockConfig+0x264>)
 80046c0:	4313      	orrs	r3, r2
 80046c2:	608b      	str	r3, [r1, #8]

    /* Get Start Tick*/
    tickstart = HAL_GetTick();
 80046c4:	f7fc fd22 	bl	800110c <HAL_GetTick>
 80046c8:	60f8      	str	r0, [r7, #12]

    while (__HAL_RCC_GET_SYSCLK_SOURCE() != (RCC_ClkInitStruct->SYSCLKSource << RCC_CFGR_SWS_Pos))
 80046ca:	e00a      	b.n	80046e2 <HAL_RCC_ClockConfig+0x12a>
    {
      if ((HAL_GetTick() - tickstart) > CLOCKSWITCH_TIMEOUT_VALUE)
 80046cc:	f7fc fd1e 	bl	800110c <HAL_GetTick>
 80046d0:	4602      	mov	r2, r0
 80046d2:	68fb      	ldr	r3, [r7, #12]
 80046d4:	1ad3      	subs	r3, r2, r3
 80046d6:	f241 3288 	movw	r2, #5000	@ 0x1388
 80046da:	4293      	cmp	r3, r2
 80046dc:	d901      	bls.n	80046e2 <HAL_RCC_ClockConfig+0x12a>
      {
        return HAL_TIMEOUT;
 80046de:	2303      	movs	r3, #3
 80046e0:	e095      	b.n	800480e <HAL_RCC_ClockConfig+0x256>
    while (__HAL_RCC_GET_SYSCLK_SOURCE() != (RCC_ClkInitStruct->SYSCLKSource << RCC_CFGR_SWS_Pos))
 80046e2:	4b4e      	ldr	r3, [pc, #312]	@ (800481c <HAL_RCC_ClockConfig+0x264>)
 80046e4:	689b      	ldr	r3, [r3, #8]
 80046e6:	f003 020c 	and.w	r2, r3, #12
 80046ea:	687b      	ldr	r3, [r7, #4]
 80046ec:	685b      	ldr	r3, [r3, #4]
 80046ee:	009b      	lsls	r3, r3, #2
 80046f0:	429a      	cmp	r2, r3
 80046f2:	d1eb      	bne.n	80046cc <HAL_RCC_ClockConfig+0x114>
      }
    }
  }

  /*-------------------------- HCLK Configuration --------------------------*/
  if (((RCC_ClkInitStruct->ClockType) & RCC_CLOCKTYPE_HCLK) == RCC_CLOCKTYPE_HCLK)
 80046f4:	687b      	ldr	r3, [r7, #4]
 80046f6:	681b      	ldr	r3, [r3, #0]
 80046f8:	f003 0302 	and.w	r3, r3, #2
 80046fc:	2b00      	cmp	r3, #0
 80046fe:	d023      	beq.n	8004748 <HAL_RCC_ClockConfig+0x190>
  {
    /* Set the highest APB divider in order to ensure that we do not go through
       a non-spec phase whatever we decrease or increase HCLK. */
    if (((RCC_ClkInitStruct->ClockType) & RCC_CLOCKTYPE_PCLK1) == RCC_CLOCKTYPE_PCLK1)
 8004700:	687b      	ldr	r3, [r7, #4]
 8004702:	681b      	ldr	r3, [r3, #0]
 8004704:	f003 0304 	and.w	r3, r3, #4
 8004708:	2b00      	cmp	r3, #0
 800470a:	d005      	beq.n	8004718 <HAL_RCC_ClockConfig+0x160>
    {
      MODIFY_REG(RCC->CFGR, RCC_CFGR_PPRE1, RCC_HCLK_DIV16);
 800470c:	4b43      	ldr	r3, [pc, #268]	@ (800481c <HAL_RCC_ClockConfig+0x264>)
 800470e:	689b      	ldr	r3, [r3, #8]
 8004710:	4a42      	ldr	r2, [pc, #264]	@ (800481c <HAL_RCC_ClockConfig+0x264>)
 8004712:	f443 63e0 	orr.w	r3, r3, #1792	@ 0x700
 8004716:	6093      	str	r3, [r2, #8]
    }
    if (((RCC_ClkInitStruct->ClockType) & RCC_CLOCKTYPE_PCLK2) == RCC_CLOCKTYPE_PCLK2)
 8004718:	687b      	ldr	r3, [r7, #4]
 800471a:	681b      	ldr	r3, [r3, #0]
 800471c:	f003 0308 	and.w	r3, r3, #8
 8004720:	2b00      	cmp	r3, #0
 8004722:	d007      	beq.n	8004734 <HAL_RCC_ClockConfig+0x17c>
    {
      MODIFY_REG(RCC->CFGR, RCC_CFGR_PPRE2, RCC_HCLK_DIV16);
 8004724:	4b3d      	ldr	r3, [pc, #244]	@ (800481c <HAL_RCC_ClockConfig+0x264>)
 8004726:	689b      	ldr	r3, [r3, #8]
 8004728:	f423 537c 	bic.w	r3, r3, #16128	@ 0x3f00
 800472c:	4a3b      	ldr	r2, [pc, #236]	@ (800481c <HAL_RCC_ClockConfig+0x264>)
 800472e:	f443 63e0 	orr.w	r3, r3, #1792	@ 0x700
 8004732:	6093      	str	r3, [r2, #8]
    }

    /* Set the new HCLK clock divider */
    assert_param(IS_RCC_HCLK(RCC_ClkInitStruct->AHBCLKDivider));
    MODIFY_REG(RCC->CFGR, RCC_CFGR_HPRE, RCC_ClkInitStruct->AHBCLKDivider);
 8004734:	4b39      	ldr	r3, [pc, #228]	@ (800481c <HAL_RCC_ClockConfig+0x264>)
 8004736:	689b      	ldr	r3, [r3, #8]
 8004738:	f023 02f0 	bic.w	r2, r3, #240	@ 0xf0
 800473c:	687b      	ldr	r3, [r7, #4]
 800473e:	689b      	ldr	r3, [r3, #8]
 8004740:	4936      	ldr	r1, [pc, #216]	@ (800481c <HAL_RCC_ClockConfig+0x264>)
 8004742:	4313      	orrs	r3, r2
 8004744:	608b      	str	r3, [r1, #8]
 8004746:	e008      	b.n	800475a <HAL_RCC_ClockConfig+0x1a2>
  }
  else
  {
    /* Is intermediate HCLK prescaler 2 applied internally, complete with HCLK prescaler 1 */
    if(hpre == RCC_SYSCLK_DIV2)
 8004748:	697b      	ldr	r3, [r7, #20]
 800474a:	2b80      	cmp	r3, #128	@ 0x80
 800474c:	d105      	bne.n	800475a <HAL_RCC_ClockConfig+0x1a2>
    {
      MODIFY_REG(RCC->CFGR, RCC_CFGR_HPRE, RCC_SYSCLK_DIV1);
 800474e:	4b33      	ldr	r3, [pc, #204]	@ (800481c <HAL_RCC_ClockConfig+0x264>)
 8004750:	689b      	ldr	r3, [r3, #8]
 8004752:	4a32      	ldr	r2, [pc, #200]	@ (800481c <HAL_RCC_ClockConfig+0x264>)
 8004754:	f023 03f0 	bic.w	r3, r3, #240	@ 0xf0
 8004758:	6093      	str	r3, [r2, #8]
    }
  }

  /* Decreasing the number of wait states because of lower CPU frequency */
  if (FLatency < __HAL_FLASH_GET_LATENCY())
 800475a:	4b2f      	ldr	r3, [pc, #188]	@ (8004818 <HAL_RCC_ClockConfig+0x260>)
 800475c:	681b      	ldr	r3, [r3, #0]
 800475e:	f003 030f 	and.w	r3, r3, #15
 8004762:	683a      	ldr	r2, [r7, #0]
 8004764:	429a      	cmp	r2, r3
 8004766:	d21d      	bcs.n	80047a4 <HAL_RCC_ClockConfig+0x1ec>
  {
    /* Program the new number of wait states to the LATENCY bits in the FLASH_ACR register */
    __HAL_FLASH_SET_LATENCY(FLatency);
 8004768:	4b2b      	ldr	r3, [pc, #172]	@ (8004818 <HAL_RCC_ClockConfig+0x260>)
 800476a:	681b      	ldr	r3, [r3, #0]
 800476c:	f023 020f 	bic.w	r2, r3, #15
 8004770:	4929      	ldr	r1, [pc, #164]	@ (8004818 <HAL_RCC_ClockConfig+0x260>)
 8004772:	683b      	ldr	r3, [r7, #0]
 8004774:	4313      	orrs	r3, r2
 8004776:	600b      	str	r3, [r1, #0]

    /* Check that the new number of wait states is taken into account to access the Flash
    memory by polling the FLASH_ACR register */
    tickstart = HAL_GetTick();
 8004778:	f7fc fcc8 	bl	800110c <HAL_GetTick>
 800477c:	60f8      	str	r0, [r7, #12]

    while (__HAL_FLASH_GET_LATENCY() != FLatency)
 800477e:	e00a      	b.n	8004796 <HAL_RCC_ClockConfig+0x1de>
    {
      if ((HAL_GetTick() - tickstart) > CLOCKSWITCH_TIMEOUT_VALUE)
 8004780:	f7fc fcc4 	bl	800110c <HAL_GetTick>
 8004784:	4602      	mov	r2, r0
 8004786:	68fb      	ldr	r3, [r7, #12]
 8004788:	1ad3      	subs	r3, r2, r3
 800478a:	f241 3288 	movw	r2, #5000	@ 0x1388
 800478e:	4293      	cmp	r3, r2
 8004790:	d901      	bls.n	8004796 <HAL_RCC_ClockConfig+0x1de>
      {
        return HAL_TIMEOUT;
 8004792:	2303      	movs	r3, #3
 8004794:	e03b      	b.n	800480e <HAL_RCC_ClockConfig+0x256>
    while (__HAL_FLASH_GET_LATENCY() != FLatency)
 8004796:	4b20      	ldr	r3, [pc, #128]	@ (8004818 <HAL_RCC_ClockConfig+0x260>)
 8004798:	681b      	ldr	r3, [r3, #0]
 800479a:	f003 030f 	and.w	r3, r3, #15
 800479e:	683a      	ldr	r2, [r7, #0]
 80047a0:	429a      	cmp	r2, r3
 80047a2:	d1ed      	bne.n	8004780 <HAL_RCC_ClockConfig+0x1c8>
      }
    }
  }

  /*-------------------------- PCLK1 Configuration ---------------------------*/
  if (((RCC_ClkInitStruct->ClockType) & RCC_CLOCKTYPE_PCLK1) == RCC_CLOCKTYPE_PCLK1)
 80047a4:	687b      	ldr	r3, [r7, #4]
 80047a6:	681b      	ldr	r3, [r3, #0]
 80047a8:	f003 0304 	and.w	r3, r3, #4
 80047ac:	2b00      	cmp	r3, #0
 80047ae:	d008      	beq.n	80047c2 <HAL_RCC_ClockConfig+0x20a>
  {
    assert_param(IS_RCC_PCLK(RCC_ClkInitStruct->APB1CLKDivider));
    MODIFY_REG(RCC->CFGR, RCC_CFGR_PPRE1, RCC_ClkInitStruct->APB1CLKDivider);
 80047b0:	4b1a      	ldr	r3, [pc, #104]	@ (800481c <HAL_RCC_ClockConfig+0x264>)
 80047b2:	689b      	ldr	r3, [r3, #8]
 80047b4:	f423 62e0 	bic.w	r2, r3, #1792	@ 0x700
 80047b8:	687b      	ldr	r3, [r7, #4]
 80047ba:	68db      	ldr	r3, [r3, #12]
 80047bc:	4917      	ldr	r1, [pc, #92]	@ (800481c <HAL_RCC_ClockConfig+0x264>)
 80047be:	4313      	orrs	r3, r2
 80047c0:	608b      	str	r3, [r1, #8]
  }

  /*-------------------------- PCLK2 Configuration ---------------------------*/
  if(((RCC_ClkInitStruct->ClockType) & RCC_CLOCKTYPE_PCLK2) == RCC_CLOCKTYPE_PCLK2)
 80047c2:	687b      	ldr	r3, [r7, #4]
 80047c4:	681b      	ldr	r3, [r3, #0]
 80047c6:	f003 0308 	and.w	r3, r3, #8
 80047ca:	2b00      	cmp	r3, #0
 80047cc:	d009      	beq.n	80047e2 <HAL_RCC_ClockConfig+0x22a>
  {
    assert_param(IS_RCC_PCLK(RCC_ClkInitStruct->APB2CLKDivider));
    MODIFY_REG(RCC->CFGR, RCC_CFGR_PPRE2, ((RCC_ClkInitStruct->APB2CLKDivider) << 3U));
 80047ce:	4b13      	ldr	r3, [pc, #76]	@ (800481c <HAL_RCC_ClockConfig+0x264>)
 80047d0:	689b      	ldr	r3, [r3, #8]
 80047d2:	f423 5260 	bic.w	r2, r3, #14336	@ 0x3800
 80047d6:	687b      	ldr	r3, [r7, #4]
 80047d8:	691b      	ldr	r3, [r3, #16]
 80047da:	00db      	lsls	r3, r3, #3
 80047dc:	490f      	ldr	r1, [pc, #60]	@ (800481c <HAL_RCC_ClockConfig+0x264>)
 80047de:	4313      	orrs	r3, r2
 80047e0:	608b      	str	r3, [r1, #8]
  }

  /* Update the SystemCoreClock global variable */
  SystemCoreClock = HAL_RCC_GetSysClockFreq() >> (AHBPrescTable[READ_BIT(RCC->CFGR, RCC_CFGR_HPRE) >> RCC_CFGR_HPRE_Pos] & 0x1FU);
 80047e2:	f000 f825 	bl	8004830 <HAL_RCC_GetSysClockFreq>
 80047e6:	4602      	mov	r2, r0
 80047e8:	4b0c      	ldr	r3, [pc, #48]	@ (800481c <HAL_RCC_ClockConfig+0x264>)
 80047ea:	689b      	ldr	r3, [r3, #8]
 80047ec:	091b      	lsrs	r3, r3, #4
 80047ee:	f003 030f 	and.w	r3, r3, #15
 80047f2:	490c      	ldr	r1, [pc, #48]	@ (8004824 <HAL_RCC_ClockConfig+0x26c>)
 80047f4:	5ccb      	ldrb	r3, [r1, r3]
 80047f6:	f003 031f 	and.w	r3, r3, #31
 80047fa:	fa22 f303 	lsr.w	r3, r2, r3
 80047fe:	4a0a      	ldr	r2, [pc, #40]	@ (8004828 <HAL_RCC_ClockConfig+0x270>)
 8004800:	6013      	str	r3, [r2, #0]

  /* Configure the source of time base considering new system clocks settings*/
  return HAL_InitTick(uwTickPrio);
 8004802:	4b0a      	ldr	r3, [pc, #40]	@ (800482c <HAL_RCC_ClockConfig+0x274>)
 8004804:	681b      	ldr	r3, [r3, #0]
 8004806:	4618      	mov	r0, r3
 8004808:	f7fc fc34 	bl	8001074 <HAL_InitTick>
 800480c:	4603      	mov	r3, r0
}
 800480e:	4618      	mov	r0, r3
 8004810:	3718      	adds	r7, #24
 8004812:	46bd      	mov	sp, r7
 8004814:	bd80      	pop	{r7, pc}
 8004816:	bf00      	nop
 8004818:	40022000 	.word	0x40022000
 800481c:	40021000 	.word	0x40021000
 8004820:	04c4b400 	.word	0x04c4b400
 8004824:	080058cc 	.word	0x080058cc
 8004828:	20000000 	.word	0x20000000
 800482c:	2000000c 	.word	0x2000000c

08004830 <HAL_RCC_GetSysClockFreq>:
  *
  *
  * @retval SYSCLK frequency
  */
uint32_t HAL_RCC_GetSysClockFreq(void)
{
 8004830:	b480      	push	{r7}
 8004832:	b087      	sub	sp, #28
 8004834:	af00      	add	r7, sp, #0
  uint32_t pllvco, pllsource, pllr, pllm;
  uint32_t sysclockfreq;

  if (__HAL_RCC_GET_SYSCLK_SOURCE() == RCC_CFGR_SWS_HSI)
 8004836:	4b2c      	ldr	r3, [pc, #176]	@ (80048e8 <HAL_RCC_GetSysClockFreq+0xb8>)
 8004838:	689b      	ldr	r3, [r3, #8]
 800483a:	f003 030c 	and.w	r3, r3, #12
 800483e:	2b04      	cmp	r3, #4
 8004840:	d102      	bne.n	8004848 <HAL_RCC_GetSysClockFreq+0x18>
  {
    /* HSI used as system clock source */
    sysclockfreq = HSI_VALUE;
 8004842:	4b2a      	ldr	r3, [pc, #168]	@ (80048ec <HAL_RCC_GetSysClockFreq+0xbc>)
 8004844:	613b      	str	r3, [r7, #16]
 8004846:	e047      	b.n	80048d8 <HAL_RCC_GetSysClockFreq+0xa8>
  }
  else if (__HAL_RCC_GET_SYSCLK_SOURCE() == RCC_CFGR_SWS_HSE)
 8004848:	4b27      	ldr	r3, [pc, #156]	@ (80048e8 <HAL_RCC_GetSysClockFreq+0xb8>)
 800484a:	689b      	ldr	r3, [r3, #8]
 800484c:	f003 030c 	and.w	r3, r3, #12
 8004850:	2b08      	cmp	r3, #8
 8004852:	d102      	bne.n	800485a <HAL_RCC_GetSysClockFreq+0x2a>
  {
    /* HSE used as system clock source */
    sysclockfreq = HSE_VALUE;
 8004854:	4b26      	ldr	r3, [pc, #152]	@ (80048f0 <HAL_RCC_GetSysClockFreq+0xc0>)
 8004856:	613b      	str	r3, [r7, #16]
 8004858:	e03e      	b.n	80048d8 <HAL_RCC_GetSysClockFreq+0xa8>
  }
  else if (__HAL_RCC_GET_SYSCLK_SOURCE() == RCC_CFGR_SWS_PLL)
 800485a:	4b23      	ldr	r3, [pc, #140]	@ (80048e8 <HAL_RCC_GetSysClockFreq+0xb8>)
 800485c:	689b      	ldr	r3, [r3, #8]
 800485e:	f003 030c 	and.w	r3, r3, #12
 8004862:	2b0c      	cmp	r3, #12
 8004864:	d136      	bne.n	80048d4 <HAL_RCC_GetSysClockFreq+0xa4>
    /* PLL used as system clock  source */

    /* PLL_VCO = ((HSE_VALUE or HSI_VALUE)/ PLLM) * PLLN
    SYSCLK = PLL_VCO / PLLR
    */
    pllsource = READ_BIT(RCC->PLLCFGR, RCC_PLLCFGR_PLLSRC);
 8004866:	4b20      	ldr	r3, [pc, #128]	@ (80048e8 <HAL_RCC_GetSysClockFreq+0xb8>)
 8004868:	68db      	ldr	r3, [r3, #12]
 800486a:	f003 0303 	and.w	r3, r3, #3
 800486e:	60fb      	str	r3, [r7, #12]
    pllm = (READ_BIT(RCC->PLLCFGR, RCC_PLLCFGR_PLLM) >> RCC_PLLCFGR_PLLM_Pos) + 1U ;
 8004870:	4b1d      	ldr	r3, [pc, #116]	@ (80048e8 <HAL_RCC_GetSysClockFreq+0xb8>)
 8004872:	68db      	ldr	r3, [r3, #12]
 8004874:	091b      	lsrs	r3, r3, #4
 8004876:	f003 030f 	and.w	r3, r3, #15
 800487a:	3301      	adds	r3, #1
 800487c:	60bb      	str	r3, [r7, #8]

    switch (pllsource)
 800487e:	68fb      	ldr	r3, [r7, #12]
 8004880:	2b03      	cmp	r3, #3
 8004882:	d10c      	bne.n	800489e <HAL_RCC_GetSysClockFreq+0x6e>
    {
    case RCC_PLLSOURCE_HSE:  /* HSE used as PLL clock source */
      pllvco = (HSE_VALUE / pllm) * (READ_BIT(RCC->PLLCFGR, RCC_PLLCFGR_PLLN) >> RCC_PLLCFGR_PLLN_Pos);
 8004884:	4a1a      	ldr	r2, [pc, #104]	@ (80048f0 <HAL_RCC_GetSysClockFreq+0xc0>)
 8004886:	68bb      	ldr	r3, [r7, #8]
 8004888:	fbb2 f3f3 	udiv	r3, r2, r3
 800488c:	4a16      	ldr	r2, [pc, #88]	@ (80048e8 <HAL_RCC_GetSysClockFreq+0xb8>)
 800488e:	68d2      	ldr	r2, [r2, #12]
 8004890:	0a12      	lsrs	r2, r2, #8
 8004892:	f002 027f 	and.w	r2, r2, #127	@ 0x7f
 8004896:	fb02 f303 	mul.w	r3, r2, r3
 800489a:	617b      	str	r3, [r7, #20]
      break;
 800489c:	e00c      	b.n	80048b8 <HAL_RCC_GetSysClockFreq+0x88>

    case RCC_PLLSOURCE_HSI:  /* HSI used as PLL clock source */
    default:
      pllvco = (HSI_VALUE / pllm) * (READ_BIT(RCC->PLLCFGR, RCC_PLLCFGR_PLLN) >> RCC_PLLCFGR_PLLN_Pos);
 800489e:	4a13      	ldr	r2, [pc, #76]	@ (80048ec <HAL_RCC_GetSysClockFreq+0xbc>)
 80048a0:	68bb      	ldr	r3, [r7, #8]
 80048a2:	fbb2 f3f3 	udiv	r3, r2, r3
 80048a6:	4a10      	ldr	r2, [pc, #64]	@ (80048e8 <HAL_RCC_GetSysClockFreq+0xb8>)
 80048a8:	68d2      	ldr	r2, [r2, #12]
 80048aa:	0a12      	lsrs	r2, r2, #8
 80048ac:	f002 027f 	and.w	r2, r2, #127	@ 0x7f
 80048b0:	fb02 f303 	mul.w	r3, r2, r3
 80048b4:	617b      	str	r3, [r7, #20]
      break;
 80048b6:	bf00      	nop
    }
    pllr = ((READ_BIT(RCC->PLLCFGR, RCC_PLLCFGR_PLLR) >> RCC_PLLCFGR_PLLR_Pos) + 1U ) * 2U;
 80048b8:	4b0b      	ldr	r3, [pc, #44]	@ (80048e8 <HAL_RCC_GetSysClockFreq+0xb8>)
 80048ba:	68db      	ldr	r3, [r3, #12]
 80048bc:	0e5b      	lsrs	r3, r3, #25
 80048be:	f003 0303 	and.w	r3, r3, #3
 80048c2:	3301      	adds	r3, #1
 80048c4:	005b      	lsls	r3, r3, #1
 80048c6:	607b      	str	r3, [r7, #4]
    sysclockfreq = pllvco/pllr;
 80048c8:	697a      	ldr	r2, [r7, #20]
 80048ca:	687b      	ldr	r3, [r7, #4]
 80048cc:	fbb2 f3f3 	udiv	r3, r2, r3
 80048d0:	613b      	str	r3, [r7, #16]
 80048d2:	e001      	b.n	80048d8 <HAL_RCC_GetSysClockFreq+0xa8>
  }
  else
  {
    sysclockfreq = 0U;
 80048d4:	2300      	movs	r3, #0
 80048d6:	613b      	str	r3, [r7, #16]
  }

  return sysclockfreq;
 80048d8:	693b      	ldr	r3, [r7, #16]
}
 80048da:	4618      	mov	r0, r3
 80048dc:	371c      	adds	r7, #28
 80048de:	46bd      	mov	sp, r7
 80048e0:	f85d 7b04 	ldr.w	r7, [sp], #4
 80048e4:	4770      	bx	lr
 80048e6:	bf00      	nop
 80048e8:	40021000 	.word	0x40021000
 80048ec:	00f42400 	.word	0x00f42400
 80048f0:	007a1200 	.word	0x007a1200

080048f4 <HAL_RCC_GetHCLKFreq>:
  *
  * @note   The SystemCoreClock CMSIS variable is used to store System Clock Frequency.
  * @retval HCLK frequency in Hz
  */
uint32_t HAL_RCC_GetHCLKFreq(void)
{
 80048f4:	b480      	push	{r7}
 80048f6:	af00      	add	r7, sp, #0
  return SystemCoreClock;
 80048f8:	4b03      	ldr	r3, [pc, #12]	@ (8004908 <HAL_RCC_GetHCLKFreq+0x14>)
 80048fa:	681b      	ldr	r3, [r3, #0]
}
 80048fc:	4618      	mov	r0, r3
 80048fe:	46bd      	mov	sp, r7
 8004900:	f85d 7b04 	ldr.w	r7, [sp], #4
 8004904:	4770      	bx	lr
 8004906:	bf00      	nop
 8004908:	20000000 	.word	0x20000000

0800490c <HAL_RCC_GetPCLK1Freq>:
  * @note   Each time PCLK1 changes, this function must be called to update the
  *         right PCLK1 value. Otherwise, any configuration based on this function will be incorrect.
  * @retval PCLK1 frequency in Hz
  */
uint32_t HAL_RCC_GetPCLK1Freq(void)
{
 800490c:	b580      	push	{r7, lr}
 800490e:	af00      	add	r7, sp, #0
  /* Get HCLK source and Compute PCLK1 frequency ---------------------------*/
  return (HAL_RCC_GetHCLKFreq() >> (APBPrescTable[READ_BIT(RCC->CFGR, RCC_CFGR_PPRE1) >> RCC_CFGR_PPRE1_Pos] & 0x1FU));
 8004910:	f7ff fff0 	bl	80048f4 <HAL_RCC_GetHCLKFreq>
 8004914:	4602      	mov	r2, r0
 8004916:	4b06      	ldr	r3, [pc, #24]	@ (8004930 <HAL_RCC_GetPCLK1Freq+0x24>)
 8004918:	689b      	ldr	r3, [r3, #8]
 800491a:	0a1b      	lsrs	r3, r3, #8
 800491c:	f003 0307 	and.w	r3, r3, #7
 8004920:	4904      	ldr	r1, [pc, #16]	@ (8004934 <HAL_RCC_GetPCLK1Freq+0x28>)
 8004922:	5ccb      	ldrb	r3, [r1, r3]
 8004924:	f003 031f 	and.w	r3, r3, #31
 8004928:	fa22 f303 	lsr.w	r3, r2, r3
}
 800492c:	4618      	mov	r0, r3
 800492e:	bd80      	pop	{r7, pc}
 8004930:	40021000 	.word	0x40021000
 8004934:	080058dc 	.word	0x080058dc

08004938 <HAL_RCC_GetPCLK2Freq>:
  * @note   Each time PCLK2 changes, this function must be called to update the
  *         right PCLK2 value. Otherwise, any configuration based on this function will be incorrect.
  * @retval PCLK2 frequency in Hz
  */
uint32_t HAL_RCC_GetPCLK2Freq(void)
{
 8004938:	b580      	push	{r7, lr}
 800493a:	af00      	add	r7, sp, #0
  /* Get HCLK source and Compute PCLK2 frequency ---------------------------*/
  return (HAL_RCC_GetHCLKFreq()>> (APBPrescTable[READ_BIT(RCC->CFGR, RCC_CFGR_PPRE2) >> RCC_CFGR_PPRE2_Pos] & 0x1FU));
 800493c:	f7ff ffda 	bl	80048f4 <HAL_RCC_GetHCLKFreq>
 8004940:	4602      	mov	r2, r0
 8004942:	4b06      	ldr	r3, [pc, #24]	@ (800495c <HAL_RCC_GetPCLK2Freq+0x24>)
 8004944:	689b      	ldr	r3, [r3, #8]
 8004946:	0adb      	lsrs	r3, r3, #11
 8004948:	f003 0307 	and.w	r3, r3, #7
 800494c:	4904      	ldr	r1, [pc, #16]	@ (8004960 <HAL_RCC_GetPCLK2Freq+0x28>)
 800494e:	5ccb      	ldrb	r3, [r1, r3]
 8004950:	f003 031f 	and.w	r3, r3, #31
 8004954:	fa22 f303 	lsr.w	r3, r2, r3
}
 8004958:	4618      	mov	r0, r3
 800495a:	bd80      	pop	{r7, pc}
 800495c:	40021000 	.word	0x40021000
 8004960:	080058dc 	.word	0x080058dc

08004964 <RCC_GetSysClockFreqFromPLLSource>:
/**
  * @brief  Compute SYSCLK frequency based on PLL SYSCLK source.
  * @retval SYSCLK frequency
  */
static uint32_t RCC_GetSysClockFreqFromPLLSource(void)
{
 8004964:	b480      	push	{r7}
 8004966:	b087      	sub	sp, #28
 8004968:	af00      	add	r7, sp, #0
  uint32_t sysclockfreq;

  /* PLL_VCO = (HSE_VALUE or HSI_VALUE/ PLLM) * PLLN
     SYSCLK = PLL_VCO / PLLR
   */
  pllsource = READ_BIT(RCC->PLLCFGR, RCC_PLLCFGR_PLLSRC);
 800496a:	4b1e      	ldr	r3, [pc, #120]	@ (80049e4 <RCC_GetSysClockFreqFromPLLSource+0x80>)
 800496c:	68db      	ldr	r3, [r3, #12]
 800496e:	f003 0303 	and.w	r3, r3, #3
 8004972:	613b      	str	r3, [r7, #16]
  pllm = (READ_BIT(RCC->PLLCFGR, RCC_PLLCFGR_PLLM) >> RCC_PLLCFGR_PLLM_Pos) + 1U ;
 8004974:	4b1b      	ldr	r3, [pc, #108]	@ (80049e4 <RCC_GetSysClockFreqFromPLLSource+0x80>)
 8004976:	68db      	ldr	r3, [r3, #12]
 8004978:	091b      	lsrs	r3, r3, #4
 800497a:	f003 030f 	and.w	r3, r3, #15
 800497e:	3301      	adds	r3, #1
 8004980:	60fb      	str	r3, [r7, #12]

  switch (pllsource)
 8004982:	693b      	ldr	r3, [r7, #16]
 8004984:	2b03      	cmp	r3, #3
 8004986:	d10c      	bne.n	80049a2 <RCC_GetSysClockFreqFromPLLSource+0x3e>
  {
  case RCC_PLLSOURCE_HSE:  /* HSE used as PLL clock source */
    pllvco = (HSE_VALUE / pllm) * (READ_BIT(RCC->PLLCFGR, RCC_PLLCFGR_PLLN) >> RCC_PLLCFGR_PLLN_Pos);
 8004988:	4a17      	ldr	r2, [pc, #92]	@ (80049e8 <RCC_GetSysClockFreqFromPLLSource+0x84>)
 800498a:	68fb      	ldr	r3, [r7, #12]
 800498c:	fbb2 f3f3 	udiv	r3, r2, r3
 8004990:	4a14      	ldr	r2, [pc, #80]	@ (80049e4 <RCC_GetSysClockFreqFromPLLSource+0x80>)
 8004992:	68d2      	ldr	r2, [r2, #12]
 8004994:	0a12      	lsrs	r2, r2, #8
 8004996:	f002 027f 	and.w	r2, r2, #127	@ 0x7f
 800499a:	fb02 f303 	mul.w	r3, r2, r3
 800499e:	617b      	str	r3, [r7, #20]
    break;
 80049a0:	e00c      	b.n	80049bc <RCC_GetSysClockFreqFromPLLSource+0x58>

  case RCC_PLLSOURCE_HSI:  /* HSI used as PLL clock source */
  default:
    pllvco = (HSI_VALUE / pllm) * (READ_BIT(RCC->PLLCFGR, RCC_PLLCFGR_PLLN) >> RCC_PLLCFGR_PLLN_Pos);
 80049a2:	4a12      	ldr	r2, [pc, #72]	@ (80049ec <RCC_GetSysClockFreqFromPLLSource+0x88>)
 80049a4:	68fb      	ldr	r3, [r7, #12]
 80049a6:	fbb2 f3f3 	udiv	r3, r2, r3
 80049aa:	4a0e      	ldr	r2, [pc, #56]	@ (80049e4 <RCC_GetSysClockFreqFromPLLSource+0x80>)
 80049ac:	68d2      	ldr	r2, [r2, #12]
 80049ae:	0a12      	lsrs	r2, r2, #8
 80049b0:	f002 027f 	and.w	r2, r2, #127	@ 0x7f
 80049b4:	fb02 f303 	mul.w	r3, r2, r3
 80049b8:	617b      	str	r3, [r7, #20]
    break;
 80049ba:	bf00      	nop
  }

  pllr = ((READ_BIT(RCC->PLLCFGR, RCC_PLLCFGR_PLLR) >> RCC_PLLCFGR_PLLR_Pos) + 1U ) * 2U;
 80049bc:	4b09      	ldr	r3, [pc, #36]	@ (80049e4 <RCC_GetSysClockFreqFromPLLSource+0x80>)
 80049be:	68db      	ldr	r3, [r3, #12]
 80049c0:	0e5b      	lsrs	r3, r3, #25
 80049c2:	f003 0303 	and.w	r3, r3, #3
 80049c6:	3301      	adds	r3, #1
 80049c8:	005b      	lsls	r3, r3, #1
 80049ca:	60bb      	str	r3, [r7, #8]
  sysclockfreq = pllvco/pllr;
 80049cc:	697a      	ldr	r2, [r7, #20]
 80049ce:	68bb      	ldr	r3, [r7, #8]
 80049d0:	fbb2 f3f3 	udiv	r3, r2, r3
 80049d4:	607b      	str	r3, [r7, #4]

  return sysclockfreq;
 80049d6:	687b      	ldr	r3, [r7, #4]
}
 80049d8:	4618      	mov	r0, r3
 80049da:	371c      	adds	r7, #28
 80049dc:	46bd      	mov	sp, r7
 80049de:	f85d 7b04 	ldr.w	r7, [sp], #4
 80049e2:	4770      	bx	lr
 80049e4:	40021000 	.word	0x40021000
 80049e8:	007a1200 	.word	0x007a1200
 80049ec:	00f42400 	.word	0x00f42400

080049f0 <HAL_RCCEx_PeriphCLKConfig>:
  *         the RTC clock source: in this case the access to Backup domain is enabled.
  *
  * @retval HAL status
  */
HAL_StatusTypeDef HAL_RCCEx_PeriphCLKConfig(RCC_PeriphCLKInitTypeDef  *PeriphClkInit)
{
 80049f0:	b580      	push	{r7, lr}
 80049f2:	b086      	sub	sp, #24
 80049f4:	af00      	add	r7, sp, #0
 80049f6:	6078      	str	r0, [r7, #4]
  uint32_t tmpregister;
  uint32_t tickstart;
  HAL_StatusTypeDef ret = HAL_OK;      /* Intermediate status */
 80049f8:	2300      	movs	r3, #0
 80049fa:	74fb      	strb	r3, [r7, #19]
  HAL_StatusTypeDef status = HAL_OK;   /* Final status */
 80049fc:	2300      	movs	r3, #0
 80049fe:	74bb      	strb	r3, [r7, #18]

  /* Check the parameters */
  assert_param(IS_RCC_PERIPHCLOCK(PeriphClkInit->PeriphClockSelection));

  /*-------------------------- RTC clock source configuration ----------------------*/
  if((PeriphClkInit->PeriphClockSelection & RCC_PERIPHCLK_RTC) == RCC_PERIPHCLK_RTC)
 8004a00:	687b      	ldr	r3, [r7, #4]
 8004a02:	681b      	ldr	r3, [r3, #0]
 8004a04:	f403 2300 	and.w	r3, r3, #524288	@ 0x80000
 8004a08:	2b00      	cmp	r3, #0
 8004a0a:	f000 8098 	beq.w	8004b3e <HAL_RCCEx_PeriphCLKConfig+0x14e>
  {
    FlagStatus       pwrclkchanged = RESET;
 8004a0e:	2300      	movs	r3, #0
 8004a10:	747b      	strb	r3, [r7, #17]
    
    /* Check for RTC Parameters used to output RTCCLK */
    assert_param(IS_RCC_RTCCLKSOURCE(PeriphClkInit->RTCClockSelection));

    /* Enable Power Clock */
    if(__HAL_RCC_PWR_IS_CLK_DISABLED())
 8004a12:	4b43      	ldr	r3, [pc, #268]	@ (8004b20 <HAL_RCCEx_PeriphCLKConfig+0x130>)
 8004a14:	6d9b      	ldr	r3, [r3, #88]	@ 0x58
 8004a16:	f003 5380 	and.w	r3, r3, #268435456	@ 0x10000000
 8004a1a:	2b00      	cmp	r3, #0
 8004a1c:	d10d      	bne.n	8004a3a <HAL_RCCEx_PeriphCLKConfig+0x4a>
    {
      __HAL_RCC_PWR_CLK_ENABLE();
 8004a1e:	4b40      	ldr	r3, [pc, #256]	@ (8004b20 <HAL_RCCEx_PeriphCLKConfig+0x130>)
 8004a20:	6d9b      	ldr	r3, [r3, #88]	@ 0x58
 8004a22:	4a3f      	ldr	r2, [pc, #252]	@ (8004b20 <HAL_RCCEx_PeriphCLKConfig+0x130>)
 8004a24:	f043 5380 	orr.w	r3, r3, #268435456	@ 0x10000000
 8004a28:	6593      	str	r3, [r2, #88]	@ 0x58
 8004a2a:	4b3d      	ldr	r3, [pc, #244]	@ (8004b20 <HAL_RCCEx_PeriphCLKConfig+0x130>)
 8004a2c:	6d9b      	ldr	r3, [r3, #88]	@ 0x58
 8004a2e:	f003 5380 	and.w	r3, r3, #268435456	@ 0x10000000
 8004a32:	60bb      	str	r3, [r7, #8]
 8004a34:	68bb      	ldr	r3, [r7, #8]
      pwrclkchanged = SET;
 8004a36:	2301      	movs	r3, #1
 8004a38:	747b      	strb	r3, [r7, #17]
    }
      
    /* Enable write access to Backup domain */
    SET_BIT(PWR->CR1, PWR_CR1_DBP);
 8004a3a:	4b3a      	ldr	r3, [pc, #232]	@ (8004b24 <HAL_RCCEx_PeriphCLKConfig+0x134>)
 8004a3c:	681b      	ldr	r3, [r3, #0]
 8004a3e:	4a39      	ldr	r2, [pc, #228]	@ (8004b24 <HAL_RCCEx_PeriphCLKConfig+0x134>)
 8004a40:	f443 7380 	orr.w	r3, r3, #256	@ 0x100
 8004a44:	6013      	str	r3, [r2, #0]

    /* Wait for Backup domain Write protection disable */
    tickstart = HAL_GetTick();
 8004a46:	f7fc fb61 	bl	800110c <HAL_GetTick>
 8004a4a:	60f8      	str	r0, [r7, #12]

    while((PWR->CR1 & PWR_CR1_DBP) == 0U)
 8004a4c:	e009      	b.n	8004a62 <HAL_RCCEx_PeriphCLKConfig+0x72>
    {
      if((HAL_GetTick() - tickstart) > RCC_DBP_TIMEOUT_VALUE)
 8004a4e:	f7fc fb5d 	bl	800110c <HAL_GetTick>
 8004a52:	4602      	mov	r2, r0
 8004a54:	68fb      	ldr	r3, [r7, #12]
 8004a56:	1ad3      	subs	r3, r2, r3
 8004a58:	2b02      	cmp	r3, #2
 8004a5a:	d902      	bls.n	8004a62 <HAL_RCCEx_PeriphCLKConfig+0x72>
      {
        ret = HAL_TIMEOUT;
 8004a5c:	2303      	movs	r3, #3
 8004a5e:	74fb      	strb	r3, [r7, #19]
        break;
 8004a60:	e005      	b.n	8004a6e <HAL_RCCEx_PeriphCLKConfig+0x7e>
    while((PWR->CR1 & PWR_CR1_DBP) == 0U)
 8004a62:	4b30      	ldr	r3, [pc, #192]	@ (8004b24 <HAL_RCCEx_PeriphCLKConfig+0x134>)
 8004a64:	681b      	ldr	r3, [r3, #0]
 8004a66:	f403 7380 	and.w	r3, r3, #256	@ 0x100
 8004a6a:	2b00      	cmp	r3, #0
 8004a6c:	d0ef      	beq.n	8004a4e <HAL_RCCEx_PeriphCLKConfig+0x5e>
      }
    }

    if(ret == HAL_OK)
 8004a6e:	7cfb      	ldrb	r3, [r7, #19]
 8004a70:	2b00      	cmp	r3, #0
 8004a72:	d159      	bne.n	8004b28 <HAL_RCCEx_PeriphCLKConfig+0x138>
    { 
      /* Reset the Backup domain only if the RTC Clock source selection is modified from default */
      tmpregister = READ_BIT(RCC->BDCR, RCC_BDCR_RTCSEL);
 8004a74:	4b2a      	ldr	r3, [pc, #168]	@ (8004b20 <HAL_RCCEx_PeriphCLKConfig+0x130>)
 8004a76:	f8d3 3090 	ldr.w	r3, [r3, #144]	@ 0x90
 8004a7a:	f403 7340 	and.w	r3, r3, #768	@ 0x300
 8004a7e:	617b      	str	r3, [r7, #20]
      
      if((tmpregister != RCC_RTCCLKSOURCE_NONE) && (tmpregister != PeriphClkInit->RTCClockSelection))
 8004a80:	697b      	ldr	r3, [r7, #20]
 8004a82:	2b00      	cmp	r3, #0
 8004a84:	d01e      	beq.n	8004ac4 <HAL_RCCEx_PeriphCLKConfig+0xd4>
 8004a86:	687b      	ldr	r3, [r7, #4]
 8004a88:	6c1b      	ldr	r3, [r3, #64]	@ 0x40
 8004a8a:	697a      	ldr	r2, [r7, #20]
 8004a8c:	429a      	cmp	r2, r3
 8004a8e:	d019      	beq.n	8004ac4 <HAL_RCCEx_PeriphCLKConfig+0xd4>
      {
        /* Store the content of BDCR register before the reset of Backup Domain */
        tmpregister = READ_BIT(RCC->BDCR, ~(RCC_BDCR_RTCSEL));
 8004a90:	4b23      	ldr	r3, [pc, #140]	@ (8004b20 <HAL_RCCEx_PeriphCLKConfig+0x130>)
 8004a92:	f8d3 3090 	ldr.w	r3, [r3, #144]	@ 0x90
 8004a96:	f423 7340 	bic.w	r3, r3, #768	@ 0x300
 8004a9a:	617b      	str	r3, [r7, #20]
        /* RTC Clock selection can be changed only if the Backup Domain is reset */
        __HAL_RCC_BACKUPRESET_FORCE();
 8004a9c:	4b20      	ldr	r3, [pc, #128]	@ (8004b20 <HAL_RCCEx_PeriphCLKConfig+0x130>)
 8004a9e:	f8d3 3090 	ldr.w	r3, [r3, #144]	@ 0x90
 8004aa2:	4a1f      	ldr	r2, [pc, #124]	@ (8004b20 <HAL_RCCEx_PeriphCLKConfig+0x130>)
 8004aa4:	f443 3380 	orr.w	r3, r3, #65536	@ 0x10000
 8004aa8:	f8c2 3090 	str.w	r3, [r2, #144]	@ 0x90
        __HAL_RCC_BACKUPRESET_RELEASE();
 8004aac:	4b1c      	ldr	r3, [pc, #112]	@ (8004b20 <HAL_RCCEx_PeriphCLKConfig+0x130>)
 8004aae:	f8d3 3090 	ldr.w	r3, [r3, #144]	@ 0x90
 8004ab2:	4a1b      	ldr	r2, [pc, #108]	@ (8004b20 <HAL_RCCEx_PeriphCLKConfig+0x130>)
 8004ab4:	f423 3380 	bic.w	r3, r3, #65536	@ 0x10000
 8004ab8:	f8c2 3090 	str.w	r3, [r2, #144]	@ 0x90
        /* Restore the Content of BDCR register */
        RCC->BDCR = tmpregister;
 8004abc:	4a18      	ldr	r2, [pc, #96]	@ (8004b20 <HAL_RCCEx_PeriphCLKConfig+0x130>)
 8004abe:	697b      	ldr	r3, [r7, #20]
 8004ac0:	f8c2 3090 	str.w	r3, [r2, #144]	@ 0x90
      }

      /* Wait for LSE reactivation if LSE was enable prior to Backup Domain reset */
      if (HAL_IS_BIT_SET(tmpregister, RCC_BDCR_LSEON))
 8004ac4:	697b      	ldr	r3, [r7, #20]
 8004ac6:	f003 0301 	and.w	r3, r3, #1
 8004aca:	2b00      	cmp	r3, #0
 8004acc:	d016      	beq.n	8004afc <HAL_RCCEx_PeriphCLKConfig+0x10c>
      {
        /* Get Start Tick*/
        tickstart = HAL_GetTick();
 8004ace:	f7fc fb1d 	bl	800110c <HAL_GetTick>
 8004ad2:	60f8      	str	r0, [r7, #12]

        /* Wait till LSE is ready */
        while(READ_BIT(RCC->BDCR, RCC_BDCR_LSERDY) == 0U)
 8004ad4:	e00b      	b.n	8004aee <HAL_RCCEx_PeriphCLKConfig+0xfe>
        {
          if((HAL_GetTick() - tickstart) > RCC_LSE_TIMEOUT_VALUE)
 8004ad6:	f7fc fb19 	bl	800110c <HAL_GetTick>
 8004ada:	4602      	mov	r2, r0
 8004adc:	68fb      	ldr	r3, [r7, #12]
 8004ade:	1ad3      	subs	r3, r2, r3
 8004ae0:	f241 3288 	movw	r2, #5000	@ 0x1388
 8004ae4:	4293      	cmp	r3, r2
 8004ae6:	d902      	bls.n	8004aee <HAL_RCCEx_PeriphCLKConfig+0xfe>
          {
            ret = HAL_TIMEOUT;
 8004ae8:	2303      	movs	r3, #3
 8004aea:	74fb      	strb	r3, [r7, #19]
            break;
 8004aec:	e006      	b.n	8004afc <HAL_RCCEx_PeriphCLKConfig+0x10c>
        while(READ_BIT(RCC->BDCR, RCC_BDCR_LSERDY) == 0U)
 8004aee:	4b0c      	ldr	r3, [pc, #48]	@ (8004b20 <HAL_RCCEx_PeriphCLKConfig+0x130>)
 8004af0:	f8d3 3090 	ldr.w	r3, [r3, #144]	@ 0x90
 8004af4:	f003 0302 	and.w	r3, r3, #2
 8004af8:	2b00      	cmp	r3, #0
 8004afa:	d0ec      	beq.n	8004ad6 <HAL_RCCEx_PeriphCLKConfig+0xe6>
          }
        }
      }
      
      if(ret == HAL_OK)
 8004afc:	7cfb      	ldrb	r3, [r7, #19]
 8004afe:	2b00      	cmp	r3, #0
 8004b00:	d10b      	bne.n	8004b1a <HAL_RCCEx_PeriphCLKConfig+0x12a>
      {
        /* Apply new RTC clock source selection */
        __HAL_RCC_RTC_CONFIG(PeriphClkInit->RTCClockSelection);
 8004b02:	4b07      	ldr	r3, [pc, #28]	@ (8004b20 <HAL_RCCEx_PeriphCLKConfig+0x130>)
 8004b04:	f8d3 3090 	ldr.w	r3, [r3, #144]	@ 0x90
 8004b08:	f423 7240 	bic.w	r2, r3, #768	@ 0x300
 8004b0c:	687b      	ldr	r3, [r7, #4]
 8004b0e:	6c1b      	ldr	r3, [r3, #64]	@ 0x40
 8004b10:	4903      	ldr	r1, [pc, #12]	@ (8004b20 <HAL_RCCEx_PeriphCLKConfig+0x130>)
 8004b12:	4313      	orrs	r3, r2
 8004b14:	f8c1 3090 	str.w	r3, [r1, #144]	@ 0x90
 8004b18:	e008      	b.n	8004b2c <HAL_RCCEx_PeriphCLKConfig+0x13c>
      }
      else
      {
        /* set overall return value */
        status = ret;
 8004b1a:	7cfb      	ldrb	r3, [r7, #19]
 8004b1c:	74bb      	strb	r3, [r7, #18]
 8004b1e:	e005      	b.n	8004b2c <HAL_RCCEx_PeriphCLKConfig+0x13c>
 8004b20:	40021000 	.word	0x40021000
 8004b24:	40007000 	.word	0x40007000
      }
    }
    else
    {
      /* set overall return value */
      status = ret;
 8004b28:	7cfb      	ldrb	r3, [r7, #19]
 8004b2a:	74bb      	strb	r3, [r7, #18]
    }

    /* Restore clock configuration if changed */
    if(pwrclkchanged == SET)
 8004b2c:	7c7b      	ldrb	r3, [r7, #17]
 8004b2e:	2b01      	cmp	r3, #1
 8004b30:	d105      	bne.n	8004b3e <HAL_RCCEx_PeriphCLKConfig+0x14e>
    {
      __HAL_RCC_PWR_CLK_DISABLE();
 8004b32:	4ba6      	ldr	r3, [pc, #664]	@ (8004dcc <HAL_RCCEx_PeriphCLKConfig+0x3dc>)
 8004b34:	6d9b      	ldr	r3, [r3, #88]	@ 0x58
 8004b36:	4aa5      	ldr	r2, [pc, #660]	@ (8004dcc <HAL_RCCEx_PeriphCLKConfig+0x3dc>)
 8004b38:	f023 5380 	bic.w	r3, r3, #268435456	@ 0x10000000
 8004b3c:	6593      	str	r3, [r2, #88]	@ 0x58
    }
  }

  /*-------------------------- USART1 clock source configuration -------------------*/
  if(((PeriphClkInit->PeriphClockSelection) & RCC_PERIPHCLK_USART1) == RCC_PERIPHCLK_USART1)
 8004b3e:	687b      	ldr	r3, [r7, #4]
 8004b40:	681b      	ldr	r3, [r3, #0]
 8004b42:	f003 0301 	and.w	r3, r3, #1
 8004b46:	2b00      	cmp	r3, #0
 8004b48:	d00a      	beq.n	8004b60 <HAL_RCCEx_PeriphCLKConfig+0x170>
  {
    /* Check the parameters */
    assert_param(IS_RCC_USART1CLKSOURCE(PeriphClkInit->Usart1ClockSelection));

    /* Configure the USART1 clock source */
    __HAL_RCC_USART1_CONFIG(PeriphClkInit->Usart1ClockSelection);
 8004b4a:	4ba0      	ldr	r3, [pc, #640]	@ (8004dcc <HAL_RCCEx_PeriphCLKConfig+0x3dc>)
 8004b4c:	f8d3 3088 	ldr.w	r3, [r3, #136]	@ 0x88
 8004b50:	f023 0203 	bic.w	r2, r3, #3
 8004b54:	687b      	ldr	r3, [r7, #4]
 8004b56:	685b      	ldr	r3, [r3, #4]
 8004b58:	499c      	ldr	r1, [pc, #624]	@ (8004dcc <HAL_RCCEx_PeriphCLKConfig+0x3dc>)
 8004b5a:	4313      	orrs	r3, r2
 8004b5c:	f8c1 3088 	str.w	r3, [r1, #136]	@ 0x88
  }

  /*-------------------------- USART2 clock source configuration -------------------*/
  if(((PeriphClkInit->PeriphClockSelection) & RCC_PERIPHCLK_USART2) == RCC_PERIPHCLK_USART2)
 8004b60:	687b      	ldr	r3, [r7, #4]
 8004b62:	681b      	ldr	r3, [r3, #0]
 8004b64:	f003 0302 	and.w	r3, r3, #2
 8004b68:	2b00      	cmp	r3, #0
 8004b6a:	d00a      	beq.n	8004b82 <HAL_RCCEx_PeriphCLKConfig+0x192>
  {
    /* Check the parameters */
    assert_param(IS_RCC_USART2CLKSOURCE(PeriphClkInit->Usart2ClockSelection));

    /* Configure the USART2 clock source */
    __HAL_RCC_USART2_CONFIG(PeriphClkInit->Usart2ClockSelection);
 8004b6c:	4b97      	ldr	r3, [pc, #604]	@ (8004dcc <HAL_RCCEx_PeriphCLKConfig+0x3dc>)
 8004b6e:	f8d3 3088 	ldr.w	r3, [r3, #136]	@ 0x88
 8004b72:	f023 020c 	bic.w	r2, r3, #12
 8004b76:	687b      	ldr	r3, [r7, #4]
 8004b78:	689b      	ldr	r3, [r3, #8]
 8004b7a:	4994      	ldr	r1, [pc, #592]	@ (8004dcc <HAL_RCCEx_PeriphCLKConfig+0x3dc>)
 8004b7c:	4313      	orrs	r3, r2
 8004b7e:	f8c1 3088 	str.w	r3, [r1, #136]	@ 0x88
  }

#if defined(USART3)

  /*-------------------------- USART3 clock source configuration -------------------*/
  if(((PeriphClkInit->PeriphClockSelection) & RCC_PERIPHCLK_USART3) == RCC_PERIPHCLK_USART3)
 8004b82:	687b      	ldr	r3, [r7, #4]
 8004b84:	681b      	ldr	r3, [r3, #0]
 8004b86:	f003 0304 	and.w	r3, r3, #4
 8004b8a:	2b00      	cmp	r3, #0
 8004b8c:	d00a      	beq.n	8004ba4 <HAL_RCCEx_PeriphCLKConfig+0x1b4>
  {
    /* Check the parameters */
    assert_param(IS_RCC_USART3CLKSOURCE(PeriphClkInit->Usart3ClockSelection));

    /* Configure the USART3 clock source */
    __HAL_RCC_USART3_CONFIG(PeriphClkInit->Usart3ClockSelection);
 8004b8e:	4b8f      	ldr	r3, [pc, #572]	@ (8004dcc <HAL_RCCEx_PeriphCLKConfig+0x3dc>)
 8004b90:	f8d3 3088 	ldr.w	r3, [r3, #136]	@ 0x88
 8004b94:	f023 0230 	bic.w	r2, r3, #48	@ 0x30
 8004b98:	687b      	ldr	r3, [r7, #4]
 8004b9a:	68db      	ldr	r3, [r3, #12]
 8004b9c:	498b      	ldr	r1, [pc, #556]	@ (8004dcc <HAL_RCCEx_PeriphCLKConfig+0x3dc>)
 8004b9e:	4313      	orrs	r3, r2
 8004ba0:	f8c1 3088 	str.w	r3, [r1, #136]	@ 0x88

#endif /* USART3 */

#if defined(UART4)
  /*-------------------------- UART4 clock source configuration --------------------*/
  if(((PeriphClkInit->PeriphClockSelection) & RCC_PERIPHCLK_UART4) == RCC_PERIPHCLK_UART4)
 8004ba4:	687b      	ldr	r3, [r7, #4]
 8004ba6:	681b      	ldr	r3, [r3, #0]
 8004ba8:	f003 0308 	and.w	r3, r3, #8
 8004bac:	2b00      	cmp	r3, #0
 8004bae:	d00a      	beq.n	8004bc6 <HAL_RCCEx_PeriphCLKConfig+0x1d6>
  {
    /* Check the parameters */
    assert_param(IS_RCC_UART4CLKSOURCE(PeriphClkInit->Uart4ClockSelection));

    /* Configure the UART4 clock source */
    __HAL_RCC_UART4_CONFIG(PeriphClkInit->Uart4ClockSelection);
 8004bb0:	4b86      	ldr	r3, [pc, #536]	@ (8004dcc <HAL_RCCEx_PeriphCLKConfig+0x3dc>)
 8004bb2:	f8d3 3088 	ldr.w	r3, [r3, #136]	@ 0x88
 8004bb6:	f023 02c0 	bic.w	r2, r3, #192	@ 0xc0
 8004bba:	687b      	ldr	r3, [r7, #4]
 8004bbc:	691b      	ldr	r3, [r3, #16]
 8004bbe:	4983      	ldr	r1, [pc, #524]	@ (8004dcc <HAL_RCCEx_PeriphCLKConfig+0x3dc>)
 8004bc0:	4313      	orrs	r3, r2
 8004bc2:	f8c1 3088 	str.w	r3, [r1, #136]	@ 0x88
  }

#endif /* UART5 */

  /*-------------------------- LPUART1 clock source configuration ------------------*/
  if(((PeriphClkInit->PeriphClockSelection) & RCC_PERIPHCLK_LPUART1) == RCC_PERIPHCLK_LPUART1)
 8004bc6:	687b      	ldr	r3, [r7, #4]
 8004bc8:	681b      	ldr	r3, [r3, #0]
 8004bca:	f003 0320 	and.w	r3, r3, #32
 8004bce:	2b00      	cmp	r3, #0
 8004bd0:	d00a      	beq.n	8004be8 <HAL_RCCEx_PeriphCLKConfig+0x1f8>
  {
    /* Check the parameters */
    assert_param(IS_RCC_LPUART1CLKSOURCE(PeriphClkInit->Lpuart1ClockSelection));

    /* Configure the LPUAR1 clock source */
    __HAL_RCC_LPUART1_CONFIG(PeriphClkInit->Lpuart1ClockSelection);
 8004bd2:	4b7e      	ldr	r3, [pc, #504]	@ (8004dcc <HAL_RCCEx_PeriphCLKConfig+0x3dc>)
 8004bd4:	f8d3 3088 	ldr.w	r3, [r3, #136]	@ 0x88
 8004bd8:	f423 6240 	bic.w	r2, r3, #3072	@ 0xc00
 8004bdc:	687b      	ldr	r3, [r7, #4]
 8004bde:	695b      	ldr	r3, [r3, #20]
 8004be0:	497a      	ldr	r1, [pc, #488]	@ (8004dcc <HAL_RCCEx_PeriphCLKConfig+0x3dc>)
 8004be2:	4313      	orrs	r3, r2
 8004be4:	f8c1 3088 	str.w	r3, [r1, #136]	@ 0x88
  }

  /*-------------------------- I2C1 clock source configuration ---------------------*/
  if(((PeriphClkInit->PeriphClockSelection) & RCC_PERIPHCLK_I2C1) == RCC_PERIPHCLK_I2C1)
 8004be8:	687b      	ldr	r3, [r7, #4]
 8004bea:	681b      	ldr	r3, [r3, #0]
 8004bec:	f003 0340 	and.w	r3, r3, #64	@ 0x40
 8004bf0:	2b00      	cmp	r3, #0
 8004bf2:	d00a      	beq.n	8004c0a <HAL_RCCEx_PeriphCLKConfig+0x21a>
  {
    /* Check the parameters */
    assert_param(IS_RCC_I2C1CLKSOURCE(PeriphClkInit->I2c1ClockSelection));

    /* Configure the I2C1 clock source */
    __HAL_RCC_I2C1_CONFIG(PeriphClkInit->I2c1ClockSelection);
 8004bf4:	4b75      	ldr	r3, [pc, #468]	@ (8004dcc <HAL_RCCEx_PeriphCLKConfig+0x3dc>)
 8004bf6:	f8d3 3088 	ldr.w	r3, [r3, #136]	@ 0x88
 8004bfa:	f423 5240 	bic.w	r2, r3, #12288	@ 0x3000
 8004bfe:	687b      	ldr	r3, [r7, #4]
 8004c00:	699b      	ldr	r3, [r3, #24]
 8004c02:	4972      	ldr	r1, [pc, #456]	@ (8004dcc <HAL_RCCEx_PeriphCLKConfig+0x3dc>)
 8004c04:	4313      	orrs	r3, r2
 8004c06:	f8c1 3088 	str.w	r3, [r1, #136]	@ 0x88
  }

  /*-------------------------- I2C2 clock source configuration ---------------------*/
  if(((PeriphClkInit->PeriphClockSelection) & RCC_PERIPHCLK_I2C2) == RCC_PERIPHCLK_I2C2)
 8004c0a:	687b      	ldr	r3, [r7, #4]
 8004c0c:	681b      	ldr	r3, [r3, #0]
 8004c0e:	f003 0380 	and.w	r3, r3, #128	@ 0x80
 8004c12:	2b00      	cmp	r3, #0
 8004c14:	d00a      	beq.n	8004c2c <HAL_RCCEx_PeriphCLKConfig+0x23c>
  {
    /* Check the parameters */
    assert_param(IS_RCC_I2C2CLKSOURCE(PeriphClkInit->I2c2ClockSelection));

    /* Configure the I2C2 clock source */
    __HAL_RCC_I2C2_CONFIG(PeriphClkInit->I2c2ClockSelection);
 8004c16:	4b6d      	ldr	r3, [pc, #436]	@ (8004dcc <HAL_RCCEx_PeriphCLKConfig+0x3dc>)
 8004c18:	f8d3 3088 	ldr.w	r3, [r3, #136]	@ 0x88
 8004c1c:	f423 4240 	bic.w	r2, r3, #49152	@ 0xc000
 8004c20:	687b      	ldr	r3, [r7, #4]
 8004c22:	69db      	ldr	r3, [r3, #28]
 8004c24:	4969      	ldr	r1, [pc, #420]	@ (8004dcc <HAL_RCCEx_PeriphCLKConfig+0x3dc>)
 8004c26:	4313      	orrs	r3, r2
 8004c28:	f8c1 3088 	str.w	r3, [r1, #136]	@ 0x88
  }
#if defined(I2C3)

  /*-------------------------- I2C3 clock source configuration ---------------------*/
  if(((PeriphClkInit->PeriphClockSelection) & RCC_PERIPHCLK_I2C3) == RCC_PERIPHCLK_I2C3)
 8004c2c:	687b      	ldr	r3, [r7, #4]
 8004c2e:	681b      	ldr	r3, [r3, #0]
 8004c30:	f403 7380 	and.w	r3, r3, #256	@ 0x100
 8004c34:	2b00      	cmp	r3, #0
 8004c36:	d00a      	beq.n	8004c4e <HAL_RCCEx_PeriphCLKConfig+0x25e>
  {
    /* Check the parameters */
    assert_param(IS_RCC_I2C3CLKSOURCE(PeriphClkInit->I2c3ClockSelection));

    /* Configure the I2C3 clock source */
    __HAL_RCC_I2C3_CONFIG(PeriphClkInit->I2c3ClockSelection);
 8004c38:	4b64      	ldr	r3, [pc, #400]	@ (8004dcc <HAL_RCCEx_PeriphCLKConfig+0x3dc>)
 8004c3a:	f8d3 3088 	ldr.w	r3, [r3, #136]	@ 0x88
 8004c3e:	f423 3240 	bic.w	r2, r3, #196608	@ 0x30000
 8004c42:	687b      	ldr	r3, [r7, #4]
 8004c44:	6a1b      	ldr	r3, [r3, #32]
 8004c46:	4961      	ldr	r1, [pc, #388]	@ (8004dcc <HAL_RCCEx_PeriphCLKConfig+0x3dc>)
 8004c48:	4313      	orrs	r3, r2
 8004c4a:	f8c1 3088 	str.w	r3, [r1, #136]	@ 0x88
  }

#endif /* I2C4 */

  /*-------------------------- LPTIM1 clock source configuration ---------------------*/
  if(((PeriphClkInit->PeriphClockSelection) & RCC_PERIPHCLK_LPTIM1) == RCC_PERIPHCLK_LPTIM1)
 8004c4e:	687b      	ldr	r3, [r7, #4]
 8004c50:	681b      	ldr	r3, [r3, #0]
 8004c52:	f403 7300 	and.w	r3, r3, #512	@ 0x200
 8004c56:	2b00      	cmp	r3, #0
 8004c58:	d00a      	beq.n	8004c70 <HAL_RCCEx_PeriphCLKConfig+0x280>
  {
    /* Check the parameters */
    assert_param(IS_RCC_LPTIM1CLKSOURCE(PeriphClkInit->Lptim1ClockSelection));

    /* Configure the LPTIM1 clock source */
    __HAL_RCC_LPTIM1_CONFIG(PeriphClkInit->Lptim1ClockSelection);
 8004c5a:	4b5c      	ldr	r3, [pc, #368]	@ (8004dcc <HAL_RCCEx_PeriphCLKConfig+0x3dc>)
 8004c5c:	f8d3 3088 	ldr.w	r3, [r3, #136]	@ 0x88
 8004c60:	f423 2240 	bic.w	r2, r3, #786432	@ 0xc0000
 8004c64:	687b      	ldr	r3, [r7, #4]
 8004c66:	6a5b      	ldr	r3, [r3, #36]	@ 0x24
 8004c68:	4958      	ldr	r1, [pc, #352]	@ (8004dcc <HAL_RCCEx_PeriphCLKConfig+0x3dc>)
 8004c6a:	4313      	orrs	r3, r2
 8004c6c:	f8c1 3088 	str.w	r3, [r1, #136]	@ 0x88
  }

#if defined(SAI1) 
  /*-------------------------- SAI1 clock source configuration ---------------------*/
  if(((PeriphClkInit->PeriphClockSelection) & RCC_PERIPHCLK_SAI1) == RCC_PERIPHCLK_SAI1)
 8004c70:	687b      	ldr	r3, [r7, #4]
 8004c72:	681b      	ldr	r3, [r3, #0]
 8004c74:	f403 6380 	and.w	r3, r3, #1024	@ 0x400
 8004c78:	2b00      	cmp	r3, #0
 8004c7a:	d015      	beq.n	8004ca8 <HAL_RCCEx_PeriphCLKConfig+0x2b8>
  {
    /* Check the parameters */
    assert_param(IS_RCC_SAI1CLKSOURCE(PeriphClkInit->Sai1ClockSelection));

    /* Configure the SAI1 interface clock source */
    __HAL_RCC_SAI1_CONFIG(PeriphClkInit->Sai1ClockSelection);
 8004c7c:	4b53      	ldr	r3, [pc, #332]	@ (8004dcc <HAL_RCCEx_PeriphCLKConfig+0x3dc>)
 8004c7e:	f8d3 3088 	ldr.w	r3, [r3, #136]	@ 0x88
 8004c82:	f423 1240 	bic.w	r2, r3, #3145728	@ 0x300000
 8004c86:	687b      	ldr	r3, [r7, #4]
 8004c88:	6a9b      	ldr	r3, [r3, #40]	@ 0x28
 8004c8a:	4950      	ldr	r1, [pc, #320]	@ (8004dcc <HAL_RCCEx_PeriphCLKConfig+0x3dc>)
 8004c8c:	4313      	orrs	r3, r2
 8004c8e:	f8c1 3088 	str.w	r3, [r1, #136]	@ 0x88
    
    if(PeriphClkInit->Sai1ClockSelection == RCC_SAI1CLKSOURCE_PLL)
 8004c92:	687b      	ldr	r3, [r7, #4]
 8004c94:	6a9b      	ldr	r3, [r3, #40]	@ 0x28
 8004c96:	f5b3 1f80 	cmp.w	r3, #1048576	@ 0x100000
 8004c9a:	d105      	bne.n	8004ca8 <HAL_RCCEx_PeriphCLKConfig+0x2b8>
    {
      /* Enable PLL48M1CLK output */
      __HAL_RCC_PLLCLKOUT_ENABLE(RCC_PLL_48M1CLK);
 8004c9c:	4b4b      	ldr	r3, [pc, #300]	@ (8004dcc <HAL_RCCEx_PeriphCLKConfig+0x3dc>)
 8004c9e:	68db      	ldr	r3, [r3, #12]
 8004ca0:	4a4a      	ldr	r2, [pc, #296]	@ (8004dcc <HAL_RCCEx_PeriphCLKConfig+0x3dc>)
 8004ca2:	f443 1380 	orr.w	r3, r3, #1048576	@ 0x100000
 8004ca6:	60d3      	str	r3, [r2, #12]

#endif /* SAI1 */

#if defined(SPI_I2S_SUPPORT)
  /*-------------------------- I2S clock source configuration ---------------------*/
  if(((PeriphClkInit->PeriphClockSelection) & RCC_PERIPHCLK_I2S) == RCC_PERIPHCLK_I2S)
 8004ca8:	687b      	ldr	r3, [r7, #4]
 8004caa:	681b      	ldr	r3, [r3, #0]
 8004cac:	f403 6300 	and.w	r3, r3, #2048	@ 0x800
 8004cb0:	2b00      	cmp	r3, #0
 8004cb2:	d015      	beq.n	8004ce0 <HAL_RCCEx_PeriphCLKConfig+0x2f0>
  {
    /* Check the parameters */
    assert_param(IS_RCC_I2SCLKSOURCE(PeriphClkInit->I2sClockSelection));

    /* Configure the I2S interface clock source */
    __HAL_RCC_I2S_CONFIG(PeriphClkInit->I2sClockSelection);
 8004cb4:	4b45      	ldr	r3, [pc, #276]	@ (8004dcc <HAL_RCCEx_PeriphCLKConfig+0x3dc>)
 8004cb6:	f8d3 3088 	ldr.w	r3, [r3, #136]	@ 0x88
 8004cba:	f423 0240 	bic.w	r2, r3, #12582912	@ 0xc00000
 8004cbe:	687b      	ldr	r3, [r7, #4]
 8004cc0:	6adb      	ldr	r3, [r3, #44]	@ 0x2c
 8004cc2:	4942      	ldr	r1, [pc, #264]	@ (8004dcc <HAL_RCCEx_PeriphCLKConfig+0x3dc>)
 8004cc4:	4313      	orrs	r3, r2
 8004cc6:	f8c1 3088 	str.w	r3, [r1, #136]	@ 0x88
    
    if(PeriphClkInit->I2sClockSelection == RCC_I2SCLKSOURCE_PLL)
 8004cca:	687b      	ldr	r3, [r7, #4]
 8004ccc:	6adb      	ldr	r3, [r3, #44]	@ 0x2c
 8004cce:	f5b3 0f80 	cmp.w	r3, #4194304	@ 0x400000
 8004cd2:	d105      	bne.n	8004ce0 <HAL_RCCEx_PeriphCLKConfig+0x2f0>
    {
      /* Enable PLL48M1CLK output */
      __HAL_RCC_PLLCLKOUT_ENABLE(RCC_PLL_48M1CLK);
 8004cd4:	4b3d      	ldr	r3, [pc, #244]	@ (8004dcc <HAL_RCCEx_PeriphCLKConfig+0x3dc>)
 8004cd6:	68db      	ldr	r3, [r3, #12]
 8004cd8:	4a3c      	ldr	r2, [pc, #240]	@ (8004dcc <HAL_RCCEx_PeriphCLKConfig+0x3dc>)
 8004cda:	f443 1380 	orr.w	r3, r3, #1048576	@ 0x100000
 8004cde:	60d3      	str	r3, [r2, #12]

#endif /* SPI_I2S_SUPPORT */

#if defined(FDCAN1)
  /*-------------------------- FDCAN clock source configuration ---------------------*/
  if(((PeriphClkInit->PeriphClockSelection) & RCC_PERIPHCLK_FDCAN) == RCC_PERIPHCLK_FDCAN)
 8004ce0:	687b      	ldr	r3, [r7, #4]
 8004ce2:	681b      	ldr	r3, [r3, #0]
 8004ce4:	f403 5380 	and.w	r3, r3, #4096	@ 0x1000
 8004ce8:	2b00      	cmp	r3, #0
 8004cea:	d015      	beq.n	8004d18 <HAL_RCCEx_PeriphCLKConfig+0x328>
  {
    /* Check the parameters */
    assert_param(IS_RCC_FDCANCLKSOURCE(PeriphClkInit->FdcanClockSelection));

    /* Configure the FDCAN interface clock source */
    __HAL_RCC_FDCAN_CONFIG(PeriphClkInit->FdcanClockSelection);
 8004cec:	4b37      	ldr	r3, [pc, #220]	@ (8004dcc <HAL_RCCEx_PeriphCLKConfig+0x3dc>)
 8004cee:	f8d3 3088 	ldr.w	r3, [r3, #136]	@ 0x88
 8004cf2:	f023 7240 	bic.w	r2, r3, #50331648	@ 0x3000000
 8004cf6:	687b      	ldr	r3, [r7, #4]
 8004cf8:	6b1b      	ldr	r3, [r3, #48]	@ 0x30
 8004cfa:	4934      	ldr	r1, [pc, #208]	@ (8004dcc <HAL_RCCEx_PeriphCLKConfig+0x3dc>)
 8004cfc:	4313      	orrs	r3, r2
 8004cfe:	f8c1 3088 	str.w	r3, [r1, #136]	@ 0x88
    
    if(PeriphClkInit->FdcanClockSelection == RCC_FDCANCLKSOURCE_PLL)
 8004d02:	687b      	ldr	r3, [r7, #4]
 8004d04:	6b1b      	ldr	r3, [r3, #48]	@ 0x30
 8004d06:	f1b3 7f80 	cmp.w	r3, #16777216	@ 0x1000000
 8004d0a:	d105      	bne.n	8004d18 <HAL_RCCEx_PeriphCLKConfig+0x328>
    {
      /* Enable PLL48M1CLK output */
      __HAL_RCC_PLLCLKOUT_ENABLE(RCC_PLL_48M1CLK);
 8004d0c:	4b2f      	ldr	r3, [pc, #188]	@ (8004dcc <HAL_RCCEx_PeriphCLKConfig+0x3dc>)
 8004d0e:	68db      	ldr	r3, [r3, #12]
 8004d10:	4a2e      	ldr	r2, [pc, #184]	@ (8004dcc <HAL_RCCEx_PeriphCLKConfig+0x3dc>)
 8004d12:	f443 1380 	orr.w	r3, r3, #1048576	@ 0x100000
 8004d16:	60d3      	str	r3, [r2, #12]
#endif /* FDCAN1 */

#if defined(USB)

  /*-------------------------- USB clock source configuration ----------------------*/
  if(((PeriphClkInit->PeriphClockSelection) & RCC_PERIPHCLK_USB) == (RCC_PERIPHCLK_USB))
 8004d18:	687b      	ldr	r3, [r7, #4]
 8004d1a:	681b      	ldr	r3, [r3, #0]
 8004d1c:	f403 5300 	and.w	r3, r3, #8192	@ 0x2000
 8004d20:	2b00      	cmp	r3, #0
 8004d22:	d015      	beq.n	8004d50 <HAL_RCCEx_PeriphCLKConfig+0x360>
  {
    assert_param(IS_RCC_USBCLKSOURCE(PeriphClkInit->UsbClockSelection));
    __HAL_RCC_USB_CONFIG(PeriphClkInit->UsbClockSelection);
 8004d24:	4b29      	ldr	r3, [pc, #164]	@ (8004dcc <HAL_RCCEx_PeriphCLKConfig+0x3dc>)
 8004d26:	f8d3 3088 	ldr.w	r3, [r3, #136]	@ 0x88
 8004d2a:	f023 6240 	bic.w	r2, r3, #201326592	@ 0xc000000
 8004d2e:	687b      	ldr	r3, [r7, #4]
 8004d30:	6b5b      	ldr	r3, [r3, #52]	@ 0x34
 8004d32:	4926      	ldr	r1, [pc, #152]	@ (8004dcc <HAL_RCCEx_PeriphCLKConfig+0x3dc>)
 8004d34:	4313      	orrs	r3, r2
 8004d36:	f8c1 3088 	str.w	r3, [r1, #136]	@ 0x88

    if(PeriphClkInit->UsbClockSelection == RCC_USBCLKSOURCE_PLL)
 8004d3a:	687b      	ldr	r3, [r7, #4]
 8004d3c:	6b5b      	ldr	r3, [r3, #52]	@ 0x34
 8004d3e:	f1b3 6f00 	cmp.w	r3, #134217728	@ 0x8000000
 8004d42:	d105      	bne.n	8004d50 <HAL_RCCEx_PeriphCLKConfig+0x360>
    {
      /* Enable PLL48M1CLK output */
      __HAL_RCC_PLLCLKOUT_ENABLE(RCC_PLL_48M1CLK);
 8004d44:	4b21      	ldr	r3, [pc, #132]	@ (8004dcc <HAL_RCCEx_PeriphCLKConfig+0x3dc>)
 8004d46:	68db      	ldr	r3, [r3, #12]
 8004d48:	4a20      	ldr	r2, [pc, #128]	@ (8004dcc <HAL_RCCEx_PeriphCLKConfig+0x3dc>)
 8004d4a:	f443 1380 	orr.w	r3, r3, #1048576	@ 0x100000
 8004d4e:	60d3      	str	r3, [r2, #12]
  }

#endif /* USB */

  /*-------------------------- RNG clock source configuration ----------------------*/
  if(((PeriphClkInit->PeriphClockSelection) & RCC_PERIPHCLK_RNG) == (RCC_PERIPHCLK_RNG))
 8004d50:	687b      	ldr	r3, [r7, #4]
 8004d52:	681b      	ldr	r3, [r3, #0]
 8004d54:	f403 4380 	and.w	r3, r3, #16384	@ 0x4000
 8004d58:	2b00      	cmp	r3, #0
 8004d5a:	d015      	beq.n	8004d88 <HAL_RCCEx_PeriphCLKConfig+0x398>
  {
    assert_param(IS_RCC_RNGCLKSOURCE(PeriphClkInit->RngClockSelection));
    __HAL_RCC_RNG_CONFIG(PeriphClkInit->RngClockSelection);
 8004d5c:	4b1b      	ldr	r3, [pc, #108]	@ (8004dcc <HAL_RCCEx_PeriphCLKConfig+0x3dc>)
 8004d5e:	f8d3 3088 	ldr.w	r3, [r3, #136]	@ 0x88
 8004d62:	f023 6240 	bic.w	r2, r3, #201326592	@ 0xc000000
 8004d66:	687b      	ldr	r3, [r7, #4]
 8004d68:	6b9b      	ldr	r3, [r3, #56]	@ 0x38
 8004d6a:	4918      	ldr	r1, [pc, #96]	@ (8004dcc <HAL_RCCEx_PeriphCLKConfig+0x3dc>)
 8004d6c:	4313      	orrs	r3, r2
 8004d6e:	f8c1 3088 	str.w	r3, [r1, #136]	@ 0x88

    if(PeriphClkInit->RngClockSelection == RCC_RNGCLKSOURCE_PLL)
 8004d72:	687b      	ldr	r3, [r7, #4]
 8004d74:	6b9b      	ldr	r3, [r3, #56]	@ 0x38
 8004d76:	f1b3 6f00 	cmp.w	r3, #134217728	@ 0x8000000
 8004d7a:	d105      	bne.n	8004d88 <HAL_RCCEx_PeriphCLKConfig+0x398>
    {
      /* Enable PLL48M1CLK output */
      __HAL_RCC_PLLCLKOUT_ENABLE(RCC_PLL_48M1CLK);
 8004d7c:	4b13      	ldr	r3, [pc, #76]	@ (8004dcc <HAL_RCCEx_PeriphCLKConfig+0x3dc>)
 8004d7e:	68db      	ldr	r3, [r3, #12]
 8004d80:	4a12      	ldr	r2, [pc, #72]	@ (8004dcc <HAL_RCCEx_PeriphCLKConfig+0x3dc>)
 8004d82:	f443 1380 	orr.w	r3, r3, #1048576	@ 0x100000
 8004d86:	60d3      	str	r3, [r2, #12]
    }
  }

  /*-------------------------- ADC12 clock source configuration ----------------------*/
  if(((PeriphClkInit->PeriphClockSelection) & RCC_PERIPHCLK_ADC12) == RCC_PERIPHCLK_ADC12)
 8004d88:	687b      	ldr	r3, [r7, #4]
 8004d8a:	681b      	ldr	r3, [r3, #0]
 8004d8c:	f403 4300 	and.w	r3, r3, #32768	@ 0x8000
 8004d90:	2b00      	cmp	r3, #0
 8004d92:	d015      	beq.n	8004dc0 <HAL_RCCEx_PeriphCLKConfig+0x3d0>
  {
    /* Check the parameters */
    assert_param(IS_RCC_ADC12CLKSOURCE(PeriphClkInit->Adc12ClockSelection));

    /* Configure the ADC12 interface clock source */
    __HAL_RCC_ADC12_CONFIG(PeriphClkInit->Adc12ClockSelection);
 8004d94:	4b0d      	ldr	r3, [pc, #52]	@ (8004dcc <HAL_RCCEx_PeriphCLKConfig+0x3dc>)
 8004d96:	f8d3 3088 	ldr.w	r3, [r3, #136]	@ 0x88
 8004d9a:	f023 5240 	bic.w	r2, r3, #805306368	@ 0x30000000
 8004d9e:	687b      	ldr	r3, [r7, #4]
 8004da0:	6bdb      	ldr	r3, [r3, #60]	@ 0x3c
 8004da2:	490a      	ldr	r1, [pc, #40]	@ (8004dcc <HAL_RCCEx_PeriphCLKConfig+0x3dc>)
 8004da4:	4313      	orrs	r3, r2
 8004da6:	f8c1 3088 	str.w	r3, [r1, #136]	@ 0x88
    
    if(PeriphClkInit->Adc12ClockSelection == RCC_ADC12CLKSOURCE_PLL)
 8004daa:	687b      	ldr	r3, [r7, #4]
 8004dac:	6bdb      	ldr	r3, [r3, #60]	@ 0x3c
 8004dae:	f1b3 5f80 	cmp.w	r3, #268435456	@ 0x10000000
 8004db2:	d105      	bne.n	8004dc0 <HAL_RCCEx_PeriphCLKConfig+0x3d0>
    {
      /* Enable PLLADCCLK output */
      __HAL_RCC_PLLCLKOUT_ENABLE(RCC_PLL_ADCCLK);
 8004db4:	4b05      	ldr	r3, [pc, #20]	@ (8004dcc <HAL_RCCEx_PeriphCLKConfig+0x3dc>)
 8004db6:	68db      	ldr	r3, [r3, #12]
 8004db8:	4a04      	ldr	r2, [pc, #16]	@ (8004dcc <HAL_RCCEx_PeriphCLKConfig+0x3dc>)
 8004dba:	f443 3380 	orr.w	r3, r3, #65536	@ 0x10000
 8004dbe:	60d3      	str	r3, [r2, #12]
    }
  }

#endif /* QUADSPI */

  return status;
 8004dc0:	7cbb      	ldrb	r3, [r7, #18]
}
 8004dc2:	4618      	mov	r0, r3
 8004dc4:	3718      	adds	r7, #24
 8004dc6:	46bd      	mov	sp, r7
 8004dc8:	bd80      	pop	{r7, pc}
 8004dca:	bf00      	nop
 8004dcc:	40021000 	.word	0x40021000

08004dd0 <HAL_UART_Init>:
  *        parameters in the UART_InitTypeDef and initialize the associated handle.
  * @param huart UART handle.
  * @retval HAL status
  */
HAL_StatusTypeDef HAL_UART_Init(UART_HandleTypeDef *huart)
{
 8004dd0:	b580      	push	{r7, lr}
 8004dd2:	b082      	sub	sp, #8
 8004dd4:	af00      	add	r7, sp, #0
 8004dd6:	6078      	str	r0, [r7, #4]
  /* Check the UART handle allocation */
  if (huart == NULL)
 8004dd8:	687b      	ldr	r3, [r7, #4]
 8004dda:	2b00      	cmp	r3, #0
 8004ddc:	d101      	bne.n	8004de2 <HAL_UART_Init+0x12>
  {
    return HAL_ERROR;
 8004dde:	2301      	movs	r3, #1
 8004de0:	e042      	b.n	8004e68 <HAL_UART_Init+0x98>
  {
    /* Check the parameters */
    assert_param((IS_UART_INSTANCE(huart->Instance)) || (IS_LPUART_INSTANCE(huart->Instance)));
  }

  if (huart->gState == HAL_UART_STATE_RESET)
 8004de2:	687b      	ldr	r3, [r7, #4]
 8004de4:	f8d3 3088 	ldr.w	r3, [r3, #136]	@ 0x88
 8004de8:	2b00      	cmp	r3, #0
 8004dea:	d106      	bne.n	8004dfa <HAL_UART_Init+0x2a>
  {
    /* Allocate lock resource and initialize it */
    huart->Lock = HAL_UNLOCKED;
 8004dec:	687b      	ldr	r3, [r7, #4]
 8004dee:	2200      	movs	r2, #0
 8004df0:	f883 2084 	strb.w	r2, [r3, #132]	@ 0x84

    /* Init the low level hardware */
    huart->MspInitCallback(huart);
#else
    /* Init the low level hardware : GPIO, CLOCK */
    HAL_UART_MspInit(huart);
 8004df4:	6878      	ldr	r0, [r7, #4]
 8004df6:	f000 f83b 	bl	8004e70 <HAL_UART_MspInit>
#endif /* (USE_HAL_UART_REGISTER_CALLBACKS) */
  }

  huart->gState = HAL_UART_STATE_BUSY;
 8004dfa:	687b      	ldr	r3, [r7, #4]
 8004dfc:	2224      	movs	r2, #36	@ 0x24
 8004dfe:	f8c3 2088 	str.w	r2, [r3, #136]	@ 0x88

  __HAL_UART_DISABLE(huart);
 8004e02:	687b      	ldr	r3, [r7, #4]
 8004e04:	681b      	ldr	r3, [r3, #0]
 8004e06:	681a      	ldr	r2, [r3, #0]
 8004e08:	687b      	ldr	r3, [r7, #4]
 8004e0a:	681b      	ldr	r3, [r3, #0]
 8004e0c:	f022 0201 	bic.w	r2, r2, #1
 8004e10:	601a      	str	r2, [r3, #0]

  /* Perform advanced settings configuration */
  /* For some items, configuration requires to be done prior TE and RE bits are set */
  if (huart->AdvancedInit.AdvFeatureInit != UART_ADVFEATURE_NO_INIT)
 8004e12:	687b      	ldr	r3, [r7, #4]
 8004e14:	6a9b      	ldr	r3, [r3, #40]	@ 0x28
 8004e16:	2b00      	cmp	r3, #0
 8004e18:	d002      	beq.n	8004e20 <HAL_UART_Init+0x50>
  {
    UART_AdvFeatureConfig(huart);
 8004e1a:	6878      	ldr	r0, [r7, #4]
 8004e1c:	f000 fafe 	bl	800541c <UART_AdvFeatureConfig>
  }

  /* Set the UART Communication parameters */
  if (UART_SetConfig(huart) == HAL_ERROR)
 8004e20:	6878      	ldr	r0, [r7, #4]
 8004e22:	f000 f82f 	bl	8004e84 <UART_SetConfig>
 8004e26:	4603      	mov	r3, r0
 8004e28:	2b01      	cmp	r3, #1
 8004e2a:	d101      	bne.n	8004e30 <HAL_UART_Init+0x60>
  {
    return HAL_ERROR;
 8004e2c:	2301      	movs	r3, #1
 8004e2e:	e01b      	b.n	8004e68 <HAL_UART_Init+0x98>
  }

  /* In asynchronous mode, the following bits must be kept cleared:
  - LINEN and CLKEN bits in the USART_CR2 register,
  - SCEN, HDSEL and IREN  bits in the USART_CR3 register.*/
  CLEAR_BIT(huart->Instance->CR2, (USART_CR2_LINEN | USART_CR2_CLKEN));
 8004e30:	687b      	ldr	r3, [r7, #4]
 8004e32:	681b      	ldr	r3, [r3, #0]
 8004e34:	685a      	ldr	r2, [r3, #4]
 8004e36:	687b      	ldr	r3, [r7, #4]
 8004e38:	681b      	ldr	r3, [r3, #0]
 8004e3a:	f422 4290 	bic.w	r2, r2, #18432	@ 0x4800
 8004e3e:	605a      	str	r2, [r3, #4]
  CLEAR_BIT(huart->Instance->CR3, (USART_CR3_SCEN | USART_CR3_HDSEL | USART_CR3_IREN));
 8004e40:	687b      	ldr	r3, [r7, #4]
 8004e42:	681b      	ldr	r3, [r3, #0]
 8004e44:	689a      	ldr	r2, [r3, #8]
 8004e46:	687b      	ldr	r3, [r7, #4]
 8004e48:	681b      	ldr	r3, [r3, #0]
 8004e4a:	f022 022a 	bic.w	r2, r2, #42	@ 0x2a
 8004e4e:	609a      	str	r2, [r3, #8]

  __HAL_UART_ENABLE(huart);
 8004e50:	687b      	ldr	r3, [r7, #4]
 8004e52:	681b      	ldr	r3, [r3, #0]
 8004e54:	681a      	ldr	r2, [r3, #0]
 8004e56:	687b      	ldr	r3, [r7, #4]
 8004e58:	681b      	ldr	r3, [r3, #0]
 8004e5a:	f042 0201 	orr.w	r2, r2, #1
 8004e5e:	601a      	str	r2, [r3, #0]

  /* TEACK and/or REACK to check before moving huart->gState and huart->RxState to Ready */
  return (UART_CheckIdleState(huart));
 8004e60:	6878      	ldr	r0, [r7, #4]
 8004e62:	f000 fb7d 	bl	8005560 <UART_CheckIdleState>
 8004e66:	4603      	mov	r3, r0
}
 8004e68:	4618      	mov	r0, r3
 8004e6a:	3708      	adds	r7, #8
 8004e6c:	46bd      	mov	sp, r7
 8004e6e:	bd80      	pop	{r7, pc}

08004e70 <HAL_UART_MspInit>:
  * @brief Initialize the UART MSP.
  * @param huart UART handle.
  * @retval None
  */
__weak void HAL_UART_MspInit(UART_HandleTypeDef *huart)
{
 8004e70:	b480      	push	{r7}
 8004e72:	b083      	sub	sp, #12
 8004e74:	af00      	add	r7, sp, #0
 8004e76:	6078      	str	r0, [r7, #4]
  UNUSED(huart);

  /* NOTE : This function should not be modified, when the callback is needed,
            the HAL_UART_MspInit can be implemented in the user file
   */
}
 8004e78:	bf00      	nop
 8004e7a:	370c      	adds	r7, #12
 8004e7c:	46bd      	mov	sp, r7
 8004e7e:	f85d 7b04 	ldr.w	r7, [sp], #4
 8004e82:	4770      	bx	lr

08004e84 <UART_SetConfig>:
  * @brief Configure the UART peripheral.
  * @param huart UART handle.
  * @retval HAL status
  */
HAL_StatusTypeDef UART_SetConfig(UART_HandleTypeDef *huart)
{
 8004e84:	e92d 4fb0 	stmdb	sp!, {r4, r5, r7, r8, r9, sl, fp, lr}
 8004e88:	b08c      	sub	sp, #48	@ 0x30
 8004e8a:	af00      	add	r7, sp, #0
 8004e8c:	6178      	str	r0, [r7, #20]
  uint32_t tmpreg;
  uint16_t brrtemp;
  UART_ClockSourceTypeDef clocksource;
  uint32_t usartdiv;
  HAL_StatusTypeDef ret               = HAL_OK;
 8004e8e:	2300      	movs	r3, #0
 8004e90:	f887 302a 	strb.w	r3, [r7, #42]	@ 0x2a
  *  the UART Word Length, Parity, Mode and oversampling:
  *  set the M bits according to huart->Init.WordLength value
  *  set PCE and PS bits according to huart->Init.Parity value
  *  set TE and RE bits according to huart->Init.Mode value
  *  set OVER8 bit according to huart->Init.OverSampling value */
  tmpreg = (uint32_t)huart->Init.WordLength | huart->Init.Parity | huart->Init.Mode | huart->Init.OverSampling ;
 8004e94:	697b      	ldr	r3, [r7, #20]
 8004e96:	689a      	ldr	r2, [r3, #8]
 8004e98:	697b      	ldr	r3, [r7, #20]
 8004e9a:	691b      	ldr	r3, [r3, #16]
 8004e9c:	431a      	orrs	r2, r3
 8004e9e:	697b      	ldr	r3, [r7, #20]
 8004ea0:	695b      	ldr	r3, [r3, #20]
 8004ea2:	431a      	orrs	r2, r3
 8004ea4:	697b      	ldr	r3, [r7, #20]
 8004ea6:	69db      	ldr	r3, [r3, #28]
 8004ea8:	4313      	orrs	r3, r2
 8004eaa:	62fb      	str	r3, [r7, #44]	@ 0x2c
  MODIFY_REG(huart->Instance->CR1, USART_CR1_FIELDS, tmpreg);
 8004eac:	697b      	ldr	r3, [r7, #20]
 8004eae:	681b      	ldr	r3, [r3, #0]
 8004eb0:	681a      	ldr	r2, [r3, #0]
 8004eb2:	4bab      	ldr	r3, [pc, #684]	@ (8005160 <UART_SetConfig+0x2dc>)
 8004eb4:	4013      	ands	r3, r2
 8004eb6:	697a      	ldr	r2, [r7, #20]
 8004eb8:	6812      	ldr	r2, [r2, #0]
 8004eba:	6af9      	ldr	r1, [r7, #44]	@ 0x2c
 8004ebc:	430b      	orrs	r3, r1
 8004ebe:	6013      	str	r3, [r2, #0]

  /*-------------------------- USART CR2 Configuration -----------------------*/
  /* Configure the UART Stop Bits: Set STOP[13:12] bits according
  * to huart->Init.StopBits value */
  MODIFY_REG(huart->Instance->CR2, USART_CR2_STOP, huart->Init.StopBits);
 8004ec0:	697b      	ldr	r3, [r7, #20]
 8004ec2:	681b      	ldr	r3, [r3, #0]
 8004ec4:	685b      	ldr	r3, [r3, #4]
 8004ec6:	f423 5140 	bic.w	r1, r3, #12288	@ 0x3000
 8004eca:	697b      	ldr	r3, [r7, #20]
 8004ecc:	68da      	ldr	r2, [r3, #12]
 8004ece:	697b      	ldr	r3, [r7, #20]
 8004ed0:	681b      	ldr	r3, [r3, #0]
 8004ed2:	430a      	orrs	r2, r1
 8004ed4:	605a      	str	r2, [r3, #4]
  /* Configure
  * - UART HardWare Flow Control: set CTSE and RTSE bits according
  *   to huart->Init.HwFlowCtl value
  * - one-bit sampling method versus three samples' majority rule according
  *   to huart->Init.OneBitSampling (not applicable to LPUART) */
  tmpreg = (uint32_t)huart->Init.HwFlowCtl;
 8004ed6:	697b      	ldr	r3, [r7, #20]
 8004ed8:	699b      	ldr	r3, [r3, #24]
 8004eda:	62fb      	str	r3, [r7, #44]	@ 0x2c

  if (!(UART_INSTANCE_LOWPOWER(huart)))
 8004edc:	697b      	ldr	r3, [r7, #20]
 8004ede:	681b      	ldr	r3, [r3, #0]
 8004ee0:	4aa0      	ldr	r2, [pc, #640]	@ (8005164 <UART_SetConfig+0x2e0>)
 8004ee2:	4293      	cmp	r3, r2
 8004ee4:	d004      	beq.n	8004ef0 <UART_SetConfig+0x6c>
  {
    tmpreg |= huart->Init.OneBitSampling;
 8004ee6:	697b      	ldr	r3, [r7, #20]
 8004ee8:	6a1b      	ldr	r3, [r3, #32]
 8004eea:	6afa      	ldr	r2, [r7, #44]	@ 0x2c
 8004eec:	4313      	orrs	r3, r2
 8004eee:	62fb      	str	r3, [r7, #44]	@ 0x2c
  }
  MODIFY_REG(huart->Instance->CR3, USART_CR3_FIELDS, tmpreg);
 8004ef0:	697b      	ldr	r3, [r7, #20]
 8004ef2:	681b      	ldr	r3, [r3, #0]
 8004ef4:	689b      	ldr	r3, [r3, #8]
 8004ef6:	f023 436e 	bic.w	r3, r3, #3992977408	@ 0xee000000
 8004efa:	f423 6330 	bic.w	r3, r3, #2816	@ 0xb00
 8004efe:	697a      	ldr	r2, [r7, #20]
 8004f00:	6812      	ldr	r2, [r2, #0]
 8004f02:	6af9      	ldr	r1, [r7, #44]	@ 0x2c
 8004f04:	430b      	orrs	r3, r1
 8004f06:	6093      	str	r3, [r2, #8]

  /*-------------------------- USART PRESC Configuration -----------------------*/
  /* Configure
  * - UART Clock Prescaler : set PRESCALER according to huart->Init.ClockPrescaler value */
  MODIFY_REG(huart->Instance->PRESC, USART_PRESC_PRESCALER, huart->Init.ClockPrescaler);
 8004f08:	697b      	ldr	r3, [r7, #20]
 8004f0a:	681b      	ldr	r3, [r3, #0]
 8004f0c:	6adb      	ldr	r3, [r3, #44]	@ 0x2c
 8004f0e:	f023 010f 	bic.w	r1, r3, #15
 8004f12:	697b      	ldr	r3, [r7, #20]
 8004f14:	6a5a      	ldr	r2, [r3, #36]	@ 0x24
 8004f16:	697b      	ldr	r3, [r7, #20]
 8004f18:	681b      	ldr	r3, [r3, #0]
 8004f1a:	430a      	orrs	r2, r1
 8004f1c:	62da      	str	r2, [r3, #44]	@ 0x2c

  /*-------------------------- USART BRR Configuration -----------------------*/
  UART_GETCLOCKSOURCE(huart, clocksource);
 8004f1e:	697b      	ldr	r3, [r7, #20]
 8004f20:	681b      	ldr	r3, [r3, #0]
 8004f22:	4a91      	ldr	r2, [pc, #580]	@ (8005168 <UART_SetConfig+0x2e4>)
 8004f24:	4293      	cmp	r3, r2
 8004f26:	d125      	bne.n	8004f74 <UART_SetConfig+0xf0>
 8004f28:	4b90      	ldr	r3, [pc, #576]	@ (800516c <UART_SetConfig+0x2e8>)
 8004f2a:	f8d3 3088 	ldr.w	r3, [r3, #136]	@ 0x88
 8004f2e:	f003 0303 	and.w	r3, r3, #3
 8004f32:	2b03      	cmp	r3, #3
 8004f34:	d81a      	bhi.n	8004f6c <UART_SetConfig+0xe8>
 8004f36:	a201      	add	r2, pc, #4	@ (adr r2, 8004f3c <UART_SetConfig+0xb8>)
 8004f38:	f852 f023 	ldr.w	pc, [r2, r3, lsl #2]
 8004f3c:	08004f4d 	.word	0x08004f4d
 8004f40:	08004f5d 	.word	0x08004f5d
 8004f44:	08004f55 	.word	0x08004f55
 8004f48:	08004f65 	.word	0x08004f65
 8004f4c:	2301      	movs	r3, #1
 8004f4e:	f887 302b 	strb.w	r3, [r7, #43]	@ 0x2b
 8004f52:	e0d6      	b.n	8005102 <UART_SetConfig+0x27e>
 8004f54:	2302      	movs	r3, #2
 8004f56:	f887 302b 	strb.w	r3, [r7, #43]	@ 0x2b
 8004f5a:	e0d2      	b.n	8005102 <UART_SetConfig+0x27e>
 8004f5c:	2304      	movs	r3, #4
 8004f5e:	f887 302b 	strb.w	r3, [r7, #43]	@ 0x2b
 8004f62:	e0ce      	b.n	8005102 <UART_SetConfig+0x27e>
 8004f64:	2308      	movs	r3, #8
 8004f66:	f887 302b 	strb.w	r3, [r7, #43]	@ 0x2b
 8004f6a:	e0ca      	b.n	8005102 <UART_SetConfig+0x27e>
 8004f6c:	2310      	movs	r3, #16
 8004f6e:	f887 302b 	strb.w	r3, [r7, #43]	@ 0x2b
 8004f72:	e0c6      	b.n	8005102 <UART_SetConfig+0x27e>
 8004f74:	697b      	ldr	r3, [r7, #20]
 8004f76:	681b      	ldr	r3, [r3, #0]
 8004f78:	4a7d      	ldr	r2, [pc, #500]	@ (8005170 <UART_SetConfig+0x2ec>)
 8004f7a:	4293      	cmp	r3, r2
 8004f7c:	d138      	bne.n	8004ff0 <UART_SetConfig+0x16c>
 8004f7e:	4b7b      	ldr	r3, [pc, #492]	@ (800516c <UART_SetConfig+0x2e8>)
 8004f80:	f8d3 3088 	ldr.w	r3, [r3, #136]	@ 0x88
 8004f84:	f003 030c 	and.w	r3, r3, #12
 8004f88:	2b0c      	cmp	r3, #12
 8004f8a:	d82d      	bhi.n	8004fe8 <UART_SetConfig+0x164>
 8004f8c:	a201      	add	r2, pc, #4	@ (adr r2, 8004f94 <UART_SetConfig+0x110>)
 8004f8e:	f852 f023 	ldr.w	pc, [r2, r3, lsl #2]
 8004f92:	bf00      	nop
 8004f94:	08004fc9 	.word	0x08004fc9
 8004f98:	08004fe9 	.word	0x08004fe9
 8004f9c:	08004fe9 	.word	0x08004fe9
 8004fa0:	08004fe9 	.word	0x08004fe9
 8004fa4:	08004fd9 	.word	0x08004fd9
 8004fa8:	08004fe9 	.word	0x08004fe9
 8004fac:	08004fe9 	.word	0x08004fe9
 8004fb0:	08004fe9 	.word	0x08004fe9
 8004fb4:	08004fd1 	.word	0x08004fd1
 8004fb8:	08004fe9 	.word	0x08004fe9
 8004fbc:	08004fe9 	.word	0x08004fe9
 8004fc0:	08004fe9 	.word	0x08004fe9
 8004fc4:	08004fe1 	.word	0x08004fe1
 8004fc8:	2300      	movs	r3, #0
 8004fca:	f887 302b 	strb.w	r3, [r7, #43]	@ 0x2b
 8004fce:	e098      	b.n	8005102 <UART_SetConfig+0x27e>
 8004fd0:	2302      	movs	r3, #2
 8004fd2:	f887 302b 	strb.w	r3, [r7, #43]	@ 0x2b
 8004fd6:	e094      	b.n	8005102 <UART_SetConfig+0x27e>
 8004fd8:	2304      	movs	r3, #4
 8004fda:	f887 302b 	strb.w	r3, [r7, #43]	@ 0x2b
 8004fde:	e090      	b.n	8005102 <UART_SetConfig+0x27e>
 8004fe0:	2308      	movs	r3, #8
 8004fe2:	f887 302b 	strb.w	r3, [r7, #43]	@ 0x2b
 8004fe6:	e08c      	b.n	8005102 <UART_SetConfig+0x27e>
 8004fe8:	2310      	movs	r3, #16
 8004fea:	f887 302b 	strb.w	r3, [r7, #43]	@ 0x2b
 8004fee:	e088      	b.n	8005102 <UART_SetConfig+0x27e>
 8004ff0:	697b      	ldr	r3, [r7, #20]
 8004ff2:	681b      	ldr	r3, [r3, #0]
 8004ff4:	4a5f      	ldr	r2, [pc, #380]	@ (8005174 <UART_SetConfig+0x2f0>)
 8004ff6:	4293      	cmp	r3, r2
 8004ff8:	d125      	bne.n	8005046 <UART_SetConfig+0x1c2>
 8004ffa:	4b5c      	ldr	r3, [pc, #368]	@ (800516c <UART_SetConfig+0x2e8>)
 8004ffc:	f8d3 3088 	ldr.w	r3, [r3, #136]	@ 0x88
 8005000:	f003 0330 	and.w	r3, r3, #48	@ 0x30
 8005004:	2b30      	cmp	r3, #48	@ 0x30
 8005006:	d016      	beq.n	8005036 <UART_SetConfig+0x1b2>
 8005008:	2b30      	cmp	r3, #48	@ 0x30
 800500a:	d818      	bhi.n	800503e <UART_SetConfig+0x1ba>
 800500c:	2b20      	cmp	r3, #32
 800500e:	d00a      	beq.n	8005026 <UART_SetConfig+0x1a2>
 8005010:	2b20      	cmp	r3, #32
 8005012:	d814      	bhi.n	800503e <UART_SetConfig+0x1ba>
 8005014:	2b00      	cmp	r3, #0
 8005016:	d002      	beq.n	800501e <UART_SetConfig+0x19a>
 8005018:	2b10      	cmp	r3, #16
 800501a:	d008      	beq.n	800502e <UART_SetConfig+0x1aa>
 800501c:	e00f      	b.n	800503e <UART_SetConfig+0x1ba>
 800501e:	2300      	movs	r3, #0
 8005020:	f887 302b 	strb.w	r3, [r7, #43]	@ 0x2b
 8005024:	e06d      	b.n	8005102 <UART_SetConfig+0x27e>
 8005026:	2302      	movs	r3, #2
 8005028:	f887 302b 	strb.w	r3, [r7, #43]	@ 0x2b
 800502c:	e069      	b.n	8005102 <UART_SetConfig+0x27e>
 800502e:	2304      	movs	r3, #4
 8005030:	f887 302b 	strb.w	r3, [r7, #43]	@ 0x2b
 8005034:	e065      	b.n	8005102 <UART_SetConfig+0x27e>
 8005036:	2308      	movs	r3, #8
 8005038:	f887 302b 	strb.w	r3, [r7, #43]	@ 0x2b
 800503c:	e061      	b.n	8005102 <UART_SetConfig+0x27e>
 800503e:	2310      	movs	r3, #16
 8005040:	f887 302b 	strb.w	r3, [r7, #43]	@ 0x2b
 8005044:	e05d      	b.n	8005102 <UART_SetConfig+0x27e>
 8005046:	697b      	ldr	r3, [r7, #20]
 8005048:	681b      	ldr	r3, [r3, #0]
 800504a:	4a4b      	ldr	r2, [pc, #300]	@ (8005178 <UART_SetConfig+0x2f4>)
 800504c:	4293      	cmp	r3, r2
 800504e:	d125      	bne.n	800509c <UART_SetConfig+0x218>
 8005050:	4b46      	ldr	r3, [pc, #280]	@ (800516c <UART_SetConfig+0x2e8>)
 8005052:	f8d3 3088 	ldr.w	r3, [r3, #136]	@ 0x88
 8005056:	f003 03c0 	and.w	r3, r3, #192	@ 0xc0
 800505a:	2bc0      	cmp	r3, #192	@ 0xc0
 800505c:	d016      	beq.n	800508c <UART_SetConfig+0x208>
 800505e:	2bc0      	cmp	r3, #192	@ 0xc0
 8005060:	d818      	bhi.n	8005094 <UART_SetConfig+0x210>
 8005062:	2b80      	cmp	r3, #128	@ 0x80
 8005064:	d00a      	beq.n	800507c <UART_SetConfig+0x1f8>
 8005066:	2b80      	cmp	r3, #128	@ 0x80
 8005068:	d814      	bhi.n	8005094 <UART_SetConfig+0x210>
 800506a:	2b00      	cmp	r3, #0
 800506c:	d002      	beq.n	8005074 <UART_SetConfig+0x1f0>
 800506e:	2b40      	cmp	r3, #64	@ 0x40
 8005070:	d008      	beq.n	8005084 <UART_SetConfig+0x200>
 8005072:	e00f      	b.n	8005094 <UART_SetConfig+0x210>
 8005074:	2300      	movs	r3, #0
 8005076:	f887 302b 	strb.w	r3, [r7, #43]	@ 0x2b
 800507a:	e042      	b.n	8005102 <UART_SetConfig+0x27e>
 800507c:	2302      	movs	r3, #2
 800507e:	f887 302b 	strb.w	r3, [r7, #43]	@ 0x2b
 8005082:	e03e      	b.n	8005102 <UART_SetConfig+0x27e>
 8005084:	2304      	movs	r3, #4
 8005086:	f887 302b 	strb.w	r3, [r7, #43]	@ 0x2b
 800508a:	e03a      	b.n	8005102 <UART_SetConfig+0x27e>
 800508c:	2308      	movs	r3, #8
 800508e:	f887 302b 	strb.w	r3, [r7, #43]	@ 0x2b
 8005092:	e036      	b.n	8005102 <UART_SetConfig+0x27e>
 8005094:	2310      	movs	r3, #16
 8005096:	f887 302b 	strb.w	r3, [r7, #43]	@ 0x2b
 800509a:	e032      	b.n	8005102 <UART_SetConfig+0x27e>
 800509c:	697b      	ldr	r3, [r7, #20]
 800509e:	681b      	ldr	r3, [r3, #0]
 80050a0:	4a30      	ldr	r2, [pc, #192]	@ (8005164 <UART_SetConfig+0x2e0>)
 80050a2:	4293      	cmp	r3, r2
 80050a4:	d12a      	bne.n	80050fc <UART_SetConfig+0x278>
 80050a6:	4b31      	ldr	r3, [pc, #196]	@ (800516c <UART_SetConfig+0x2e8>)
 80050a8:	f8d3 3088 	ldr.w	r3, [r3, #136]	@ 0x88
 80050ac:	f403 6340 	and.w	r3, r3, #3072	@ 0xc00
 80050b0:	f5b3 6f40 	cmp.w	r3, #3072	@ 0xc00
 80050b4:	d01a      	beq.n	80050ec <UART_SetConfig+0x268>
 80050b6:	f5b3 6f40 	cmp.w	r3, #3072	@ 0xc00
 80050ba:	d81b      	bhi.n	80050f4 <UART_SetConfig+0x270>
 80050bc:	f5b3 6f00 	cmp.w	r3, #2048	@ 0x800
 80050c0:	d00c      	beq.n	80050dc <UART_SetConfig+0x258>
 80050c2:	f5b3 6f00 	cmp.w	r3, #2048	@ 0x800
 80050c6:	d815      	bhi.n	80050f4 <UART_SetConfig+0x270>
 80050c8:	2b00      	cmp	r3, #0
 80050ca:	d003      	beq.n	80050d4 <UART_SetConfig+0x250>
 80050cc:	f5b3 6f80 	cmp.w	r3, #1024	@ 0x400
 80050d0:	d008      	beq.n	80050e4 <UART_SetConfig+0x260>
 80050d2:	e00f      	b.n	80050f4 <UART_SetConfig+0x270>
 80050d4:	2300      	movs	r3, #0
 80050d6:	f887 302b 	strb.w	r3, [r7, #43]	@ 0x2b
 80050da:	e012      	b.n	8005102 <UART_SetConfig+0x27e>
 80050dc:	2302      	movs	r3, #2
 80050de:	f887 302b 	strb.w	r3, [r7, #43]	@ 0x2b
 80050e2:	e00e      	b.n	8005102 <UART_SetConfig+0x27e>
 80050e4:	2304      	movs	r3, #4
 80050e6:	f887 302b 	strb.w	r3, [r7, #43]	@ 0x2b
 80050ea:	e00a      	b.n	8005102 <UART_SetConfig+0x27e>
 80050ec:	2308      	movs	r3, #8
 80050ee:	f887 302b 	strb.w	r3, [r7, #43]	@ 0x2b
 80050f2:	e006      	b.n	8005102 <UART_SetConfig+0x27e>
 80050f4:	2310      	movs	r3, #16
 80050f6:	f887 302b 	strb.w	r3, [r7, #43]	@ 0x2b
 80050fa:	e002      	b.n	8005102 <UART_SetConfig+0x27e>
 80050fc:	2310      	movs	r3, #16
 80050fe:	f887 302b 	strb.w	r3, [r7, #43]	@ 0x2b

  /* Check LPUART instance */
  if (UART_INSTANCE_LOWPOWER(huart))
 8005102:	697b      	ldr	r3, [r7, #20]
 8005104:	681b      	ldr	r3, [r3, #0]
 8005106:	4a17      	ldr	r2, [pc, #92]	@ (8005164 <UART_SetConfig+0x2e0>)
 8005108:	4293      	cmp	r3, r2
 800510a:	f040 80a8 	bne.w	800525e <UART_SetConfig+0x3da>
  {
    /* Retrieve frequency clock */
    switch (clocksource)
 800510e:	f897 302b 	ldrb.w	r3, [r7, #43]	@ 0x2b
 8005112:	2b08      	cmp	r3, #8
 8005114:	d834      	bhi.n	8005180 <UART_SetConfig+0x2fc>
 8005116:	a201      	add	r2, pc, #4	@ (adr r2, 800511c <UART_SetConfig+0x298>)
 8005118:	f852 f023 	ldr.w	pc, [r2, r3, lsl #2]
 800511c:	08005141 	.word	0x08005141
 8005120:	08005181 	.word	0x08005181
 8005124:	08005149 	.word	0x08005149
 8005128:	08005181 	.word	0x08005181
 800512c:	0800514f 	.word	0x0800514f
 8005130:	08005181 	.word	0x08005181
 8005134:	08005181 	.word	0x08005181
 8005138:	08005181 	.word	0x08005181
 800513c:	08005157 	.word	0x08005157
    {
      case UART_CLOCKSOURCE_PCLK1:
        pclk = HAL_RCC_GetPCLK1Freq();
 8005140:	f7ff fbe4 	bl	800490c <HAL_RCC_GetPCLK1Freq>
 8005144:	6278      	str	r0, [r7, #36]	@ 0x24
        break;
 8005146:	e021      	b.n	800518c <UART_SetConfig+0x308>
      case UART_CLOCKSOURCE_HSI:
        pclk = (uint32_t) HSI_VALUE;
 8005148:	4b0c      	ldr	r3, [pc, #48]	@ (800517c <UART_SetConfig+0x2f8>)
 800514a:	627b      	str	r3, [r7, #36]	@ 0x24
        break;
 800514c:	e01e      	b.n	800518c <UART_SetConfig+0x308>
      case UART_CLOCKSOURCE_SYSCLK:
        pclk = HAL_RCC_GetSysClockFreq();
 800514e:	f7ff fb6f 	bl	8004830 <HAL_RCC_GetSysClockFreq>
 8005152:	6278      	str	r0, [r7, #36]	@ 0x24
        break;
 8005154:	e01a      	b.n	800518c <UART_SetConfig+0x308>
      case UART_CLOCKSOURCE_LSE:
        pclk = (uint32_t) LSE_VALUE;
 8005156:	f44f 4300 	mov.w	r3, #32768	@ 0x8000
 800515a:	627b      	str	r3, [r7, #36]	@ 0x24
        break;
 800515c:	e016      	b.n	800518c <UART_SetConfig+0x308>
 800515e:	bf00      	nop
 8005160:	cfff69f3 	.word	0xcfff69f3
 8005164:	40008000 	.word	0x40008000
 8005168:	40013800 	.word	0x40013800
 800516c:	40021000 	.word	0x40021000
 8005170:	40004400 	.word	0x40004400
 8005174:	40004800 	.word	0x40004800
 8005178:	40004c00 	.word	0x40004c00
 800517c:	00f42400 	.word	0x00f42400
      default:
        pclk = 0U;
 8005180:	2300      	movs	r3, #0
 8005182:	627b      	str	r3, [r7, #36]	@ 0x24
        ret = HAL_ERROR;
 8005184:	2301      	movs	r3, #1
 8005186:	f887 302a 	strb.w	r3, [r7, #42]	@ 0x2a
        break;
 800518a:	bf00      	nop
    }

    /* If proper clock source reported */
    if (pclk != 0U)
 800518c:	6a7b      	ldr	r3, [r7, #36]	@ 0x24
 800518e:	2b00      	cmp	r3, #0
 8005190:	f000 812a 	beq.w	80053e8 <UART_SetConfig+0x564>
    {
      /* Compute clock after Prescaler */
      lpuart_ker_ck_pres = (pclk / UARTPrescTable[huart->Init.ClockPrescaler]);
 8005194:	697b      	ldr	r3, [r7, #20]
 8005196:	6a5b      	ldr	r3, [r3, #36]	@ 0x24
 8005198:	4a9e      	ldr	r2, [pc, #632]	@ (8005414 <UART_SetConfig+0x590>)
 800519a:	f832 3013 	ldrh.w	r3, [r2, r3, lsl #1]
 800519e:	461a      	mov	r2, r3
 80051a0:	6a7b      	ldr	r3, [r7, #36]	@ 0x24
 80051a2:	fbb3 f3f2 	udiv	r3, r3, r2
 80051a6:	61bb      	str	r3, [r7, #24]

      /* Ensure that Frequency clock is in the range [3 * baudrate, 4096 * baudrate] */
      if ((lpuart_ker_ck_pres < (3U * huart->Init.BaudRate)) ||
 80051a8:	697b      	ldr	r3, [r7, #20]
 80051aa:	685a      	ldr	r2, [r3, #4]
 80051ac:	4613      	mov	r3, r2
 80051ae:	005b      	lsls	r3, r3, #1
 80051b0:	4413      	add	r3, r2
 80051b2:	69ba      	ldr	r2, [r7, #24]
 80051b4:	429a      	cmp	r2, r3
 80051b6:	d305      	bcc.n	80051c4 <UART_SetConfig+0x340>
          (lpuart_ker_ck_pres > (4096U * huart->Init.BaudRate)))
 80051b8:	697b      	ldr	r3, [r7, #20]
 80051ba:	685b      	ldr	r3, [r3, #4]
 80051bc:	031b      	lsls	r3, r3, #12
      if ((lpuart_ker_ck_pres < (3U * huart->Init.BaudRate)) ||
 80051be:	69ba      	ldr	r2, [r7, #24]
 80051c0:	429a      	cmp	r2, r3
 80051c2:	d903      	bls.n	80051cc <UART_SetConfig+0x348>
      {
        ret = HAL_ERROR;
 80051c4:	2301      	movs	r3, #1
 80051c6:	f887 302a 	strb.w	r3, [r7, #42]	@ 0x2a
 80051ca:	e10d      	b.n	80053e8 <UART_SetConfig+0x564>
      }
      else
      {
        /* Check computed UsartDiv value is in allocated range
           (it is forbidden to write values lower than 0x300 in the LPUART_BRR register) */
        usartdiv = (uint32_t)(UART_DIV_LPUART(pclk, huart->Init.BaudRate, huart->Init.ClockPrescaler));
 80051cc:	6a7b      	ldr	r3, [r7, #36]	@ 0x24
 80051ce:	2200      	movs	r2, #0
 80051d0:	60bb      	str	r3, [r7, #8]
 80051d2:	60fa      	str	r2, [r7, #12]
 80051d4:	697b      	ldr	r3, [r7, #20]
 80051d6:	6a5b      	ldr	r3, [r3, #36]	@ 0x24
 80051d8:	4a8e      	ldr	r2, [pc, #568]	@ (8005414 <UART_SetConfig+0x590>)
 80051da:	f832 3013 	ldrh.w	r3, [r2, r3, lsl #1]
 80051de:	b29b      	uxth	r3, r3
 80051e0:	2200      	movs	r2, #0
 80051e2:	603b      	str	r3, [r7, #0]
 80051e4:	607a      	str	r2, [r7, #4]
 80051e6:	e9d7 2300 	ldrd	r2, r3, [r7]
 80051ea:	e9d7 0102 	ldrd	r0, r1, [r7, #8]
 80051ee:	f7fb f813 	bl	8000218 <__aeabi_uldivmod>
 80051f2:	4602      	mov	r2, r0
 80051f4:	460b      	mov	r3, r1
 80051f6:	4610      	mov	r0, r2
 80051f8:	4619      	mov	r1, r3
 80051fa:	f04f 0200 	mov.w	r2, #0
 80051fe:	f04f 0300 	mov.w	r3, #0
 8005202:	020b      	lsls	r3, r1, #8
 8005204:	ea43 6310 	orr.w	r3, r3, r0, lsr #24
 8005208:	0202      	lsls	r2, r0, #8
 800520a:	6979      	ldr	r1, [r7, #20]
 800520c:	6849      	ldr	r1, [r1, #4]
 800520e:	0849      	lsrs	r1, r1, #1
 8005210:	2000      	movs	r0, #0
 8005212:	460c      	mov	r4, r1
 8005214:	4605      	mov	r5, r0
 8005216:	eb12 0804 	adds.w	r8, r2, r4
 800521a:	eb43 0905 	adc.w	r9, r3, r5
 800521e:	697b      	ldr	r3, [r7, #20]
 8005220:	685b      	ldr	r3, [r3, #4]
 8005222:	2200      	movs	r2, #0
 8005224:	469a      	mov	sl, r3
 8005226:	4693      	mov	fp, r2
 8005228:	4652      	mov	r2, sl
 800522a:	465b      	mov	r3, fp
 800522c:	4640      	mov	r0, r8
 800522e:	4649      	mov	r1, r9
 8005230:	f7fa fff2 	bl	8000218 <__aeabi_uldivmod>
 8005234:	4602      	mov	r2, r0
 8005236:	460b      	mov	r3, r1
 8005238:	4613      	mov	r3, r2
 800523a:	623b      	str	r3, [r7, #32]
        if ((usartdiv >= LPUART_BRR_MIN) && (usartdiv <= LPUART_BRR_MAX))
 800523c:	6a3b      	ldr	r3, [r7, #32]
 800523e:	f5b3 7f40 	cmp.w	r3, #768	@ 0x300
 8005242:	d308      	bcc.n	8005256 <UART_SetConfig+0x3d2>
 8005244:	6a3b      	ldr	r3, [r7, #32]
 8005246:	f5b3 1f80 	cmp.w	r3, #1048576	@ 0x100000
 800524a:	d204      	bcs.n	8005256 <UART_SetConfig+0x3d2>
        {
          huart->Instance->BRR = usartdiv;
 800524c:	697b      	ldr	r3, [r7, #20]
 800524e:	681b      	ldr	r3, [r3, #0]
 8005250:	6a3a      	ldr	r2, [r7, #32]
 8005252:	60da      	str	r2, [r3, #12]
 8005254:	e0c8      	b.n	80053e8 <UART_SetConfig+0x564>
        }
        else
        {
          ret = HAL_ERROR;
 8005256:	2301      	movs	r3, #1
 8005258:	f887 302a 	strb.w	r3, [r7, #42]	@ 0x2a
 800525c:	e0c4      	b.n	80053e8 <UART_SetConfig+0x564>
      } /* if ( (lpuart_ker_ck_pres < (3 * huart->Init.BaudRate) ) ||
                (lpuart_ker_ck_pres > (4096 * huart->Init.BaudRate) )) */
    } /* if (pclk != 0) */
  }
  /* Check UART Over Sampling to set Baud Rate Register */
  else if (huart->Init.OverSampling == UART_OVERSAMPLING_8)
 800525e:	697b      	ldr	r3, [r7, #20]
 8005260:	69db      	ldr	r3, [r3, #28]
 8005262:	f5b3 4f00 	cmp.w	r3, #32768	@ 0x8000
 8005266:	d167      	bne.n	8005338 <UART_SetConfig+0x4b4>
  {
    switch (clocksource)
 8005268:	f897 302b 	ldrb.w	r3, [r7, #43]	@ 0x2b
 800526c:	2b08      	cmp	r3, #8
 800526e:	d828      	bhi.n	80052c2 <UART_SetConfig+0x43e>
 8005270:	a201      	add	r2, pc, #4	@ (adr r2, 8005278 <UART_SetConfig+0x3f4>)
 8005272:	f852 f023 	ldr.w	pc, [r2, r3, lsl #2]
 8005276:	bf00      	nop
 8005278:	0800529d 	.word	0x0800529d
 800527c:	080052a5 	.word	0x080052a5
 8005280:	080052ad 	.word	0x080052ad
 8005284:	080052c3 	.word	0x080052c3
 8005288:	080052b3 	.word	0x080052b3
 800528c:	080052c3 	.word	0x080052c3
 8005290:	080052c3 	.word	0x080052c3
 8005294:	080052c3 	.word	0x080052c3
 8005298:	080052bb 	.word	0x080052bb
    {
      case UART_CLOCKSOURCE_PCLK1:
        pclk = HAL_RCC_GetPCLK1Freq();
 800529c:	f7ff fb36 	bl	800490c <HAL_RCC_GetPCLK1Freq>
 80052a0:	6278      	str	r0, [r7, #36]	@ 0x24
        break;
 80052a2:	e014      	b.n	80052ce <UART_SetConfig+0x44a>
      case UART_CLOCKSOURCE_PCLK2:
        pclk = HAL_RCC_GetPCLK2Freq();
 80052a4:	f7ff fb48 	bl	8004938 <HAL_RCC_GetPCLK2Freq>
 80052a8:	6278      	str	r0, [r7, #36]	@ 0x24
        break;
 80052aa:	e010      	b.n	80052ce <UART_SetConfig+0x44a>
      case UART_CLOCKSOURCE_HSI:
        pclk = (uint32_t) HSI_VALUE;
 80052ac:	4b5a      	ldr	r3, [pc, #360]	@ (8005418 <UART_SetConfig+0x594>)
 80052ae:	627b      	str	r3, [r7, #36]	@ 0x24
        break;
 80052b0:	e00d      	b.n	80052ce <UART_SetConfig+0x44a>
      case UART_CLOCKSOURCE_SYSCLK:
        pclk = HAL_RCC_GetSysClockFreq();
 80052b2:	f7ff fabd 	bl	8004830 <HAL_RCC_GetSysClockFreq>
 80052b6:	6278      	str	r0, [r7, #36]	@ 0x24
        break;
 80052b8:	e009      	b.n	80052ce <UART_SetConfig+0x44a>
      case UART_CLOCKSOURCE_LSE:
        pclk = (uint32_t) LSE_VALUE;
 80052ba:	f44f 4300 	mov.w	r3, #32768	@ 0x8000
 80052be:	627b      	str	r3, [r7, #36]	@ 0x24
        break;
 80052c0:	e005      	b.n	80052ce <UART_SetConfig+0x44a>
      default:
        pclk = 0U;
 80052c2:	2300      	movs	r3, #0
 80052c4:	627b      	str	r3, [r7, #36]	@ 0x24
        ret = HAL_ERROR;
 80052c6:	2301      	movs	r3, #1
 80052c8:	f887 302a 	strb.w	r3, [r7, #42]	@ 0x2a
        break;
 80052cc:	bf00      	nop
    }

    /* USARTDIV must be greater than or equal to 0d16 */
    if (pclk != 0U)
 80052ce:	6a7b      	ldr	r3, [r7, #36]	@ 0x24
 80052d0:	2b00      	cmp	r3, #0
 80052d2:	f000 8089 	beq.w	80053e8 <UART_SetConfig+0x564>
    {
      usartdiv = (uint32_t)(UART_DIV_SAMPLING8(pclk, huart->Init.BaudRate, huart->Init.ClockPrescaler));
 80052d6:	697b      	ldr	r3, [r7, #20]
 80052d8:	6a5b      	ldr	r3, [r3, #36]	@ 0x24
 80052da:	4a4e      	ldr	r2, [pc, #312]	@ (8005414 <UART_SetConfig+0x590>)
 80052dc:	f832 3013 	ldrh.w	r3, [r2, r3, lsl #1]
 80052e0:	461a      	mov	r2, r3
 80052e2:	6a7b      	ldr	r3, [r7, #36]	@ 0x24
 80052e4:	fbb3 f3f2 	udiv	r3, r3, r2
 80052e8:	005a      	lsls	r2, r3, #1
 80052ea:	697b      	ldr	r3, [r7, #20]
 80052ec:	685b      	ldr	r3, [r3, #4]
 80052ee:	085b      	lsrs	r3, r3, #1
 80052f0:	441a      	add	r2, r3
 80052f2:	697b      	ldr	r3, [r7, #20]
 80052f4:	685b      	ldr	r3, [r3, #4]
 80052f6:	fbb2 f3f3 	udiv	r3, r2, r3
 80052fa:	623b      	str	r3, [r7, #32]
      if ((usartdiv >= UART_BRR_MIN) && (usartdiv <= UART_BRR_MAX))
 80052fc:	6a3b      	ldr	r3, [r7, #32]
 80052fe:	2b0f      	cmp	r3, #15
 8005300:	d916      	bls.n	8005330 <UART_SetConfig+0x4ac>
 8005302:	6a3b      	ldr	r3, [r7, #32]
 8005304:	f5b3 3f80 	cmp.w	r3, #65536	@ 0x10000
 8005308:	d212      	bcs.n	8005330 <UART_SetConfig+0x4ac>
      {
        brrtemp = (uint16_t)(usartdiv & 0xFFF0U);
 800530a:	6a3b      	ldr	r3, [r7, #32]
 800530c:	b29b      	uxth	r3, r3
 800530e:	f023 030f 	bic.w	r3, r3, #15
 8005312:	83fb      	strh	r3, [r7, #30]
        brrtemp |= (uint16_t)((usartdiv & (uint16_t)0x000FU) >> 1U);
 8005314:	6a3b      	ldr	r3, [r7, #32]
 8005316:	085b      	lsrs	r3, r3, #1
 8005318:	b29b      	uxth	r3, r3
 800531a:	f003 0307 	and.w	r3, r3, #7
 800531e:	b29a      	uxth	r2, r3
 8005320:	8bfb      	ldrh	r3, [r7, #30]
 8005322:	4313      	orrs	r3, r2
 8005324:	83fb      	strh	r3, [r7, #30]
        huart->Instance->BRR = brrtemp;
 8005326:	697b      	ldr	r3, [r7, #20]
 8005328:	681b      	ldr	r3, [r3, #0]
 800532a:	8bfa      	ldrh	r2, [r7, #30]
 800532c:	60da      	str	r2, [r3, #12]
 800532e:	e05b      	b.n	80053e8 <UART_SetConfig+0x564>
      }
      else
      {
        ret = HAL_ERROR;
 8005330:	2301      	movs	r3, #1
 8005332:	f887 302a 	strb.w	r3, [r7, #42]	@ 0x2a
 8005336:	e057      	b.n	80053e8 <UART_SetConfig+0x564>
      }
    }
  }
  else
  {
    switch (clocksource)
 8005338:	f897 302b 	ldrb.w	r3, [r7, #43]	@ 0x2b
 800533c:	2b08      	cmp	r3, #8
 800533e:	d828      	bhi.n	8005392 <UART_SetConfig+0x50e>
 8005340:	a201      	add	r2, pc, #4	@ (adr r2, 8005348 <UART_SetConfig+0x4c4>)
 8005342:	f852 f023 	ldr.w	pc, [r2, r3, lsl #2]
 8005346:	bf00      	nop
 8005348:	0800536d 	.word	0x0800536d
 800534c:	08005375 	.word	0x08005375
 8005350:	0800537d 	.word	0x0800537d
 8005354:	08005393 	.word	0x08005393
 8005358:	08005383 	.word	0x08005383
 800535c:	08005393 	.word	0x08005393
 8005360:	08005393 	.word	0x08005393
 8005364:	08005393 	.word	0x08005393
 8005368:	0800538b 	.word	0x0800538b
    {
      case UART_CLOCKSOURCE_PCLK1:
        pclk = HAL_RCC_GetPCLK1Freq();
 800536c:	f7ff face 	bl	800490c <HAL_RCC_GetPCLK1Freq>
 8005370:	6278      	str	r0, [r7, #36]	@ 0x24
        break;
 8005372:	e014      	b.n	800539e <UART_SetConfig+0x51a>
      case UART_CLOCKSOURCE_PCLK2:
        pclk = HAL_RCC_GetPCLK2Freq();
 8005374:	f7ff fae0 	bl	8004938 <HAL_RCC_GetPCLK2Freq>
 8005378:	6278      	str	r0, [r7, #36]	@ 0x24
        break;
 800537a:	e010      	b.n	800539e <UART_SetConfig+0x51a>
      case UART_CLOCKSOURCE_HSI:
        pclk = (uint32_t) HSI_VALUE;
 800537c:	4b26      	ldr	r3, [pc, #152]	@ (8005418 <UART_SetConfig+0x594>)
 800537e:	627b      	str	r3, [r7, #36]	@ 0x24
        break;
 8005380:	e00d      	b.n	800539e <UART_SetConfig+0x51a>
      case UART_CLOCKSOURCE_SYSCLK:
        pclk = HAL_RCC_GetSysClockFreq();
 8005382:	f7ff fa55 	bl	8004830 <HAL_RCC_GetSysClockFreq>
 8005386:	6278      	str	r0, [r7, #36]	@ 0x24
        break;
 8005388:	e009      	b.n	800539e <UART_SetConfig+0x51a>
      case UART_CLOCKSOURCE_LSE:
        pclk = (uint32_t) LSE_VALUE;
 800538a:	f44f 4300 	mov.w	r3, #32768	@ 0x8000
 800538e:	627b      	str	r3, [r7, #36]	@ 0x24
        break;
 8005390:	e005      	b.n	800539e <UART_SetConfig+0x51a>
      default:
        pclk = 0U;
 8005392:	2300      	movs	r3, #0
 8005394:	627b      	str	r3, [r7, #36]	@ 0x24
        ret = HAL_ERROR;
 8005396:	2301      	movs	r3, #1
 8005398:	f887 302a 	strb.w	r3, [r7, #42]	@ 0x2a
        break;
 800539c:	bf00      	nop
    }

    if (pclk != 0U)
 800539e:	6a7b      	ldr	r3, [r7, #36]	@ 0x24
 80053a0:	2b00      	cmp	r3, #0
 80053a2:	d021      	beq.n	80053e8 <UART_SetConfig+0x564>
    {
      /* USARTDIV must be greater than or equal to 0d16 */
      usartdiv = (uint32_t)(UART_DIV_SAMPLING16(pclk, huart->Init.BaudRate, huart->Init.ClockPrescaler));
 80053a4:	697b      	ldr	r3, [r7, #20]
 80053a6:	6a5b      	ldr	r3, [r3, #36]	@ 0x24
 80053a8:	4a1a      	ldr	r2, [pc, #104]	@ (8005414 <UART_SetConfig+0x590>)
 80053aa:	f832 3013 	ldrh.w	r3, [r2, r3, lsl #1]
 80053ae:	461a      	mov	r2, r3
 80053b0:	6a7b      	ldr	r3, [r7, #36]	@ 0x24
 80053b2:	fbb3 f2f2 	udiv	r2, r3, r2
 80053b6:	697b      	ldr	r3, [r7, #20]
 80053b8:	685b      	ldr	r3, [r3, #4]
 80053ba:	085b      	lsrs	r3, r3, #1
 80053bc:	441a      	add	r2, r3
 80053be:	697b      	ldr	r3, [r7, #20]
 80053c0:	685b      	ldr	r3, [r3, #4]
 80053c2:	fbb2 f3f3 	udiv	r3, r2, r3
 80053c6:	623b      	str	r3, [r7, #32]
      if ((usartdiv >= UART_BRR_MIN) && (usartdiv <= UART_BRR_MAX))
 80053c8:	6a3b      	ldr	r3, [r7, #32]
 80053ca:	2b0f      	cmp	r3, #15
 80053cc:	d909      	bls.n	80053e2 <UART_SetConfig+0x55e>
 80053ce:	6a3b      	ldr	r3, [r7, #32]
 80053d0:	f5b3 3f80 	cmp.w	r3, #65536	@ 0x10000
 80053d4:	d205      	bcs.n	80053e2 <UART_SetConfig+0x55e>
      {
        huart->Instance->BRR = (uint16_t)usartdiv;
 80053d6:	6a3b      	ldr	r3, [r7, #32]
 80053d8:	b29a      	uxth	r2, r3
 80053da:	697b      	ldr	r3, [r7, #20]
 80053dc:	681b      	ldr	r3, [r3, #0]
 80053de:	60da      	str	r2, [r3, #12]
 80053e0:	e002      	b.n	80053e8 <UART_SetConfig+0x564>
      }
      else
      {
        ret = HAL_ERROR;
 80053e2:	2301      	movs	r3, #1
 80053e4:	f887 302a 	strb.w	r3, [r7, #42]	@ 0x2a
      }
    }
  }

  /* Initialize the number of data to process during RX/TX ISR execution */
  huart->NbTxDataToProcess = 1;
 80053e8:	697b      	ldr	r3, [r7, #20]
 80053ea:	2201      	movs	r2, #1
 80053ec:	f8a3 206a 	strh.w	r2, [r3, #106]	@ 0x6a
  huart->NbRxDataToProcess = 1;
 80053f0:	697b      	ldr	r3, [r7, #20]
 80053f2:	2201      	movs	r2, #1
 80053f4:	f8a3 2068 	strh.w	r2, [r3, #104]	@ 0x68

  /* Clear ISR function pointers */
  huart->RxISR = NULL;
 80053f8:	697b      	ldr	r3, [r7, #20]
 80053fa:	2200      	movs	r2, #0
 80053fc:	675a      	str	r2, [r3, #116]	@ 0x74
  huart->TxISR = NULL;
 80053fe:	697b      	ldr	r3, [r7, #20]
 8005400:	2200      	movs	r2, #0
 8005402:	679a      	str	r2, [r3, #120]	@ 0x78

  return ret;
 8005404:	f897 302a 	ldrb.w	r3, [r7, #42]	@ 0x2a
}
 8005408:	4618      	mov	r0, r3
 800540a:	3730      	adds	r7, #48	@ 0x30
 800540c:	46bd      	mov	sp, r7
 800540e:	e8bd 8fb0 	ldmia.w	sp!, {r4, r5, r7, r8, r9, sl, fp, pc}
 8005412:	bf00      	nop
 8005414:	080058f4 	.word	0x080058f4
 8005418:	00f42400 	.word	0x00f42400

0800541c <UART_AdvFeatureConfig>:
  * @brief Configure the UART peripheral advanced features.
  * @param huart UART handle.
  * @retval None
  */
void UART_AdvFeatureConfig(UART_HandleTypeDef *huart)
{
 800541c:	b480      	push	{r7}
 800541e:	b083      	sub	sp, #12
 8005420:	af00      	add	r7, sp, #0
 8005422:	6078      	str	r0, [r7, #4]
  /* Check whether the set of advanced features to configure is properly set */
  assert_param(IS_UART_ADVFEATURE_INIT(huart->AdvancedInit.AdvFeatureInit));

  /* if required, configure RX/TX pins swap */
  if (HAL_IS_BIT_SET(huart->AdvancedInit.AdvFeatureInit, UART_ADVFEATURE_SWAP_INIT))
 8005424:	687b      	ldr	r3, [r7, #4]
 8005426:	6a9b      	ldr	r3, [r3, #40]	@ 0x28
 8005428:	f003 0308 	and.w	r3, r3, #8
 800542c:	2b00      	cmp	r3, #0
 800542e:	d00a      	beq.n	8005446 <UART_AdvFeatureConfig+0x2a>
  {
    assert_param(IS_UART_ADVFEATURE_SWAP(huart->AdvancedInit.Swap));
    MODIFY_REG(huart->Instance->CR2, USART_CR2_SWAP, huart->AdvancedInit.Swap);
 8005430:	687b      	ldr	r3, [r7, #4]
 8005432:	681b      	ldr	r3, [r3, #0]
 8005434:	685b      	ldr	r3, [r3, #4]
 8005436:	f423 4100 	bic.w	r1, r3, #32768	@ 0x8000
 800543a:	687b      	ldr	r3, [r7, #4]
 800543c:	6b9a      	ldr	r2, [r3, #56]	@ 0x38
 800543e:	687b      	ldr	r3, [r7, #4]
 8005440:	681b      	ldr	r3, [r3, #0]
 8005442:	430a      	orrs	r2, r1
 8005444:	605a      	str	r2, [r3, #4]
  }

  /* if required, configure TX pin active level inversion */
  if (HAL_IS_BIT_SET(huart->AdvancedInit.AdvFeatureInit, UART_ADVFEATURE_TXINVERT_INIT))
 8005446:	687b      	ldr	r3, [r7, #4]
 8005448:	6a9b      	ldr	r3, [r3, #40]	@ 0x28
 800544a:	f003 0301 	and.w	r3, r3, #1
 800544e:	2b00      	cmp	r3, #0
 8005450:	d00a      	beq.n	8005468 <UART_AdvFeatureConfig+0x4c>
  {
    assert_param(IS_UART_ADVFEATURE_TXINV(huart->AdvancedInit.TxPinLevelInvert));
    MODIFY_REG(huart->Instance->CR2, USART_CR2_TXINV, huart->AdvancedInit.TxPinLevelInvert);
 8005452:	687b      	ldr	r3, [r7, #4]
 8005454:	681b      	ldr	r3, [r3, #0]
 8005456:	685b      	ldr	r3, [r3, #4]
 8005458:	f423 3100 	bic.w	r1, r3, #131072	@ 0x20000
 800545c:	687b      	ldr	r3, [r7, #4]
 800545e:	6ada      	ldr	r2, [r3, #44]	@ 0x2c
 8005460:	687b      	ldr	r3, [r7, #4]
 8005462:	681b      	ldr	r3, [r3, #0]
 8005464:	430a      	orrs	r2, r1
 8005466:	605a      	str	r2, [r3, #4]
  }

  /* if required, configure RX pin active level inversion */
  if (HAL_IS_BIT_SET(huart->AdvancedInit.AdvFeatureInit, UART_ADVFEATURE_RXINVERT_INIT))
 8005468:	687b      	ldr	r3, [r7, #4]
 800546a:	6a9b      	ldr	r3, [r3, #40]	@ 0x28
 800546c:	f003 0302 	and.w	r3, r3, #2
 8005470:	2b00      	cmp	r3, #0
 8005472:	d00a      	beq.n	800548a <UART_AdvFeatureConfig+0x6e>
  {
    assert_param(IS_UART_ADVFEATURE_RXINV(huart->AdvancedInit.RxPinLevelInvert));
    MODIFY_REG(huart->Instance->CR2, USART_CR2_RXINV, huart->AdvancedInit.RxPinLevelInvert);
 8005474:	687b      	ldr	r3, [r7, #4]
 8005476:	681b      	ldr	r3, [r3, #0]
 8005478:	685b      	ldr	r3, [r3, #4]
 800547a:	f423 3180 	bic.w	r1, r3, #65536	@ 0x10000
 800547e:	687b      	ldr	r3, [r7, #4]
 8005480:	6b1a      	ldr	r2, [r3, #48]	@ 0x30
 8005482:	687b      	ldr	r3, [r7, #4]
 8005484:	681b      	ldr	r3, [r3, #0]
 8005486:	430a      	orrs	r2, r1
 8005488:	605a      	str	r2, [r3, #4]
  }

  /* if required, configure data inversion */
  if (HAL_IS_BIT_SET(huart->AdvancedInit.AdvFeatureInit, UART_ADVFEATURE_DATAINVERT_INIT))
 800548a:	687b      	ldr	r3, [r7, #4]
 800548c:	6a9b      	ldr	r3, [r3, #40]	@ 0x28
 800548e:	f003 0304 	and.w	r3, r3, #4
 8005492:	2b00      	cmp	r3, #0
 8005494:	d00a      	beq.n	80054ac <UART_AdvFeatureConfig+0x90>
  {
    assert_param(IS_UART_ADVFEATURE_DATAINV(huart->AdvancedInit.DataInvert));
    MODIFY_REG(huart->Instance->CR2, USART_CR2_DATAINV, huart->AdvancedInit.DataInvert);
 8005496:	687b      	ldr	r3, [r7, #4]
 8005498:	681b      	ldr	r3, [r3, #0]
 800549a:	685b      	ldr	r3, [r3, #4]
 800549c:	f423 2180 	bic.w	r1, r3, #262144	@ 0x40000
 80054a0:	687b      	ldr	r3, [r7, #4]
 80054a2:	6b5a      	ldr	r2, [r3, #52]	@ 0x34
 80054a4:	687b      	ldr	r3, [r7, #4]
 80054a6:	681b      	ldr	r3, [r3, #0]
 80054a8:	430a      	orrs	r2, r1
 80054aa:	605a      	str	r2, [r3, #4]
  }

  /* if required, configure RX overrun detection disabling */
  if (HAL_IS_BIT_SET(huart->AdvancedInit.AdvFeatureInit, UART_ADVFEATURE_RXOVERRUNDISABLE_INIT))
 80054ac:	687b      	ldr	r3, [r7, #4]
 80054ae:	6a9b      	ldr	r3, [r3, #40]	@ 0x28
 80054b0:	f003 0310 	and.w	r3, r3, #16
 80054b4:	2b00      	cmp	r3, #0
 80054b6:	d00a      	beq.n	80054ce <UART_AdvFeatureConfig+0xb2>
  {
    assert_param(IS_UART_OVERRUN(huart->AdvancedInit.OverrunDisable));
    MODIFY_REG(huart->Instance->CR3, USART_CR3_OVRDIS, huart->AdvancedInit.OverrunDisable);
 80054b8:	687b      	ldr	r3, [r7, #4]
 80054ba:	681b      	ldr	r3, [r3, #0]
 80054bc:	689b      	ldr	r3, [r3, #8]
 80054be:	f423 5180 	bic.w	r1, r3, #4096	@ 0x1000
 80054c2:	687b      	ldr	r3, [r7, #4]
 80054c4:	6bda      	ldr	r2, [r3, #60]	@ 0x3c
 80054c6:	687b      	ldr	r3, [r7, #4]
 80054c8:	681b      	ldr	r3, [r3, #0]
 80054ca:	430a      	orrs	r2, r1
 80054cc:	609a      	str	r2, [r3, #8]
  }

  /* if required, configure DMA disabling on reception error */
  if (HAL_IS_BIT_SET(huart->AdvancedInit.AdvFeatureInit, UART_ADVFEATURE_DMADISABLEONERROR_INIT))
 80054ce:	687b      	ldr	r3, [r7, #4]
 80054d0:	6a9b      	ldr	r3, [r3, #40]	@ 0x28
 80054d2:	f003 0320 	and.w	r3, r3, #32
 80054d6:	2b00      	cmp	r3, #0
 80054d8:	d00a      	beq.n	80054f0 <UART_AdvFeatureConfig+0xd4>
  {
    assert_param(IS_UART_ADVFEATURE_DMAONRXERROR(huart->AdvancedInit.DMADisableonRxError));
    MODIFY_REG(huart->Instance->CR3, USART_CR3_DDRE, huart->AdvancedInit.DMADisableonRxError);
 80054da:	687b      	ldr	r3, [r7, #4]
 80054dc:	681b      	ldr	r3, [r3, #0]
 80054de:	689b      	ldr	r3, [r3, #8]
 80054e0:	f423 5100 	bic.w	r1, r3, #8192	@ 0x2000
 80054e4:	687b      	ldr	r3, [r7, #4]
 80054e6:	6c1a      	ldr	r2, [r3, #64]	@ 0x40
 80054e8:	687b      	ldr	r3, [r7, #4]
 80054ea:	681b      	ldr	r3, [r3, #0]
 80054ec:	430a      	orrs	r2, r1
 80054ee:	609a      	str	r2, [r3, #8]
  }

  /* if required, configure auto Baud rate detection scheme */
  if (HAL_IS_BIT_SET(huart->AdvancedInit.AdvFeatureInit, UART_ADVFEATURE_AUTOBAUDRATE_INIT))
 80054f0:	687b      	ldr	r3, [r7, #4]
 80054f2:	6a9b      	ldr	r3, [r3, #40]	@ 0x28
 80054f4:	f003 0340 	and.w	r3, r3, #64	@ 0x40
 80054f8:	2b00      	cmp	r3, #0
 80054fa:	d01a      	beq.n	8005532 <UART_AdvFeatureConfig+0x116>
  {
    assert_param(IS_USART_AUTOBAUDRATE_DETECTION_INSTANCE(huart->Instance));
    assert_param(IS_UART_ADVFEATURE_AUTOBAUDRATE(huart->AdvancedInit.AutoBaudRateEnable));
    MODIFY_REG(huart->Instance->CR2, USART_CR2_ABREN, huart->AdvancedInit.AutoBaudRateEnable);
 80054fc:	687b      	ldr	r3, [r7, #4]
 80054fe:	681b      	ldr	r3, [r3, #0]
 8005500:	685b      	ldr	r3, [r3, #4]
 8005502:	f423 1180 	bic.w	r1, r3, #1048576	@ 0x100000
 8005506:	687b      	ldr	r3, [r7, #4]
 8005508:	6c5a      	ldr	r2, [r3, #68]	@ 0x44
 800550a:	687b      	ldr	r3, [r7, #4]
 800550c:	681b      	ldr	r3, [r3, #0]
 800550e:	430a      	orrs	r2, r1
 8005510:	605a      	str	r2, [r3, #4]
    /* set auto Baudrate detection parameters if detection is enabled */
    if (huart->AdvancedInit.AutoBaudRateEnable == UART_ADVFEATURE_AUTOBAUDRATE_ENABLE)
 8005512:	687b      	ldr	r3, [r7, #4]
 8005514:	6c5b      	ldr	r3, [r3, #68]	@ 0x44
 8005516:	f5b3 1f80 	cmp.w	r3, #1048576	@ 0x100000
 800551a:	d10a      	bne.n	8005532 <UART_AdvFeatureConfig+0x116>
    {
      assert_param(IS_UART_ADVFEATURE_AUTOBAUDRATEMODE(huart->AdvancedInit.AutoBaudRateMode));
      MODIFY_REG(huart->Instance->CR2, USART_CR2_ABRMODE, huart->AdvancedInit.AutoBaudRateMode);
 800551c:	687b      	ldr	r3, [r7, #4]
 800551e:	681b      	ldr	r3, [r3, #0]
 8005520:	685b      	ldr	r3, [r3, #4]
 8005522:	f423 01c0 	bic.w	r1, r3, #6291456	@ 0x600000
 8005526:	687b      	ldr	r3, [r7, #4]
 8005528:	6c9a      	ldr	r2, [r3, #72]	@ 0x48
 800552a:	687b      	ldr	r3, [r7, #4]
 800552c:	681b      	ldr	r3, [r3, #0]
 800552e:	430a      	orrs	r2, r1
 8005530:	605a      	str	r2, [r3, #4]
    }
  }

  /* if required, configure MSB first on communication line */
  if (HAL_IS_BIT_SET(huart->AdvancedInit.AdvFeatureInit, UART_ADVFEATURE_MSBFIRST_INIT))
 8005532:	687b      	ldr	r3, [r7, #4]
 8005534:	6a9b      	ldr	r3, [r3, #40]	@ 0x28
 8005536:	f003 0380 	and.w	r3, r3, #128	@ 0x80
 800553a:	2b00      	cmp	r3, #0
 800553c:	d00a      	beq.n	8005554 <UART_AdvFeatureConfig+0x138>
  {
    assert_param(IS_UART_ADVFEATURE_MSBFIRST(huart->AdvancedInit.MSBFirst));
    MODIFY_REG(huart->Instance->CR2, USART_CR2_MSBFIRST, huart->AdvancedInit.MSBFirst);
 800553e:	687b      	ldr	r3, [r7, #4]
 8005540:	681b      	ldr	r3, [r3, #0]
 8005542:	685b      	ldr	r3, [r3, #4]
 8005544:	f423 2100 	bic.w	r1, r3, #524288	@ 0x80000
 8005548:	687b      	ldr	r3, [r7, #4]
 800554a:	6cda      	ldr	r2, [r3, #76]	@ 0x4c
 800554c:	687b      	ldr	r3, [r7, #4]
 800554e:	681b      	ldr	r3, [r3, #0]
 8005550:	430a      	orrs	r2, r1
 8005552:	605a      	str	r2, [r3, #4]
  }
}
 8005554:	bf00      	nop
 8005556:	370c      	adds	r7, #12
 8005558:	46bd      	mov	sp, r7
 800555a:	f85d 7b04 	ldr.w	r7, [sp], #4
 800555e:	4770      	bx	lr

08005560 <UART_CheckIdleState>:
  * @brief Check the UART Idle State.
  * @param huart UART handle.
  * @retval HAL status
  */
HAL_StatusTypeDef UART_CheckIdleState(UART_HandleTypeDef *huart)
{
 8005560:	b580      	push	{r7, lr}
 8005562:	b098      	sub	sp, #96	@ 0x60
 8005564:	af02      	add	r7, sp, #8
 8005566:	6078      	str	r0, [r7, #4]
  uint32_t tickstart;

  /* Initialize the UART ErrorCode */
  huart->ErrorCode = HAL_UART_ERROR_NONE;
 8005568:	687b      	ldr	r3, [r7, #4]
 800556a:	2200      	movs	r2, #0
 800556c:	f8c3 2090 	str.w	r2, [r3, #144]	@ 0x90

  /* Init tickstart for timeout management */
  tickstart = HAL_GetTick();
 8005570:	f7fb fdcc 	bl	800110c <HAL_GetTick>
 8005574:	6578      	str	r0, [r7, #84]	@ 0x54

  /* Check if the Transmitter is enabled */
  if ((huart->Instance->CR1 & USART_CR1_TE) == USART_CR1_TE)
 8005576:	687b      	ldr	r3, [r7, #4]
 8005578:	681b      	ldr	r3, [r3, #0]
 800557a:	681b      	ldr	r3, [r3, #0]
 800557c:	f003 0308 	and.w	r3, r3, #8
 8005580:	2b08      	cmp	r3, #8
 8005582:	d12f      	bne.n	80055e4 <UART_CheckIdleState+0x84>
  {
    /* Wait until TEACK flag is set */
    if (UART_WaitOnFlagUntilTimeout(huart, USART_ISR_TEACK, RESET, tickstart, HAL_UART_TIMEOUT_VALUE) != HAL_OK)
 8005584:	f06f 437e 	mvn.w	r3, #4261412864	@ 0xfe000000
 8005588:	9300      	str	r3, [sp, #0]
 800558a:	6d7b      	ldr	r3, [r7, #84]	@ 0x54
 800558c:	2200      	movs	r2, #0
 800558e:	f44f 1100 	mov.w	r1, #2097152	@ 0x200000
 8005592:	6878      	ldr	r0, [r7, #4]
 8005594:	f000 f88e 	bl	80056b4 <UART_WaitOnFlagUntilTimeout>
 8005598:	4603      	mov	r3, r0
 800559a:	2b00      	cmp	r3, #0
 800559c:	d022      	beq.n	80055e4 <UART_CheckIdleState+0x84>
    {
      /* Disable TXE interrupt for the interrupt process */
      ATOMIC_CLEAR_BIT(huart->Instance->CR1, (USART_CR1_TXEIE_TXFNFIE));
 800559e:	687b      	ldr	r3, [r7, #4]
 80055a0:	681b      	ldr	r3, [r3, #0]
 80055a2:	63bb      	str	r3, [r7, #56]	@ 0x38
 */
__STATIC_FORCEINLINE uint32_t __LDREXW(volatile uint32_t *addr)
{
    uint32_t result;

   __ASM volatile ("ldrex %0, %1" : "=r" (result) : "Q" (*addr) );
 80055a4:	6bbb      	ldr	r3, [r7, #56]	@ 0x38
 80055a6:	e853 3f00 	ldrex	r3, [r3]
 80055aa:	637b      	str	r3, [r7, #52]	@ 0x34
   return(result);
 80055ac:	6b7b      	ldr	r3, [r7, #52]	@ 0x34
 80055ae:	f023 0380 	bic.w	r3, r3, #128	@ 0x80
 80055b2:	653b      	str	r3, [r7, #80]	@ 0x50
 80055b4:	687b      	ldr	r3, [r7, #4]
 80055b6:	681b      	ldr	r3, [r3, #0]
 80055b8:	461a      	mov	r2, r3
 80055ba:	6d3b      	ldr	r3, [r7, #80]	@ 0x50
 80055bc:	647b      	str	r3, [r7, #68]	@ 0x44
 80055be:	643a      	str	r2, [r7, #64]	@ 0x40
 */
__STATIC_FORCEINLINE uint32_t __STREXW(uint32_t value, volatile uint32_t *addr)
{
   uint32_t result;

   __ASM volatile ("strex %0, %2, %1" : "=&r" (result), "=Q" (*addr) : "r" (value) );
 80055c0:	6c39      	ldr	r1, [r7, #64]	@ 0x40
 80055c2:	6c7a      	ldr	r2, [r7, #68]	@ 0x44
 80055c4:	e841 2300 	strex	r3, r2, [r1]
 80055c8:	63fb      	str	r3, [r7, #60]	@ 0x3c
   return(result);
 80055ca:	6bfb      	ldr	r3, [r7, #60]	@ 0x3c
 80055cc:	2b00      	cmp	r3, #0
 80055ce:	d1e6      	bne.n	800559e <UART_CheckIdleState+0x3e>

      huart->gState = HAL_UART_STATE_READY;
 80055d0:	687b      	ldr	r3, [r7, #4]
 80055d2:	2220      	movs	r2, #32
 80055d4:	f8c3 2088 	str.w	r2, [r3, #136]	@ 0x88

      __HAL_UNLOCK(huart);
 80055d8:	687b      	ldr	r3, [r7, #4]
 80055da:	2200      	movs	r2, #0
 80055dc:	f883 2084 	strb.w	r2, [r3, #132]	@ 0x84

      /* Timeout occurred */
      return HAL_TIMEOUT;
 80055e0:	2303      	movs	r3, #3
 80055e2:	e063      	b.n	80056ac <UART_CheckIdleState+0x14c>
    }
  }

  /* Check if the Receiver is enabled */
  if ((huart->Instance->CR1 & USART_CR1_RE) == USART_CR1_RE)
 80055e4:	687b      	ldr	r3, [r7, #4]
 80055e6:	681b      	ldr	r3, [r3, #0]
 80055e8:	681b      	ldr	r3, [r3, #0]
 80055ea:	f003 0304 	and.w	r3, r3, #4
 80055ee:	2b04      	cmp	r3, #4
 80055f0:	d149      	bne.n	8005686 <UART_CheckIdleState+0x126>
  {
    /* Wait until REACK flag is set */
    if (UART_WaitOnFlagUntilTimeout(huart, USART_ISR_REACK, RESET, tickstart, HAL_UART_TIMEOUT_VALUE) != HAL_OK)
 80055f2:	f06f 437e 	mvn.w	r3, #4261412864	@ 0xfe000000
 80055f6:	9300      	str	r3, [sp, #0]
 80055f8:	6d7b      	ldr	r3, [r7, #84]	@ 0x54
 80055fa:	2200      	movs	r2, #0
 80055fc:	f44f 0180 	mov.w	r1, #4194304	@ 0x400000
 8005600:	6878      	ldr	r0, [r7, #4]
 8005602:	f000 f857 	bl	80056b4 <UART_WaitOnFlagUntilTimeout>
 8005606:	4603      	mov	r3, r0
 8005608:	2b00      	cmp	r3, #0
 800560a:	d03c      	beq.n	8005686 <UART_CheckIdleState+0x126>
    {
      /* Disable RXNE, PE and ERR (Frame error, noise error, overrun error)
      interrupts for the interrupt process */
      ATOMIC_CLEAR_BIT(huart->Instance->CR1, (USART_CR1_RXNEIE_RXFNEIE | USART_CR1_PEIE));
 800560c:	687b      	ldr	r3, [r7, #4]
 800560e:	681b      	ldr	r3, [r3, #0]
 8005610:	627b      	str	r3, [r7, #36]	@ 0x24
   __ASM volatile ("ldrex %0, %1" : "=r" (result) : "Q" (*addr) );
 8005612:	6a7b      	ldr	r3, [r7, #36]	@ 0x24
 8005614:	e853 3f00 	ldrex	r3, [r3]
 8005618:	623b      	str	r3, [r7, #32]
   return(result);
 800561a:	6a3b      	ldr	r3, [r7, #32]
 800561c:	f423 7390 	bic.w	r3, r3, #288	@ 0x120
 8005620:	64fb      	str	r3, [r7, #76]	@ 0x4c
 8005622:	687b      	ldr	r3, [r7, #4]
 8005624:	681b      	ldr	r3, [r3, #0]
 8005626:	461a      	mov	r2, r3
 8005628:	6cfb      	ldr	r3, [r7, #76]	@ 0x4c
 800562a:	633b      	str	r3, [r7, #48]	@ 0x30
 800562c:	62fa      	str	r2, [r7, #44]	@ 0x2c
   __ASM volatile ("strex %0, %2, %1" : "=&r" (result), "=Q" (*addr) : "r" (value) );
 800562e:	6af9      	ldr	r1, [r7, #44]	@ 0x2c
 8005630:	6b3a      	ldr	r2, [r7, #48]	@ 0x30
 8005632:	e841 2300 	strex	r3, r2, [r1]
 8005636:	62bb      	str	r3, [r7, #40]	@ 0x28
   return(result);
 8005638:	6abb      	ldr	r3, [r7, #40]	@ 0x28
 800563a:	2b00      	cmp	r3, #0
 800563c:	d1e6      	bne.n	800560c <UART_CheckIdleState+0xac>
      ATOMIC_CLEAR_BIT(huart->Instance->CR3, USART_CR3_EIE);
 800563e:	687b      	ldr	r3, [r7, #4]
 8005640:	681b      	ldr	r3, [r3, #0]
 8005642:	3308      	adds	r3, #8
 8005644:	613b      	str	r3, [r7, #16]
   __ASM volatile ("ldrex %0, %1" : "=r" (result) : "Q" (*addr) );
 8005646:	693b      	ldr	r3, [r7, #16]
 8005648:	e853 3f00 	ldrex	r3, [r3]
 800564c:	60fb      	str	r3, [r7, #12]
   return(result);
 800564e:	68fb      	ldr	r3, [r7, #12]
 8005650:	f023 0301 	bic.w	r3, r3, #1
 8005654:	64bb      	str	r3, [r7, #72]	@ 0x48
 8005656:	687b      	ldr	r3, [r7, #4]
 8005658:	681b      	ldr	r3, [r3, #0]
 800565a:	3308      	adds	r3, #8
 800565c:	6cba      	ldr	r2, [r7, #72]	@ 0x48
 800565e:	61fa      	str	r2, [r7, #28]
 8005660:	61bb      	str	r3, [r7, #24]
   __ASM volatile ("strex %0, %2, %1" : "=&r" (result), "=Q" (*addr) : "r" (value) );
 8005662:	69b9      	ldr	r1, [r7, #24]
 8005664:	69fa      	ldr	r2, [r7, #28]
 8005666:	e841 2300 	strex	r3, r2, [r1]
 800566a:	617b      	str	r3, [r7, #20]
   return(result);
 800566c:	697b      	ldr	r3, [r7, #20]
 800566e:	2b00      	cmp	r3, #0
 8005670:	d1e5      	bne.n	800563e <UART_CheckIdleState+0xde>

      huart->RxState = HAL_UART_STATE_READY;
 8005672:	687b      	ldr	r3, [r7, #4]
 8005674:	2220      	movs	r2, #32
 8005676:	f8c3 208c 	str.w	r2, [r3, #140]	@ 0x8c

      __HAL_UNLOCK(huart);
 800567a:	687b      	ldr	r3, [r7, #4]
 800567c:	2200      	movs	r2, #0
 800567e:	f883 2084 	strb.w	r2, [r3, #132]	@ 0x84

      /* Timeout occurred */
      return HAL_TIMEOUT;
 8005682:	2303      	movs	r3, #3
 8005684:	e012      	b.n	80056ac <UART_CheckIdleState+0x14c>
    }
  }

  /* Initialize the UART State */
  huart->gState = HAL_UART_STATE_READY;
 8005686:	687b      	ldr	r3, [r7, #4]
 8005688:	2220      	movs	r2, #32
 800568a:	f8c3 2088 	str.w	r2, [r3, #136]	@ 0x88
  huart->RxState = HAL_UART_STATE_READY;
 800568e:	687b      	ldr	r3, [r7, #4]
 8005690:	2220      	movs	r2, #32
 8005692:	f8c3 208c 	str.w	r2, [r3, #140]	@ 0x8c
  huart->ReceptionType = HAL_UART_RECEPTION_STANDARD;
 8005696:	687b      	ldr	r3, [r7, #4]
 8005698:	2200      	movs	r2, #0
 800569a:	66da      	str	r2, [r3, #108]	@ 0x6c
  huart->RxEventType = HAL_UART_RXEVENT_TC;
 800569c:	687b      	ldr	r3, [r7, #4]
 800569e:	2200      	movs	r2, #0
 80056a0:	671a      	str	r2, [r3, #112]	@ 0x70

  __HAL_UNLOCK(huart);
 80056a2:	687b      	ldr	r3, [r7, #4]
 80056a4:	2200      	movs	r2, #0
 80056a6:	f883 2084 	strb.w	r2, [r3, #132]	@ 0x84

  return HAL_OK;
 80056aa:	2300      	movs	r3, #0
}
 80056ac:	4618      	mov	r0, r3
 80056ae:	3758      	adds	r7, #88	@ 0x58
 80056b0:	46bd      	mov	sp, r7
 80056b2:	bd80      	pop	{r7, pc}

080056b4 <UART_WaitOnFlagUntilTimeout>:
  * @param Timeout   Timeout duration
  * @retval HAL status
  */
HAL_StatusTypeDef UART_WaitOnFlagUntilTimeout(UART_HandleTypeDef *huart, uint32_t Flag, FlagStatus Status,
                                              uint32_t Tickstart, uint32_t Timeout)
{
 80056b4:	b580      	push	{r7, lr}
 80056b6:	b084      	sub	sp, #16
 80056b8:	af00      	add	r7, sp, #0
 80056ba:	60f8      	str	r0, [r7, #12]
 80056bc:	60b9      	str	r1, [r7, #8]
 80056be:	603b      	str	r3, [r7, #0]
 80056c0:	4613      	mov	r3, r2
 80056c2:	71fb      	strb	r3, [r7, #7]
  /* Wait until flag is set */
  while ((__HAL_UART_GET_FLAG(huart, Flag) ? SET : RESET) == Status)
 80056c4:	e04f      	b.n	8005766 <UART_WaitOnFlagUntilTimeout+0xb2>
  {
    /* Check for the Timeout */
    if (Timeout != HAL_MAX_DELAY)
 80056c6:	69bb      	ldr	r3, [r7, #24]
 80056c8:	f1b3 3fff 	cmp.w	r3, #4294967295	@ 0xffffffff
 80056cc:	d04b      	beq.n	8005766 <UART_WaitOnFlagUntilTimeout+0xb2>
    {
      if (((HAL_GetTick() - Tickstart) > Timeout) || (Timeout == 0U))
 80056ce:	f7fb fd1d 	bl	800110c <HAL_GetTick>
 80056d2:	4602      	mov	r2, r0
 80056d4:	683b      	ldr	r3, [r7, #0]
 80056d6:	1ad3      	subs	r3, r2, r3
 80056d8:	69ba      	ldr	r2, [r7, #24]
 80056da:	429a      	cmp	r2, r3
 80056dc:	d302      	bcc.n	80056e4 <UART_WaitOnFlagUntilTimeout+0x30>
 80056de:	69bb      	ldr	r3, [r7, #24]
 80056e0:	2b00      	cmp	r3, #0
 80056e2:	d101      	bne.n	80056e8 <UART_WaitOnFlagUntilTimeout+0x34>
      {

        return HAL_TIMEOUT;
 80056e4:	2303      	movs	r3, #3
 80056e6:	e04e      	b.n	8005786 <UART_WaitOnFlagUntilTimeout+0xd2>
      }

      if ((READ_BIT(huart->Instance->CR1, USART_CR1_RE) != 0U) && (Flag != UART_FLAG_TXE) && (Flag != UART_FLAG_TC))
 80056e8:	68fb      	ldr	r3, [r7, #12]
 80056ea:	681b      	ldr	r3, [r3, #0]
 80056ec:	681b      	ldr	r3, [r3, #0]
 80056ee:	f003 0304 	and.w	r3, r3, #4
 80056f2:	2b00      	cmp	r3, #0
 80056f4:	d037      	beq.n	8005766 <UART_WaitOnFlagUntilTimeout+0xb2>
 80056f6:	68bb      	ldr	r3, [r7, #8]
 80056f8:	2b80      	cmp	r3, #128	@ 0x80
 80056fa:	d034      	beq.n	8005766 <UART_WaitOnFlagUntilTimeout+0xb2>
 80056fc:	68bb      	ldr	r3, [r7, #8]
 80056fe:	2b40      	cmp	r3, #64	@ 0x40
 8005700:	d031      	beq.n	8005766 <UART_WaitOnFlagUntilTimeout+0xb2>
      {
        if (__HAL_UART_GET_FLAG(huart, UART_FLAG_ORE) == SET)
 8005702:	68fb      	ldr	r3, [r7, #12]
 8005704:	681b      	ldr	r3, [r3, #0]
 8005706:	69db      	ldr	r3, [r3, #28]
 8005708:	f003 0308 	and.w	r3, r3, #8
 800570c:	2b08      	cmp	r3, #8
 800570e:	d110      	bne.n	8005732 <UART_WaitOnFlagUntilTimeout+0x7e>
        {
          /* Clear Overrun Error flag*/
          __HAL_UART_CLEAR_FLAG(huart, UART_CLEAR_OREF);
 8005710:	68fb      	ldr	r3, [r7, #12]
 8005712:	681b      	ldr	r3, [r3, #0]
 8005714:	2208      	movs	r2, #8
 8005716:	621a      	str	r2, [r3, #32]

          /* Blocking error : transfer is aborted
          Set the UART state ready to be able to start again the process,
          Disable Rx Interrupts if ongoing */
          UART_EndRxTransfer(huart);
 8005718:	68f8      	ldr	r0, [r7, #12]
 800571a:	f000 f838 	bl	800578e <UART_EndRxTransfer>

          huart->ErrorCode = HAL_UART_ERROR_ORE;
 800571e:	68fb      	ldr	r3, [r7, #12]
 8005720:	2208      	movs	r2, #8
 8005722:	f8c3 2090 	str.w	r2, [r3, #144]	@ 0x90

          /* Process Unlocked */
          __HAL_UNLOCK(huart);
 8005726:	68fb      	ldr	r3, [r7, #12]
 8005728:	2200      	movs	r2, #0
 800572a:	f883 2084 	strb.w	r2, [r3, #132]	@ 0x84

          return HAL_ERROR;
 800572e:	2301      	movs	r3, #1
 8005730:	e029      	b.n	8005786 <UART_WaitOnFlagUntilTimeout+0xd2>
        }
        if (__HAL_UART_GET_FLAG(huart, UART_FLAG_RTOF) == SET)
 8005732:	68fb      	ldr	r3, [r7, #12]
 8005734:	681b      	ldr	r3, [r3, #0]
 8005736:	69db      	ldr	r3, [r3, #28]
 8005738:	f403 6300 	and.w	r3, r3, #2048	@ 0x800
 800573c:	f5b3 6f00 	cmp.w	r3, #2048	@ 0x800
 8005740:	d111      	bne.n	8005766 <UART_WaitOnFlagUntilTimeout+0xb2>
        {
          /* Clear Receiver Timeout flag*/
          __HAL_UART_CLEAR_FLAG(huart, UART_CLEAR_RTOF);
 8005742:	68fb      	ldr	r3, [r7, #12]
 8005744:	681b      	ldr	r3, [r3, #0]
 8005746:	f44f 6200 	mov.w	r2, #2048	@ 0x800
 800574a:	621a      	str	r2, [r3, #32]

          /* Blocking error : transfer is aborted
          Set the UART state ready to be able to start again the process,
          Disable Rx Interrupts if ongoing */
          UART_EndRxTransfer(huart);
 800574c:	68f8      	ldr	r0, [r7, #12]
 800574e:	f000 f81e 	bl	800578e <UART_EndRxTransfer>

          huart->ErrorCode = HAL_UART_ERROR_RTO;
 8005752:	68fb      	ldr	r3, [r7, #12]
 8005754:	2220      	movs	r2, #32
 8005756:	f8c3 2090 	str.w	r2, [r3, #144]	@ 0x90

          /* Process Unlocked */
          __HAL_UNLOCK(huart);
 800575a:	68fb      	ldr	r3, [r7, #12]
 800575c:	2200      	movs	r2, #0
 800575e:	f883 2084 	strb.w	r2, [r3, #132]	@ 0x84

          return HAL_TIMEOUT;
 8005762:	2303      	movs	r3, #3
 8005764:	e00f      	b.n	8005786 <UART_WaitOnFlagUntilTimeout+0xd2>
  while ((__HAL_UART_GET_FLAG(huart, Flag) ? SET : RESET) == Status)
 8005766:	68fb      	ldr	r3, [r7, #12]
 8005768:	681b      	ldr	r3, [r3, #0]
 800576a:	69da      	ldr	r2, [r3, #28]
 800576c:	68bb      	ldr	r3, [r7, #8]
 800576e:	4013      	ands	r3, r2
 8005770:	68ba      	ldr	r2, [r7, #8]
 8005772:	429a      	cmp	r2, r3
 8005774:	bf0c      	ite	eq
 8005776:	2301      	moveq	r3, #1
 8005778:	2300      	movne	r3, #0
 800577a:	b2db      	uxtb	r3, r3
 800577c:	461a      	mov	r2, r3
 800577e:	79fb      	ldrb	r3, [r7, #7]
 8005780:	429a      	cmp	r2, r3
 8005782:	d0a0      	beq.n	80056c6 <UART_WaitOnFlagUntilTimeout+0x12>
        }
      }
    }
  }
  return HAL_OK;
 8005784:	2300      	movs	r3, #0
}
 8005786:	4618      	mov	r0, r3
 8005788:	3710      	adds	r7, #16
 800578a:	46bd      	mov	sp, r7
 800578c:	bd80      	pop	{r7, pc}

0800578e <UART_EndRxTransfer>:
  * @brief  End ongoing Rx transfer on UART peripheral (following error detection or Reception completion).
  * @param  huart UART handle.
  * @retval None
  */
static void UART_EndRxTransfer(UART_HandleTypeDef *huart)
{
 800578e:	b480      	push	{r7}
 8005790:	b095      	sub	sp, #84	@ 0x54
 8005792:	af00      	add	r7, sp, #0
 8005794:	6078      	str	r0, [r7, #4]
  /* Disable RXNE, PE and ERR (Frame error, noise error, overrun error) interrupts */
  ATOMIC_CLEAR_BIT(huart->Instance->CR1, (USART_CR1_RXNEIE_RXFNEIE | USART_CR1_PEIE));
 8005796:	687b      	ldr	r3, [r7, #4]
 8005798:	681b      	ldr	r3, [r3, #0]
 800579a:	637b      	str	r3, [r7, #52]	@ 0x34
   __ASM volatile ("ldrex %0, %1" : "=r" (result) : "Q" (*addr) );
 800579c:	6b7b      	ldr	r3, [r7, #52]	@ 0x34
 800579e:	e853 3f00 	ldrex	r3, [r3]
 80057a2:	633b      	str	r3, [r7, #48]	@ 0x30
   return(result);
 80057a4:	6b3b      	ldr	r3, [r7, #48]	@ 0x30
 80057a6:	f423 7390 	bic.w	r3, r3, #288	@ 0x120
 80057aa:	64fb      	str	r3, [r7, #76]	@ 0x4c
 80057ac:	687b      	ldr	r3, [r7, #4]
 80057ae:	681b      	ldr	r3, [r3, #0]
 80057b0:	461a      	mov	r2, r3
 80057b2:	6cfb      	ldr	r3, [r7, #76]	@ 0x4c
 80057b4:	643b      	str	r3, [r7, #64]	@ 0x40
 80057b6:	63fa      	str	r2, [r7, #60]	@ 0x3c
   __ASM volatile ("strex %0, %2, %1" : "=&r" (result), "=Q" (*addr) : "r" (value) );
 80057b8:	6bf9      	ldr	r1, [r7, #60]	@ 0x3c
 80057ba:	6c3a      	ldr	r2, [r7, #64]	@ 0x40
 80057bc:	e841 2300 	strex	r3, r2, [r1]
 80057c0:	63bb      	str	r3, [r7, #56]	@ 0x38
   return(result);
 80057c2:	6bbb      	ldr	r3, [r7, #56]	@ 0x38
 80057c4:	2b00      	cmp	r3, #0
 80057c6:	d1e6      	bne.n	8005796 <UART_EndRxTransfer+0x8>
  ATOMIC_CLEAR_BIT(huart->Instance->CR3, (USART_CR3_EIE | USART_CR3_RXFTIE));
 80057c8:	687b      	ldr	r3, [r7, #4]
 80057ca:	681b      	ldr	r3, [r3, #0]
 80057cc:	3308      	adds	r3, #8
 80057ce:	623b      	str	r3, [r7, #32]
   __ASM volatile ("ldrex %0, %1" : "=r" (result) : "Q" (*addr) );
 80057d0:	6a3b      	ldr	r3, [r7, #32]
 80057d2:	e853 3f00 	ldrex	r3, [r3]
 80057d6:	61fb      	str	r3, [r7, #28]
   return(result);
 80057d8:	69fb      	ldr	r3, [r7, #28]
 80057da:	f023 5380 	bic.w	r3, r3, #268435456	@ 0x10000000
 80057de:	f023 0301 	bic.w	r3, r3, #1
 80057e2:	64bb      	str	r3, [r7, #72]	@ 0x48
 80057e4:	687b      	ldr	r3, [r7, #4]
 80057e6:	681b      	ldr	r3, [r3, #0]
 80057e8:	3308      	adds	r3, #8
 80057ea:	6cba      	ldr	r2, [r7, #72]	@ 0x48
 80057ec:	62fa      	str	r2, [r7, #44]	@ 0x2c
 80057ee:	62bb      	str	r3, [r7, #40]	@ 0x28
   __ASM volatile ("strex %0, %2, %1" : "=&r" (result), "=Q" (*addr) : "r" (value) );
 80057f0:	6ab9      	ldr	r1, [r7, #40]	@ 0x28
 80057f2:	6afa      	ldr	r2, [r7, #44]	@ 0x2c
 80057f4:	e841 2300 	strex	r3, r2, [r1]
 80057f8:	627b      	str	r3, [r7, #36]	@ 0x24
   return(result);
 80057fa:	6a7b      	ldr	r3, [r7, #36]	@ 0x24
 80057fc:	2b00      	cmp	r3, #0
 80057fe:	d1e3      	bne.n	80057c8 <UART_EndRxTransfer+0x3a>

  /* In case of reception waiting for IDLE event, disable also the IDLE IE interrupt source */
  if (huart->ReceptionType == HAL_UART_RECEPTION_TOIDLE)
 8005800:	687b      	ldr	r3, [r7, #4]
 8005802:	6edb      	ldr	r3, [r3, #108]	@ 0x6c
 8005804:	2b01      	cmp	r3, #1
 8005806:	d118      	bne.n	800583a <UART_EndRxTransfer+0xac>
  {
    ATOMIC_CLEAR_BIT(huart->Instance->CR1, USART_CR1_IDLEIE);
 8005808:	687b      	ldr	r3, [r7, #4]
 800580a:	681b      	ldr	r3, [r3, #0]
 800580c:	60fb      	str	r3, [r7, #12]
   __ASM volatile ("ldrex %0, %1" : "=r" (result) : "Q" (*addr) );
 800580e:	68fb      	ldr	r3, [r7, #12]
 8005810:	e853 3f00 	ldrex	r3, [r3]
 8005814:	60bb      	str	r3, [r7, #8]
   return(result);
 8005816:	68bb      	ldr	r3, [r7, #8]
 8005818:	f023 0310 	bic.w	r3, r3, #16
 800581c:	647b      	str	r3, [r7, #68]	@ 0x44
 800581e:	687b      	ldr	r3, [r7, #4]
 8005820:	681b      	ldr	r3, [r3, #0]
 8005822:	461a      	mov	r2, r3
 8005824:	6c7b      	ldr	r3, [r7, #68]	@ 0x44
 8005826:	61bb      	str	r3, [r7, #24]
 8005828:	617a      	str	r2, [r7, #20]
   __ASM volatile ("strex %0, %2, %1" : "=&r" (result), "=Q" (*addr) : "r" (value) );
 800582a:	6979      	ldr	r1, [r7, #20]
 800582c:	69ba      	ldr	r2, [r7, #24]
 800582e:	e841 2300 	strex	r3, r2, [r1]
 8005832:	613b      	str	r3, [r7, #16]
   return(result);
 8005834:	693b      	ldr	r3, [r7, #16]
 8005836:	2b00      	cmp	r3, #0
 8005838:	d1e6      	bne.n	8005808 <UART_EndRxTransfer+0x7a>
  }

  /* At end of Rx process, restore huart->RxState to Ready */
  huart->RxState = HAL_UART_STATE_READY;
 800583a:	687b      	ldr	r3, [r7, #4]
 800583c:	2220      	movs	r2, #32
 800583e:	f8c3 208c 	str.w	r2, [r3, #140]	@ 0x8c
  huart->ReceptionType = HAL_UART_RECEPTION_STANDARD;
 8005842:	687b      	ldr	r3, [r7, #4]
 8005844:	2200      	movs	r2, #0
 8005846:	66da      	str	r2, [r3, #108]	@ 0x6c

  /* Reset RxIsr function pointer */
  huart->RxISR = NULL;
 8005848:	687b      	ldr	r3, [r7, #4]
 800584a:	2200      	movs	r2, #0
 800584c:	675a      	str	r2, [r3, #116]	@ 0x74
}
 800584e:	bf00      	nop
 8005850:	3754      	adds	r7, #84	@ 0x54
 8005852:	46bd      	mov	sp, r7
 8005854:	f85d 7b04 	ldr.w	r7, [sp], #4
 8005858:	4770      	bx	lr

0800585a <memset>:
 800585a:	4402      	add	r2, r0
 800585c:	4603      	mov	r3, r0
 800585e:	4293      	cmp	r3, r2
 8005860:	d100      	bne.n	8005864 <memset+0xa>
 8005862:	4770      	bx	lr
 8005864:	f803 1b01 	strb.w	r1, [r3], #1
 8005868:	e7f9      	b.n	800585e <memset+0x4>
	...

0800586c <__libc_init_array>:
 800586c:	b570      	push	{r4, r5, r6, lr}
 800586e:	4d0d      	ldr	r5, [pc, #52]	@ (80058a4 <__libc_init_array+0x38>)
 8005870:	4c0d      	ldr	r4, [pc, #52]	@ (80058a8 <__libc_init_array+0x3c>)
 8005872:	1b64      	subs	r4, r4, r5
 8005874:	10a4      	asrs	r4, r4, #2
 8005876:	2600      	movs	r6, #0
 8005878:	42a6      	cmp	r6, r4
 800587a:	d109      	bne.n	8005890 <__libc_init_array+0x24>
 800587c:	4d0b      	ldr	r5, [pc, #44]	@ (80058ac <__libc_init_array+0x40>)
 800587e:	4c0c      	ldr	r4, [pc, #48]	@ (80058b0 <__libc_init_array+0x44>)
 8005880:	f000 f818 	bl	80058b4 <_init>
 8005884:	1b64      	subs	r4, r4, r5
 8005886:	10a4      	asrs	r4, r4, #2
 8005888:	2600      	movs	r6, #0
 800588a:	42a6      	cmp	r6, r4
 800588c:	d105      	bne.n	800589a <__libc_init_array+0x2e>
 800588e:	bd70      	pop	{r4, r5, r6, pc}
 8005890:	f855 3b04 	ldr.w	r3, [r5], #4
 8005894:	4798      	blx	r3
 8005896:	3601      	adds	r6, #1
 8005898:	e7ee      	b.n	8005878 <__libc_init_array+0xc>
 800589a:	f855 3b04 	ldr.w	r3, [r5], #4
 800589e:	4798      	blx	r3
 80058a0:	3601      	adds	r6, #1
 80058a2:	e7f2      	b.n	800588a <__libc_init_array+0x1e>
 80058a4:	08005914 	.word	0x08005914
 80058a8:	08005914 	.word	0x08005914
 80058ac:	08005914 	.word	0x08005914
 80058b0:	08005918 	.word	0x08005918

080058b4 <_init>:
 80058b4:	b5f8      	push	{r3, r4, r5, r6, r7, lr}
 80058b6:	bf00      	nop
 80058b8:	bcf8      	pop	{r3, r4, r5, r6, r7}
 80058ba:	bc08      	pop	{r3}
 80058bc:	469e      	mov	lr, r3
 80058be:	4770      	bx	lr

080058c0 <_fini>:
 80058c0:	b5f8      	push	{r3, r4, r5, r6, r7, lr}
 80058c2:	bf00      	nop
 80058c4:	bcf8      	pop	{r3, r4, r5, r6, r7}
 80058c6:	bc08      	pop	{r3}
 80058c8:	469e      	mov	lr, r3
 80058ca:	4770      	bx	lr
